Component: ARM Compiler 5.06 update 7 (build 960) Tool: armlink [4d3601]

==============================================================================

Section Cross References

    time_service.o(i.SysTick_Handler) refers to time_service.o(.data) for time_service::tim
    time_service.o(i._ZN12time_service4initEv) refers to stm32f4xx_rcc.o(i.RCC_GetClocksFreq) for RCC_GetClocksFreq
    time_service.o(i._ZN12time_service5delayEj) refers to time_service.o(.data) for time_service::tim
    time_service.o(i._ZN12time_service6millisEv) refers to time_service.o(.data) for time_service::tim
    time_service.o(.ARM.exidx) refers to time_service.o(i.SysTick_Handler) for i.SysTick_Handler
    time_service.o(.ARM.exidx) refers to time_service.o(i._ZN12time_service6millisEv) for i._ZN12time_service6millisEv
    time_service.o(.ARM.exidx) refers to time_service.o(i._ZN12time_service9startTimeEv) for i._ZN12time_service9startTimeEv
    time_service.o(.ARM.exidx) refers to time_service.o(i._ZN12time_service8stopTimeEv) for i._ZN12time_service8stopTimeEv
    time_service.o(.ARM.exidx) refers to time_service.o(i._ZN12time_service4initEv) for i._ZN12time_service4initEv
    time_service.o(.ARM.exidx) refers to time_service.o(i._ZN12time_service5delayEj) for i._ZN12time_service5delayEj
    pin.o(i._ZN3Pin12RCC_ClockCmdEv) refers to stm32f4xx_rcc.o(i.RCC_APB2PeriphClockCmd) for RCC_APB2PeriphClockCmd
    pin.o(i._ZN3Pin12RCC_ClockCmdEv) refers to stm32f4xx_rcc.o(i.RCC_APB1PeriphClockCmd) for RCC_APB1PeriphClockCmd
    pin.o(i._ZN3Pin3pwmEj) refers to stm32f4xx_tim.o(i.TIM_SetCompare1) for TIM_SetCompare1
    pin.o(i._ZN3Pin3pwmEj) refers to stm32f4xx_tim.o(i.TIM_SetCompare2) for TIM_SetCompare2
    pin.o(i._ZN3Pin3pwmEj) refers to stm32f4xx_tim.o(i.TIM_SetCompare3) for TIM_SetCompare3
    pin.o(i._ZN3Pin3pwmEj) refers to stm32f4xx_tim.o(i.TIM_SetCompare4) for TIM_SetCompare4
    pin.o(i._ZN3Pin3setEb) refers to stm32f4xx_gpio.o(i.GPIO_SetBits) for GPIO_SetBits
    pin.o(i._ZN3Pin3setEb) refers to stm32f4xx_gpio.o(i.GPIO_ResetBits) for GPIO_ResetBits
    pin.o(i._ZN3Pin6setBitEv) refers to stm32f4xx_gpio.o(i.GPIO_SetBits) for GPIO_SetBits
    pin.o(i._ZN3Pin7pwmInitEsjh) refers to pin.o(i._ZN3Pin12RCC_ClockCmdEv) for Pin::RCC_ClockCmd()
    pin.o(i._ZN3Pin7pwmInitEsjh) refers to stm32f4xx_tim.o(i.TIM_TimeBaseInit) for TIM_TimeBaseInit
    pin.o(i._ZN3Pin7pwmInitEsjh) refers to stm32f4xx_tim.o(i.TIM_Cmd) for TIM_Cmd
    pin.o(i._ZN3Pin7pwmInitEsjh) refers to stm32f4xx_tim.o(i.TIM_BDTRConfig) for TIM_BDTRConfig
    pin.o(i._ZN3Pin7pwmInitEsjh) refers to stm32f4xx_tim.o(i.TIM_OC1Init) for TIM_OC1Init
    pin.o(i._ZN3Pin7pwmInitEsjh) refers to stm32f4xx_tim.o(i.TIM_OC2Init) for TIM_OC2Init
    pin.o(i._ZN3Pin7pwmInitEsjh) refers to stm32f4xx_tim.o(i.TIM_OC3Init) for TIM_OC3Init
    pin.o(i._ZN3Pin7pwmInitEsjh) refers to stm32f4xx_tim.o(i.TIM_OC4Init) for TIM_OC4Init
    pin.o(i._ZN3Pin7pwmInitEsjh) refers to stm32f4xx_tim.o(i.TIM_CtrlPWMOutputs) for TIM_CtrlPWMOutputs
    pin.o(i._ZN3Pin8resetBitEv) refers to stm32f4xx_gpio.o(i.GPIO_ResetBits) for GPIO_ResetBits
    pin.o(i._ZN3PinC1Echt) refers to pin.o(i._ZN3Pin6setPinEh) for Pin::setPin(unsigned char)
    pin.o(i._ZN3PinC1Echt) refers to pin.o(i._ZN3Pin7setGPIOEc) for Pin::setGPIO(char)
    pin.o(i._ZN3PinC1Echt) refers to pin.o(i._ZN3Pin12setTimParamsEt) for Pin::setTimParams(unsigned short)
    pin.o(i._ZN3PinC1Echt) refers to pin.o(i._ZN3Pin13setAFforUSARTEt) for Pin::setAFforUSART(unsigned short)
    pin.o(i._ZN3PinC1Echt) refers to stm32f4xx_rcc.o(i.RCC_AHB1PeriphClockCmd) for RCC_AHB1PeriphClockCmd
    pin.o(i._ZN3PinC1Echt) refers to stm32f4xx_gpio.o(i.GPIO_Init) for GPIO_Init
    pin.o(i._ZN3PinC1Echt) refers to stm32f4xx_gpio.o(i.GPIO_PinAFConfig) for GPIO_PinAFConfig
    pin.o(.ARM.exidx) refers to pin.o(i._ZN3Pin13setAFforUSARTEt) for i._ZN3Pin13setAFforUSARTEt
    pin.o(.ARM.exidx) refers to pin.o(i._ZN3Pin12setTimParamsEt) for i._ZN3Pin12setTimParamsEt
    pin.o(.ARM.exidx) refers to pin.o(i._ZN3Pin7setGPIOEc) for i._ZN3Pin7setGPIOEc
    pin.o(.ARM.exidx) refers to pin.o(i._ZN3Pin6setPinEh) for i._ZN3Pin6setPinEh
    pin.o(.ARM.exidx) refers to pin.o(i._ZN3PinC1Echt) for i._ZN3PinC1Echt
    pin.o(.ARM.exidx) refers to pin.o(i._ZN3Pin12RCC_ClockCmdEv) for i._ZN3Pin12RCC_ClockCmdEv
    pin.o(.ARM.exidx) refers to pin.o(i._ZN3Pin7pwmInitEsjh) for i._ZN3Pin7pwmInitEsjh
    pin.o(.ARM.exidx) refers to pin.o(i._ZN3Pin3pwmEj) for i._ZN3Pin3pwmEj
    pin.o(.ARM.exidx) refers to pin.o(i._ZN3Pin3setEb) for i._ZN3Pin3setEb
    pin.o(.ARM.exidx) refers to pin.o(i._ZN3Pin6setBitEv) for i._ZN3Pin6setBitEv
    pin.o(.ARM.exidx) refers to pin.o(i._ZN3Pin8resetBitEv) for i._ZN3Pin8resetBitEv
    pin.o(.ARM.exidx) refers to pin.o(i._ZN3Pin9getPeriodEv) for i._ZN3Pin9getPeriodEv
    pin.o(.ARM.exidx) refers to pin.o(i._ZN3Pin6getPinEv) for i._ZN3Pin6getPinEv
    pin.o(.ARM.exidx) refers to pin.o(i._ZN3Pin8getGPIOxEv) for i._ZN3Pin8getGPIOxEv
    adc.o(i._ZN3Adc10adcDmaInitEv) refers to stm32f4xx_adc.o(i.ADC_DMARequestAfterLastTransferCmd) for ADC_DMARequestAfterLastTransferCmd
    adc.o(i._ZN3Adc10adcDmaInitEv) refers to stm32f4xx_adc.o(i.ADC_EOCOnEachRegularChannelCmd) for ADC_EOCOnEachRegularChannelCmd
    adc.o(i._ZN3Adc10adcDmaInitEv) refers to stm32f4xx_adc.o(i.ADC_DMACmd) for ADC_DMACmd
    adc.o(i._ZN3Adc10adcDmaInitEv) refers to stm32f4xx_adc.o(i.ADC_SoftwareStartConv) for ADC_SoftwareStartConv
    adc.o(i._ZN3Adc10setChannelEv) refers to stm32f4xx_adc.o(i.ADC_RegularChannelConfig) for ADC_RegularChannelConfig
    adc.o(i._ZN3Adc7adcInitEh) refers to stm32f4xx_rcc.o(i.RCC_APB2PeriphClockCmd) for RCC_APB2PeriphClockCmd
    adc.o(i._ZN3Adc7adcInitEh) refers to adc.o(i._ZN3Adc9getCyclesEh) for Adc::getCycles(unsigned char)
    adc.o(i._ZN3Adc7adcInitEh) refers to stm32f4xx_adc.o(i.ADC_CommonInit) for ADC_CommonInit
    adc.o(i._ZN3Adc8startADCEv) refers to stm32f4xx_adc.o(i.ADC_Init) for ADC_Init
    adc.o(i._ZN3Adc8startADCEv) refers to stm32f4xx_adc.o(i.ADC_Cmd) for ADC_Cmd
    adc.o(i._ZN3AdcC1EP11ADC_TypeDefhhh) refers to adc.o(i._ZN3Adc12getRCCPeriphEP11ADC_TypeDef) for Adc::getRCCPeriph(ADC_TypeDef*)
    adc.o(.ARM.exidx) refers to adc.o(i._ZN3Adc12getRCCPeriphEP11ADC_TypeDef) for i._ZN3Adc12getRCCPeriphEP11ADC_TypeDef
    adc.o(.ARM.exidx) refers to adc.o(i._ZN3AdcC1EP11ADC_TypeDefhhh) for i._ZN3AdcC1EP11ADC_TypeDefhhh
    adc.o(.ARM.exidx) refers to adc.o(i._ZN3Adc8sendMeChEh) for i._ZN3Adc8sendMeChEh
    adc.o(.ARM.exidx) refers to adc.o(i._ZN3Adc9getCyclesEh) for i._ZN3Adc9getCyclesEh
    adc.o(.ARM.exidx) refers to adc.o(i._ZN3Adc7adcInitEh) for i._ZN3Adc7adcInitEh
    adc.o(.ARM.exidx) refers to adc.o(i._ZN3Adc10adcDmaInitEv) for i._ZN3Adc10adcDmaInitEv
    adc.o(.ARM.exidx) refers to adc.o(i._ZN3Adc8startADCEv) for i._ZN3Adc8startADCEv
    adc.o(.ARM.exidx) refers to adc.o(i._ZN3Adc6getADCEv) for i._ZN3Adc6getADCEv
    adc.o(.ARM.exidx) refers to adc.o(i._ZN3Adc10setChannelEv) for i._ZN3Adc10setChannelEv
    dma.o(i._ZN3Dma12adcInitInDmaEh) refers to adc.o(i._ZN3Adc7adcInitEh) for Adc::adcInit(unsigned char)
    dma.o(i._ZN3Dma12adcInitInDmaEh) refers to adc.o(i._ZN3Adc8startADCEv) for Adc::startADC()
    dma.o(i._ZN3Dma12adcInitInDmaEh) refers to adc.o(i._ZN3Adc10setChannelEv) for Adc::setChannel()
    dma.o(i._ZN3Dma12adcInitInDmaEh) refers to adc.o(i._ZN3Adc10adcDmaInitEv) for Adc::adcDmaInit()
    dma.o(i._ZN3Dma7dmaInitEP18DMA_Stream_TypeDefjj) refers to stm32f4xx_rcc.o(i.RCC_AHB1PeriphClockCmd) for RCC_AHB1PeriphClockCmd
    dma.o(i._ZN3Dma7dmaInitEP18DMA_Stream_TypeDefjj) refers to stm32f4xx_dma.o(i.DMA_DeInit) for DMA_DeInit
    dma.o(i._ZN3Dma7dmaInitEP18DMA_Stream_TypeDefjj) refers to adc.o(i._ZN3Adc6getADCEv) for Adc::getADC()
    dma.o(i._ZN3Dma7dmaInitEP18DMA_Stream_TypeDefjj) refers to stm32f4xx_dma.o(i.DMA_Init) for DMA_Init
    dma.o(i._ZN3Dma7dmaInitEP18DMA_Stream_TypeDefjj) refers to stm32f4xx_dma.o(i.DMA_Cmd) for DMA_Cmd
    dma.o(i._ZN3DmaC1EjR3Adc) refers to rt_memcpy_w.o(.text) for __aeabi_memcpy4
    dma.o(.ARM.exidx) refers to dma.o(i._ZN3DmaC1EjR3Adc) for i._ZN3DmaC1EjR3Adc
    dma.o(.ARM.exidx) refers to dma.o(i._ZN3Dma7dmaInitEP18DMA_Stream_TypeDefjj) for i._ZN3Dma7dmaInitEP18DMA_Stream_TypeDefjj
    dma.o(.ARM.exidx) refers to dma.o(i._ZN3Dma12adcInitInDmaEh) for i._ZN3Dma12adcInitInDmaEh
    dma.o(.ARM.exidx) refers to dma.o(i._ZN3Dma10dataReturnEh) for i._ZN3Dma10dataReturnEh
    i2c.o(i._ZN3I2C12generateStopEv) refers to i2c.o(i._ZN3I2C6sclLowEv) for I2C::sclLow()
    i2c.o(i._ZN3I2C12generateStopEv) refers to i2c.o(i._ZN3I2C5delayEv) for I2C::delay()
    i2c.o(i._ZN3I2C12generateStopEv) refers to i2c.o(i._ZN3I2C6sdaLowEv) for I2C::sdaLow()
    i2c.o(i._ZN3I2C12generateStopEv) refers to i2c.o(i._ZN3I2C7sclHighEv) for I2C::sclHigh()
    i2c.o(i._ZN3I2C12generateStopEv) refers to i2c.o(i._ZN3I2C7sdaHighEv) for I2C::sdaHigh()
    i2c.o(i._ZN3I2C13generateStartEv) refers to i2c.o(i._ZN3I2C7sdaHighEv) for I2C::sdaHigh()
    i2c.o(i._ZN3I2C13generateStartEv) refers to i2c.o(i._ZN3I2C7sclHighEv) for I2C::sclHigh()
    i2c.o(i._ZN3I2C13generateStartEv) refers to i2c.o(i._ZN3I2C5delayEv) for I2C::delay()
    i2c.o(i._ZN3I2C13generateStartEv) refers to i2c.o(i._ZN3I2C7sdaReadEv) for I2C::sdaRead()
    i2c.o(i._ZN3I2C13generateStartEv) refers to i2c.o(i._ZN3I2C6sdaLowEv) for I2C::sdaLow()
    i2c.o(i._ZN3I2C13generateStartEv) refers to i2c.o(i._ZN3I2C6sclLowEv) for I2C::sclLow()
    i2c.o(i._ZN3I2C4readEv) refers to i2c.o(i._ZN3I2C7sdaHighEv) for I2C::sdaHigh()
    i2c.o(i._ZN3I2C4readEv) refers to i2c.o(i._ZN3I2C6sclLowEv) for I2C::sclLow()
    i2c.o(i._ZN3I2C4readEv) refers to i2c.o(i._ZN3I2C5delayEv) for I2C::delay()
    i2c.o(i._ZN3I2C4readEv) refers to i2c.o(i._ZN3I2C7sclHighEv) for I2C::sclHigh()
    i2c.o(i._ZN3I2C4readEv) refers to i2c.o(i._ZN3I2C7sdaReadEv) for I2C::sdaRead()
    i2c.o(i._ZN3I2C4sendEh) refers to i2c.o(i._ZN3I2C8writeBitEb) for I2C::writeBit(bool)
    i2c.o(i._ZN3I2C4sendEh) refers to i2c.o(i._ZN3I2C6sclLowEv) for I2C::sclLow()
    i2c.o(i._ZN3I2C4sendEh) refers to i2c.o(i._ZN3I2C5delayEv) for I2C::delay()
    i2c.o(i._ZN3I2C6sclLowEv) refers to pin.o(i._ZN3Pin8resetBitEv) for Pin::resetBit()
    i2c.o(i._ZN3I2C6sdaLowEv) refers to pin.o(i._ZN3Pin8resetBitEv) for Pin::resetBit()
    i2c.o(i._ZN3I2C7readAchEv) refers to i2c.o(i._ZN3I2C6sclLowEv) for I2C::sclLow()
    i2c.o(i._ZN3I2C7readAchEv) refers to i2c.o(i._ZN3I2C5delayEv) for I2C::delay()
    i2c.o(i._ZN3I2C7readAchEv) refers to i2c.o(i._ZN3I2C7sclHighEv) for I2C::sclHigh()
    i2c.o(i._ZN3I2C7readAchEv) refers to i2c.o(i._ZN3I2C7sdaReadEv) for I2C::sdaRead()
    i2c.o(i._ZN3I2C7sclHighEv) refers to pin.o(i._ZN3Pin6setBitEv) for Pin::setBit()
    i2c.o(i._ZN3I2C7sclReadEv) refers to pin.o(i._ZN3Pin8getGPIOxEv) for Pin::getGPIOx()
    i2c.o(i._ZN3I2C7sclReadEv) refers to pin.o(i._ZN3Pin6getPinEv) for Pin::getPin()
    i2c.o(i._ZN3I2C7sdaHighEv) refers to pin.o(i._ZN3Pin6setBitEv) for Pin::setBit()
    i2c.o(i._ZN3I2C7sdaReadEv) refers to pin.o(i._ZN3Pin8getGPIOxEv) for Pin::getGPIOx()
    i2c.o(i._ZN3I2C7sdaReadEv) refers to pin.o(i._ZN3Pin6getPinEv) for Pin::getPin()
    i2c.o(i._ZN3I2C7sendAchEv) refers to i2c.o(i._ZN3I2C6sclLowEv) for I2C::sclLow()
    i2c.o(i._ZN3I2C7sendAchEv) refers to i2c.o(i._ZN3I2C5delayEv) for I2C::delay()
    i2c.o(i._ZN3I2C7sendAchEv) refers to i2c.o(i._ZN3I2C6sdaLowEv) for I2C::sdaLow()
    i2c.o(i._ZN3I2C7sendAchEv) refers to i2c.o(i._ZN3I2C7sclHighEv) for I2C::sclHigh()
    i2c.o(i._ZN3I2C8sendNachEv) refers to i2c.o(i._ZN3I2C6sclLowEv) for I2C::sclLow()
    i2c.o(i._ZN3I2C8sendNachEv) refers to i2c.o(i._ZN3I2C5delayEv) for I2C::delay()
    i2c.o(i._ZN3I2C8sendNachEv) refers to i2c.o(i._ZN3I2C7sdaHighEv) for I2C::sdaHigh()
    i2c.o(i._ZN3I2C8sendNachEv) refers to i2c.o(i._ZN3I2C7sclHighEv) for I2C::sclHigh()
    i2c.o(i._ZN3I2C8writeBitEb) refers to i2c.o(i._ZN3I2C6sclLowEv) for I2C::sclLow()
    i2c.o(i._ZN3I2C8writeBitEb) refers to i2c.o(i._ZN3I2C5delayEv) for I2C::delay()
    i2c.o(i._ZN3I2C8writeBitEb) refers to i2c.o(i._ZN3I2C6sdaLowEv) for I2C::sdaLow()
    i2c.o(i._ZN3I2C8writeBitEb) refers to i2c.o(i._ZN3I2C7sdaHighEv) for I2C::sdaHigh()
    i2c.o(i._ZN3I2C8writeBitEb) refers to i2c.o(i._ZN3I2C7sclHighEv) for I2C::sclHigh()
    i2c.o(i._ZN3I2CC1ER3PinS1_) refers to rt_memcpy_w.o(.text) for __aeabi_memcpy4
    i2c.o(i._ZN3I2CC1ER3PinS1_) refers to i2c.o(i._ZN3I2C7sdaHighEv) for I2C::sdaHigh()
    i2c.o(i._ZN3I2CC1ER3PinS1_) refers to i2c.o(i._ZN3I2C7sclHighEv) for I2C::sclHigh()
    i2c.o(.ARM.exidx) refers to i2c.o(i._ZN3I2C7sclHighEv) for i._ZN3I2C7sclHighEv
    i2c.o(.ARM.exidx) refers to i2c.o(i._ZN3I2C7sdaHighEv) for i._ZN3I2C7sdaHighEv
    i2c.o(.ARM.exidx) refers to i2c.o(i._ZN3I2CC1ER3PinS1_) for i._ZN3I2CC1ER3PinS1_
    i2c.o(.ARM.exidx) refers to i2c.o(i._ZN3I2C6sclLowEv) for i._ZN3I2C6sclLowEv
    i2c.o(.ARM.exidx) refers to i2c.o(i._ZN3I2C6sdaLowEv) for i._ZN3I2C6sdaLowEv
    i2c.o(.ARM.exidx) refers to i2c.o(i._ZN3I2C5delayEv) for i._ZN3I2C5delayEv
    i2c.o(.ARM.exidx) refers to i2c.o(i._ZN3I2C7sdaReadEv) for i._ZN3I2C7sdaReadEv
    i2c.o(.ARM.exidx) refers to i2c.o(i._ZN3I2C13generateStartEv) for i._ZN3I2C13generateStartEv
    i2c.o(.ARM.exidx) refers to i2c.o(i._ZN3I2C12generateStopEv) for i._ZN3I2C12generateStopEv
    i2c.o(.ARM.exidx) refers to i2c.o(i._ZN3I2C7sclReadEv) for i._ZN3I2C7sclReadEv
    i2c.o(.ARM.exidx) refers to i2c.o(i._ZN3I2C8writeBitEb) for i._ZN3I2C8writeBitEb
    i2c.o(.ARM.exidx) refers to i2c.o(i._ZN3I2C4sendEh) for i._ZN3I2C4sendEh
    i2c.o(.ARM.exidx) refers to i2c.o(i._ZN3I2C7readAchEv) for i._ZN3I2C7readAchEv
    i2c.o(.ARM.exidx) refers to i2c.o(i._ZN3I2C4readEv) for i._ZN3I2C4readEv
    i2c.o(.ARM.exidx) refers to i2c.o(i._ZN3I2C7sendAchEv) for i._ZN3I2C7sendAchEv
    i2c.o(.ARM.exidx) refers to i2c.o(i._ZN3I2C8sendNachEv) for i._ZN3I2C8sendNachEv
    motor.o(i._ZN5Motor11getMaxSpeedEv) refers to pin.o(i._ZN3Pin9getPeriodEv) for Pin::getPeriod()
    motor.o(i._ZN5Motor2goEs) refers to pin.o(i._ZN3Pin9getPeriodEv) for Pin::getPeriod()
    motor.o(i._ZN5Motor2goEs) refers to pin.o(i._ZN3Pin3pwmEj) for Pin::pwm(unsigned)
    motor.o(i._ZN5Motor7disableEv) refers to pin.o(i._ZN3Pin3pwmEj) for Pin::pwm(unsigned)
    motor.o(i._ZN5MotorC1ER3PinS1_) refers to rt_memcpy_w.o(.text) for __aeabi_memcpy4
    motor.o(.ARM.exidx) refers to motor.o(i._ZN5MotorC1ER3PinS1_) for i._ZN5MotorC1ER3PinS1_
    motor.o(.ARM.exidx) refers to motor.o(i._ZN5Motor2goEs) for i._ZN5Motor2goEs
    motor.o(.ARM.exidx) refers to motor.o(i._ZN5Motor7disableEv) for i._ZN5Motor7disableEv
    motor.o(.ARM.exidx) refers to motor.o(i._ZN5Motor11getMaxSpeedEv) for i._ZN5Motor11getMaxSpeedEv
    imu_spi.o(i._ZN3IMU12setZeroAngleEv) refers to imu_spi.o(i._ZN3IMU6updateEv) for IMU::update()
    imu_spi.o(i._ZN3IMU20updateAnglesFromFIFOEv) refers to mpu9250_spi.o(i._ZN11mpu9250_spi20updateAnglesFromFIFOEv) for mpu9250_spi::updateAnglesFromFIFO()
    imu_spi.o(i._ZN3IMU4initEv) refers to mpu9250_spi.o(i._ZN11mpu9250_spi7initIMUEv) for mpu9250_spi::initIMU()
    imu_spi.o(i._ZN3IMU4initEv) refers to time_service.o(i._ZN12time_service5delayEj) for time_service::delay(unsigned)
    imu_spi.o(i._ZN3IMU4initEv) refers to imu_spi.o(i._ZN3IMU12setZeroAngleEv) for IMU::setZeroAngle()
    imu_spi.o(i._ZN3IMU4initEv) refers to time_service.o(i._ZN12time_service6millisEv) for time_service::millis()
    imu_spi.o(i._ZN3IMU5getXaEv) refers to mpu9250_spi.o(i._ZN11mpu9250_spi5getXaEv) for mpu9250_spi::getXa()
    imu_spi.o(i._ZN3IMU5getXgEv) refers to mpu9250_spi.o(i._ZN11mpu9250_spi5getXgEv) for mpu9250_spi::getXg()
    imu_spi.o(i._ZN3IMU5getYaEv) refers to mpu9250_spi.o(i._ZN11mpu9250_spi5getYaEv) for mpu9250_spi::getYa()
    imu_spi.o(i._ZN3IMU5getYgEv) refers to mpu9250_spi.o(i._ZN11mpu9250_spi5getYgEv) for mpu9250_spi::getYg()
    imu_spi.o(i._ZN3IMU5getZaEv) refers to mpu9250_spi.o(i._ZN11mpu9250_spi5getZaEv) for mpu9250_spi::getZa()
    imu_spi.o(i._ZN3IMU5getZgEv) refers to mpu9250_spi.o(i._ZN11mpu9250_spi5getZgEv) for mpu9250_spi::getZg()
    imu_spi.o(i._ZN3IMU6updateEv) refers to imu_spi.o(i._ZN3IMU20updateAnglesFromFIFOEv) for IMU::updateAnglesFromFIFO()
    imu_spi.o(i._ZN3IMU6updateEv) refers to daddsub_clz.o(x$fpl$dsub) for __aeabi_dsub
    imu_spi.o(i._ZN3IMU6updateEv) refers to drleqf.o(x$fpl$drleqf) for __aeabi_cdrcmple
    imu_spi.o(i._ZN3IMU6updateEv) refers to daddsub_clz.o(x$fpl$dadd) for __aeabi_dadd
    imu_spi.o(i._ZN3IMU6updateEv) refers to dleqf.o(x$fpl$dleqf) for __aeabi_cdcmple
    imu_spi.o(i._ZN3IMU7acc_selEv) refers to mpu9250_spi.o(i._ZN11mpu9250_spi15read_acc_fs_selEv) for mpu9250_spi::read_acc_fs_sel()
    imu_spi.o(i._ZN3IMU8getAngleEv) refers to daddsub_clz.o(x$fpl$dsub) for __aeabi_dsub
    imu_spi.o(i._ZN3IMU8getAngleEv) refers to drleqf.o(x$fpl$drleqf) for __aeabi_cdrcmple
    imu_spi.o(i._ZN3IMU8getAngleEv) refers to daddsub_clz.o(x$fpl$dadd) for __aeabi_dadd
    imu_spi.o(i._ZN3IMU8getAngleEv) refers to dleqf.o(x$fpl$dleqf) for __aeabi_cdcmple
    imu_spi.o(i._ZN3IMU8getAngleEv) refers to basic.o(x$fpl$basic) for __aeabi_dneg
    imu_spi.o(i._ZN3IMU8gyro_selEv) refers to mpu9250_spi.o(i._ZN11mpu9250_spi16read_gyro_fs_selEv) for mpu9250_spi::read_gyro_fs_sel()
    imu_spi.o(i._ZN3IMU9calibrateEj) refers to mpu9250_spi.o(i._ZN11mpu9250_spi9calibrateEi) for mpu9250_spi::calibrate(int)
    imu_spi.o(.ARM.exidx) refers to imu_spi.o(i._ZN3IMU20updateAnglesFromFIFOEv) for i._ZN3IMU20updateAnglesFromFIFOEv
    imu_spi.o(.ARM.exidx) refers to imu_spi.o(i._ZN3IMU6updateEv) for i._ZN3IMU6updateEv
    imu_spi.o(.ARM.exidx) refers to imu_spi.o(i._ZN3IMU12setZeroAngleEv) for i._ZN3IMU12setZeroAngleEv
    imu_spi.o(.ARM.exidx) refers to imu_spi.o(i._ZN3IMU4initEv) for i._ZN3IMU4initEv
    imu_spi.o(.ARM.exidx) refers to imu_spi.o(i._ZN3IMU9calibrateEj) for i._ZN3IMU9calibrateEj
    imu_spi.o(.ARM.exidx) refers to imu_spi.o(i._ZN3IMU8getAngleEv) for i._ZN3IMU8getAngleEv
    imu_spi.o(.ARM.exidx) refers to imu_spi.o(i._ZN3IMU5getXaEv) for i._ZN3IMU5getXaEv
    imu_spi.o(.ARM.exidx) refers to imu_spi.o(i._ZN3IMU5getYaEv) for i._ZN3IMU5getYaEv
    imu_spi.o(.ARM.exidx) refers to imu_spi.o(i._ZN3IMU5getZaEv) for i._ZN3IMU5getZaEv
    imu_spi.o(.ARM.exidx) refers to imu_spi.o(i._ZN3IMU5getXgEv) for i._ZN3IMU5getXgEv
    imu_spi.o(.ARM.exidx) refers to imu_spi.o(i._ZN3IMU5getYgEv) for i._ZN3IMU5getYgEv
    imu_spi.o(.ARM.exidx) refers to imu_spi.o(i._ZN3IMU5getZgEv) for i._ZN3IMU5getZgEv
    imu_spi.o(.ARM.exidx) refers to imu_spi.o(i._ZN3IMU8gyro_selEv) for i._ZN3IMU8gyro_selEv
    imu_spi.o(.ARM.exidx) refers to imu_spi.o(i._ZN3IMU7acc_selEv) for i._ZN3IMU7acc_selEv
    imu_spi.o(.ARM.exidx) refers to imu_spi.o(i._ZN3IMU16get_accelerationEv) for i._ZN3IMU16get_accelerationEv
    spi_dot.o(i._Z8initSPI2bht) refers to spi_dot.o(.data) for _RxData
    spi_dot.o(.ARM.exidx) refers to spi_dot.o(i._Z8initSPI2bht) for i._Z8initSPI2bht
    spi_dot.o(.ARM.exidx) refers to spi_dot.o(i._Z8writeSPIt) for i._Z8writeSPIt
    spi_1.o(i.SPI1_IRQHandler) refers to stm32f4xx_spi.o(i.SPI_I2S_GetFlagStatus) for SPI_I2S_GetFlagStatus
    spi_1.o(i.SPI1_IRQHandler) refers to spi_1.o(.bss) for SPI_1::_rx_buffer
    spi_1.o(i.SPI1_IRQHandler) refers to spi_1.o(.data) for SPI_1::_cur_rx_write
    spi_1.o(i._ZN5SPI_14initEiiii) refers to stm32f4xx_rcc.o(i.RCC_APB2PeriphClockCmd) for RCC_APB2PeriphClockCmd
    spi_1.o(i._ZN5SPI_14initEiiii) refers to stm32f4xx_spi.o(i.SPI_Init) for SPI_Init
    spi_1.o(i._ZN5SPI_14initEiiii) refers to stm32f4xx_spi.o(i.SPI_I2S_ITConfig) for SPI_I2S_ITConfig
    spi_1.o(i._ZN5SPI_14initEiiii) refers to stm32f4xx_spi.o(i.SPI_Cmd) for SPI_Cmd
    spi_1.o(i._ZN5SPI_14initEiiii) refers to spi_1.o(.data) for SPI_1::_spi_mode
    spi_1.o(i._ZN5SPI_14initEiiii) refers to spi_1.o(.bss) for SPI_1::_rx_buffer
    spi_1.o(i._ZN5SPI_14readEv) refers to spi_1.o(.data) for SPI_1::_buf_size
    spi_1.o(i._ZN5SPI_14readEv) refers to spi_1.o(.bss) for SPI_1::_rx_buffer
    spi_1.o(i._ZN5SPI_19availableEv) refers to spi_1.o(.data) for SPI_1::_buf_size
    spi_1.o(.ARM.exidx) refers to spi_1.o(i.SPI1_IRQHandler) for i.SPI1_IRQHandler
    spi_1.o(.ARM.exidx) refers to spi_1.o(i._ZN5SPI_14initEiiii) for i._ZN5SPI_14initEiiii
    spi_1.o(.ARM.exidx) refers to spi_1.o(i._ZN5SPI_14readEv) for i._ZN5SPI_14readEv
    spi_1.o(.ARM.exidx) refers to spi_1.o(i._ZN5SPI_14sendEt) for i._ZN5SPI_14sendEt
    spi_1.o(.ARM.exidx) refers to spi_1.o(i._ZN5SPI_19availableEv) for i._ZN5SPI_19availableEv
    mpu9250_spi.o(i._ZN11mpu9250_spi12readFIFOsizeEv) refers to mpu9250_spi.o(i._ZN11mpu9250_spi7readRegEiPii) for mpu9250_spi::readReg(int, int*, int)
    mpu9250_spi.o(i._ZN11mpu9250_spi12readFIFOsizeEv) refers to mpu9250_spi.o(i._ZN11mpu9250_spi7convertEth) for mpu9250_spi::convert(unsigned short, unsigned char)
    mpu9250_spi.o(i._ZN11mpu9250_spi12setAccOffsetEiii) refers to mpu9250_spi.o(i._ZN11mpu9250_spi8writeRegEih) for mpu9250_spi::writeReg(int, unsigned char)
    mpu9250_spi.o(i._ZN11mpu9250_spi12updateAnglesEdb) refers to deqf.o(x$fpl$deqf) for __aeabi_cdcmpeq
    mpu9250_spi.o(i._ZN11mpu9250_spi12updateAnglesEdb) refers to time_service.o(i._ZN12time_service6millisEv) for time_service::millis()
    mpu9250_spi.o(i._ZN11mpu9250_spi12updateAnglesEdb) refers to dfltll_clz.o(x$fpl$dfltull) for __aeabi_ul2d
    mpu9250_spi.o(i._ZN11mpu9250_spi12updateAnglesEdb) refers to ddiv.o(x$fpl$ddiv) for __aeabi_ddiv
    mpu9250_spi.o(i._ZN11mpu9250_spi12updateAnglesEdb) refers to dfixu.o(x$fpl$dfixu) for __aeabi_d2uiz
    mpu9250_spi.o(i._ZN11mpu9250_spi12updateAnglesEdb) refers to drleqf.o(x$fpl$drleqf) for __aeabi_cdrcmple
    mpu9250_spi.o(i._ZN11mpu9250_spi12updateAnglesEdb) refers to mpu9250_spi.o(i._ZN11mpu9250_spi7readAccEv) for mpu9250_spi::readAcc()
    mpu9250_spi.o(i._ZN11mpu9250_spi12updateAnglesEdb) refers to mpu9250_spi.o(i._ZN11mpu9250_spi8readGyroEv) for mpu9250_spi::readGyro()
    mpu9250_spi.o(i._ZN11mpu9250_spi12updateAnglesEdb) refers to mpu9250_spi.o(i._ZN11mpu9250_spi21MadgwickAHRSupdateIMUEd) for mpu9250_spi::MadgwickAHRSupdateIMU(double)
    mpu9250_spi.o(i._ZN11mpu9250_spi12updateAnglesEdb) refers to dmul.o(x$fpl$dmul) for __aeabi_dmul
    mpu9250_spi.o(i._ZN11mpu9250_spi12updateAnglesEdb) refers to daddsub_clz.o(x$fpl$dsub) for __aeabi_dsub
    mpu9250_spi.o(i._ZN11mpu9250_spi12updateAnglesEdb) refers to asin.o(i.__hardfp_asin) for __hardfp_asin
    mpu9250_spi.o(i._ZN11mpu9250_spi12updateAnglesEdb) refers to daddsub_clz.o(x$fpl$dadd) for __aeabi_dadd
    mpu9250_spi.o(i._ZN11mpu9250_spi12updateAnglesEdb) refers to daddsub_clz.o(x$fpl$drsb) for __aeabi_drsub
    mpu9250_spi.o(i._ZN11mpu9250_spi12updateAnglesEdb) refers to atan2.o(i.__hardfp_atan2) for __hardfp_atan2
    mpu9250_spi.o(i._ZN11mpu9250_spi12updateAnglesEdb) refers to d2f.o(x$fpl$d2f) for __aeabi_d2f
    mpu9250_spi.o(i._ZN11mpu9250_spi13setGyroOffsetEiii) refers to mpu9250_spi.o(i._ZN11mpu9250_spi8writeRegEih) for mpu9250_spi::writeReg(int, unsigned char)
    mpu9250_spi.o(i._ZN11mpu9250_spi15read_acc_fs_selEv) refers to mpu9250_spi.o(i._ZN11mpu9250_spi7readRegEiPii) for mpu9250_spi::readReg(int, int*, int)
    mpu9250_spi.o(i._ZN11mpu9250_spi16read_gyro_fs_selEv) refers to mpu9250_spi.o(i._ZN11mpu9250_spi7readRegEiPii) for mpu9250_spi::readReg(int, int*, int)
    mpu9250_spi.o(i._ZN11mpu9250_spi20updateAnglesFromFIFOEv) refers to mpu9250_spi.o(i._ZN11mpu9250_spi12readFIFOsizeEv) for mpu9250_spi::readFIFOsize()
    mpu9250_spi.o(i._ZN11mpu9250_spi20updateAnglesFromFIFOEv) refers to mpu9250_spi.o(i._ZN11mpu9250_spi12updateAnglesEdb) for mpu9250_spi::updateAngles(double, bool)
    mpu9250_spi.o(i._ZN11mpu9250_spi21MadgwickAHRSupdateIMUEd) refers to dmul.o(x$fpl$dmul) for __aeabi_dmul
    mpu9250_spi.o(i._ZN11mpu9250_spi21MadgwickAHRSupdateIMUEd) refers to basic.o(x$fpl$basic) for __aeabi_dneg
    mpu9250_spi.o(i._ZN11mpu9250_spi21MadgwickAHRSupdateIMUEd) refers to daddsub_clz.o(x$fpl$dsub) for __aeabi_dsub
    mpu9250_spi.o(i._ZN11mpu9250_spi21MadgwickAHRSupdateIMUEd) refers to d2f.o(x$fpl$d2f) for __aeabi_d2f
    mpu9250_spi.o(i._ZN11mpu9250_spi21MadgwickAHRSupdateIMUEd) refers to daddsub_clz.o(x$fpl$dadd) for __aeabi_dadd
    mpu9250_spi.o(i._ZN11mpu9250_spi21MadgwickAHRSupdateIMUEd) refers to deqf.o(x$fpl$deqf) for __aeabi_cdcmpeq
    mpu9250_spi.o(i._ZN11mpu9250_spi21MadgwickAHRSupdateIMUEd) refers to mpu9250_spi.o(i._ZN11mpu9250_spi7invSqrtEf) for mpu9250_spi::invSqrt(float)
    mpu9250_spi.o(i._ZN11mpu9250_spi21MadgwickAHRSupdateIMUEd) refers to f2d.o(x$fpl$f2d) for __aeabi_f2d
    mpu9250_spi.o(i._ZN11mpu9250_spi7correctEv) refers to time_service.o(i._ZN12time_service6millisEv) for time_service::millis()
    mpu9250_spi.o(i._ZN11mpu9250_spi7correctEv) refers to dfltll_clz.o(x$fpl$dfltull) for __aeabi_ul2d
    mpu9250_spi.o(i._ZN11mpu9250_spi7correctEv) refers to ddiv.o(x$fpl$ddiv) for __aeabi_ddiv
    mpu9250_spi.o(i._ZN11mpu9250_spi7correctEv) refers to daddsub_clz.o(x$fpl$drsb) for __aeabi_drsub
    mpu9250_spi.o(i._ZN11mpu9250_spi7initIMUEv) refers to time_service.o(i._ZN12time_service5delayEj) for time_service::delay(unsigned)
    mpu9250_spi.o(i._ZN11mpu9250_spi7initIMUEv) refers to spi_dot.o(i._Z8initSPI2bht) for initSPI2(bool, unsigned char, unsigned short)
    mpu9250_spi.o(i._ZN11mpu9250_spi7initIMUEv) refers to pin.o(i._ZN3Pin6setBitEv) for Pin::setBit()
    mpu9250_spi.o(i._ZN11mpu9250_spi7initIMUEv) refers to mpu9250_spi.o(i._ZN11mpu9250_spi8writeRegEih) for mpu9250_spi::writeReg(int, unsigned char)
    mpu9250_spi.o(i._ZN11mpu9250_spi7initIMUEv) refers to mpu9250_spi.o(i._ZN11mpu9250_spi13setGyroOffsetEiii) for mpu9250_spi::setGyroOffset(int, int, int)
    mpu9250_spi.o(i._ZN11mpu9250_spi7initIMUEv) refers to mpu9250_spi.o(i._ZN11mpu9250_spi12setAccOffsetEiii) for mpu9250_spi::setAccOffset(int, int, int)
    mpu9250_spi.o(i._ZN11mpu9250_spi7initIMUEv) refers to time_service.o(i._ZN12time_service6millisEv) for time_service::millis()
    mpu9250_spi.o(i._ZN11mpu9250_spi7readAccEv) refers to mpu9250_spi.o(i._ZN11mpu9250_spi7readRegEiPii) for mpu9250_spi::readReg(int, int*, int)
    mpu9250_spi.o(i._ZN11mpu9250_spi7readAccEv) refers to mpu9250_spi.o(i._ZN11mpu9250_spi7convertEth) for mpu9250_spi::convert(unsigned short, unsigned char)
    mpu9250_spi.o(i._ZN11mpu9250_spi7readAccEv) refers to dflt_clz.o(x$fpl$dflt) for __aeabi_i2d
    mpu9250_spi.o(i._ZN11mpu9250_spi7readAccEv) refers to ddiv.o(x$fpl$ddiv) for __aeabi_ddiv
    mpu9250_spi.o(i._ZN11mpu9250_spi7readAccEv) refers to daddsub_clz.o(x$fpl$dsub) for __aeabi_dsub
    mpu9250_spi.o(i._ZN11mpu9250_spi7readRegEiPii) refers to pin.o(i._ZN3Pin8resetBitEv) for Pin::resetBit()
    mpu9250_spi.o(i._ZN11mpu9250_spi7readRegEiPii) refers to spi_dot.o(i._Z8writeSPIt) for writeSPI(unsigned short)
    mpu9250_spi.o(i._ZN11mpu9250_spi7readRegEiPii) refers to pin.o(i._ZN3Pin6setBitEv) for Pin::setBit()
    mpu9250_spi.o(i._ZN11mpu9250_spi8readFIFOEv) refers to mpu9250_spi.o(i._ZN11mpu9250_spi7readRegEiPii) for mpu9250_spi::readReg(int, int*, int)
    mpu9250_spi.o(i._ZN11mpu9250_spi8readFIFOEv) refers to mpu9250_spi.o(i._ZN11mpu9250_spi7convertEth) for mpu9250_spi::convert(unsigned short, unsigned char)
    mpu9250_spi.o(i._ZN11mpu9250_spi8readFIFOEv) refers to dflt_clz.o(x$fpl$dflt) for __aeabi_i2d
    mpu9250_spi.o(i._ZN11mpu9250_spi8readFIFOEv) refers to daddsub_clz.o(x$fpl$dsub) for __aeabi_dsub
    mpu9250_spi.o(i._ZN11mpu9250_spi8readFIFOEv) refers to ddiv.o(x$fpl$ddiv) for __aeabi_ddiv
    mpu9250_spi.o(i._ZN11mpu9250_spi8readGyroEv) refers to mpu9250_spi.o(i._ZN11mpu9250_spi7readRegEiPii) for mpu9250_spi::readReg(int, int*, int)
    mpu9250_spi.o(i._ZN11mpu9250_spi8readGyroEv) refers to mpu9250_spi.o(i._ZN11mpu9250_spi7convertEth) for mpu9250_spi::convert(unsigned short, unsigned char)
    mpu9250_spi.o(i._ZN11mpu9250_spi8readGyroEv) refers to dflt_clz.o(x$fpl$dflt) for __aeabi_i2d
    mpu9250_spi.o(i._ZN11mpu9250_spi8readGyroEv) refers to ddiv.o(x$fpl$ddiv) for __aeabi_ddiv
    mpu9250_spi.o(i._ZN11mpu9250_spi8readGyroEv) refers to daddsub_clz.o(x$fpl$dsub) for __aeabi_dsub
    mpu9250_spi.o(i._ZN11mpu9250_spi8readTempEv) refers to mpu9250_spi.o(i._ZN11mpu9250_spi7readRegEiPii) for mpu9250_spi::readReg(int, int*, int)
    mpu9250_spi.o(i._ZN11mpu9250_spi8readTempEv) refers to mpu9250_spi.o(i._ZN11mpu9250_spi7convertEth) for mpu9250_spi::convert(unsigned short, unsigned char)
    mpu9250_spi.o(i._ZN11mpu9250_spi8readTempEv) refers to dflt_clz.o(x$fpl$dflt) for __aeabi_i2d
    mpu9250_spi.o(i._ZN11mpu9250_spi8readTempEv) refers to daddsub_clz.o(x$fpl$dsub) for __aeabi_dsub
    mpu9250_spi.o(i._ZN11mpu9250_spi8readTempEv) refers to ddiv.o(x$fpl$ddiv) for __aeabi_ddiv
    mpu9250_spi.o(i._ZN11mpu9250_spi8readTempEv) refers to daddsub_clz.o(x$fpl$dadd) for __aeabi_dadd
    mpu9250_spi.o(i._ZN11mpu9250_spi8writeRegEih) refers to pin.o(i._ZN3Pin8resetBitEv) for Pin::resetBit()
    mpu9250_spi.o(i._ZN11mpu9250_spi8writeRegEih) refers to spi_dot.o(i._Z8writeSPIt) for writeSPI(unsigned short)
    mpu9250_spi.o(i._ZN11mpu9250_spi8writeRegEih) refers to pin.o(i._ZN3Pin6setBitEv) for Pin::setBit()
    mpu9250_spi.o(i._ZN11mpu9250_spi9calibrateEi) refers to time_service.o(i._ZN12time_service5delayEj) for time_service::delay(unsigned)
    mpu9250_spi.o(i._ZN11mpu9250_spi9calibrateEi) refers to mpu9250_spi.o(i._ZN11mpu9250_spi8readGyroEv) for mpu9250_spi::readGyro()
    mpu9250_spi.o(i._ZN11mpu9250_spi9calibrateEi) refers to daddsub_clz.o(x$fpl$dadd) for __aeabi_dadd
    mpu9250_spi.o(i._ZN11mpu9250_spi9calibrateEi) refers to dflt_clz.o(x$fpl$dflt) for __aeabi_i2d
    mpu9250_spi.o(i._ZN11mpu9250_spi9calibrateEi) refers to ddiv.o(x$fpl$ddiv) for __aeabi_ddiv
    mpu9250_spi.o(i._ZN11mpu9250_spiC1ER3Pin) refers to rt_memcpy_w.o(.text) for __aeabi_memcpy4
    mpu9250_spi.o(.ARM.exidx) refers to mpu9250_spi.o(i._ZN11mpu9250_spiC1ER3Pin) for i._ZN11mpu9250_spiC1ER3Pin
    mpu9250_spi.o(.ARM.exidx) refers to mpu9250_spi.o(i._ZN11mpu9250_spi8writeRegEih) for i._ZN11mpu9250_spi8writeRegEih
    mpu9250_spi.o(.ARM.exidx) refers to mpu9250_spi.o(i._ZN11mpu9250_spi12setAccOffsetEiii) for i._ZN11mpu9250_spi12setAccOffsetEiii
    mpu9250_spi.o(.ARM.exidx) refers to mpu9250_spi.o(i._ZN11mpu9250_spi13setGyroOffsetEiii) for i._ZN11mpu9250_spi13setGyroOffsetEiii
    mpu9250_spi.o(.ARM.exidx) refers to mpu9250_spi.o(i._ZN11mpu9250_spi7initIMUEv) for i._ZN11mpu9250_spi7initIMUEv
    mpu9250_spi.o(.ARM.exidx) refers to mpu9250_spi.o(i._ZN11mpu9250_spi7readRegEiPii) for i._ZN11mpu9250_spi7readRegEiPii
    mpu9250_spi.o(.ARM.exidx) refers to mpu9250_spi.o(i._ZN11mpu9250_spi7readAccEv) for i._ZN11mpu9250_spi7readAccEv
    mpu9250_spi.o(.ARM.exidx) refers to mpu9250_spi.o(i._ZN11mpu9250_spi8readGyroEv) for i._ZN11mpu9250_spi8readGyroEv
    mpu9250_spi.o(.ARM.exidx) refers to mpu9250_spi.o(i._ZN11mpu9250_spi8readTempEv) for i._ZN11mpu9250_spi8readTempEv
    mpu9250_spi.o(.ARM.exidx) refers to mpu9250_spi.o(i._ZN11mpu9250_spi12readFIFOsizeEv) for i._ZN11mpu9250_spi12readFIFOsizeEv
    mpu9250_spi.o(.ARM.exidx) refers to mpu9250_spi.o(i._ZN11mpu9250_spi8readFIFOEv) for i._ZN11mpu9250_spi8readFIFOEv
    mpu9250_spi.o(.ARM.exidx) refers to mpu9250_spi.o(i._ZN11mpu9250_spi9calibrateEi) for i._ZN11mpu9250_spi9calibrateEi
    mpu9250_spi.o(.ARM.exidx) refers to mpu9250_spi.o(i._ZN11mpu9250_spi7correctEv) for i._ZN11mpu9250_spi7correctEv
    mpu9250_spi.o(.ARM.exidx) refers to mpu9250_spi.o(i._ZN11mpu9250_spi7invSqrtEf) for i._ZN11mpu9250_spi7invSqrtEf
    mpu9250_spi.o(.ARM.exidx) refers to mpu9250_spi.o(i._ZN11mpu9250_spi21MadgwickAHRSupdateIMUEd) for i._ZN11mpu9250_spi21MadgwickAHRSupdateIMUEd
    mpu9250_spi.o(.ARM.exidx) refers to mpu9250_spi.o(i._ZN11mpu9250_spi12updateAnglesEdb) for i._ZN11mpu9250_spi12updateAnglesEdb
    mpu9250_spi.o(.ARM.exidx) refers to mpu9250_spi.o(i._ZN11mpu9250_spi20updateAnglesFromFIFOEv) for i._ZN11mpu9250_spi20updateAnglesFromFIFOEv
    mpu9250_spi.o(.ARM.exidx) refers to mpu9250_spi.o(i._ZN11mpu9250_spi5getXaEv) for i._ZN11mpu9250_spi5getXaEv
    mpu9250_spi.o(.ARM.exidx) refers to mpu9250_spi.o(i._ZN11mpu9250_spi5getYaEv) for i._ZN11mpu9250_spi5getYaEv
    mpu9250_spi.o(.ARM.exidx) refers to mpu9250_spi.o(i._ZN11mpu9250_spi5getZaEv) for i._ZN11mpu9250_spi5getZaEv
    mpu9250_spi.o(.ARM.exidx) refers to mpu9250_spi.o(i._ZN11mpu9250_spi5getXgEv) for i._ZN11mpu9250_spi5getXgEv
    mpu9250_spi.o(.ARM.exidx) refers to mpu9250_spi.o(i._ZN11mpu9250_spi5getYgEv) for i._ZN11mpu9250_spi5getYgEv
    mpu9250_spi.o(.ARM.exidx) refers to mpu9250_spi.o(i._ZN11mpu9250_spi5getZgEv) for i._ZN11mpu9250_spi5getZgEv
    mpu9250_spi.o(.ARM.exidx) refers to mpu9250_spi.o(i._ZN11mpu9250_spi16read_gyro_fs_selEv) for i._ZN11mpu9250_spi16read_gyro_fs_selEv
    mpu9250_spi.o(.ARM.exidx) refers to mpu9250_spi.o(i._ZN11mpu9250_spi15read_acc_fs_selEv) for i._ZN11mpu9250_spi15read_acc_fs_selEv
    omniplatform.o(i._ZN12omniplatform4moveEfffff) refers to motor.o(i._ZN5Motor11getMaxSpeedEv) for Motor::getMaxSpeed()
    omniplatform.o(i._ZN12omniplatform4moveEfffff) refers to f2d.o(x$fpl$f2d) for __aeabi_f2d
    omniplatform.o(i._ZN12omniplatform4moveEfffff) refers to dmul.o(x$fpl$dmul) for __aeabi_dmul
    omniplatform.o(i._ZN12omniplatform4moveEfffff) refers to d2f.o(x$fpl$d2f) for __aeabi_d2f
    omniplatform.o(i._ZN12omniplatform4moveEfffff) refers to omniplatform.o(i._ZSt3sinf) for std::sin(float)
    omniplatform.o(i._ZN12omniplatform4moveEfffff) refers to motor.o(i._ZN5Motor2goEs) for Motor::go(short)
    omniplatform.o(i._ZN12omniplatform7disableEv) refers to motor.o(i._ZN5Motor7disableEv) for Motor::disable()
    omniplatform.o(i._ZN12omniplatformC1ER5MotorS1_S1_S1_) refers to rt_memcpy_w.o(.text) for __aeabi_memcpy4
    omniplatform.o(.ARM.exidx) refers to omniplatform.o(i._ZN12omniplatformC1ER5MotorS1_S1_S1_) for i._ZN12omniplatformC1ER5MotorS1_S1_S1_
    omniplatform.o(.ARM.exidx) refers to omniplatform.o(i._ZN12omniplatform7disableEv) for i._ZN12omniplatform7disableEv
    omniplatform.o(.ARM.exidx) refers to omniplatform.o(i._ZN12omniplatform4moveEfffff) for i._ZN12omniplatform4moveEfffff
    imu_usart.o(i._ZN8gyro_imu4readEv) refers to usart1.o(i._ZN5uart19availableEv) for uart1::available()
    imu_usart.o(i._ZN8gyro_imu4readEv) refers to usart1.o(i._ZN5uart14readEv) for uart1::read()
    imu_usart.o(i._ZN8gyro_imu4readEv) refers to imu_usart.o(i._ZN8gyro_imu6adductEs) for gyro_imu::adduct(short)
    imu_usart.o(i._ZN8gyro_imu4readEv) refers to usart2.o(i._ZN5uart29availableEv) for uart2::available()
    imu_usart.o(i._ZN8gyro_imu4readEv) refers to usart2.o(i._ZN5uart24readEv) for uart2::read()
    imu_usart.o(i._ZN8gyro_imu4readEv) refers to usart3.o(i._ZN5uart39availableEv) for uart3::available()
    imu_usart.o(i._ZN8gyro_imu4readEv) refers to usart3.o(i._ZN5uart34readEv) for uart3::read()
    imu_usart.o(i._ZN8gyro_imu4readEv) refers to usart6.o(i._ZN5uart69availableEv) for uart6::available()
    imu_usart.o(i._ZN8gyro_imu4readEv) refers to usart6.o(i._ZN5uart64readEv) for uart6::read()
    imu_usart.o(i._ZN8gyro_imu9initUSARTEh) refers to usart1.o(i._ZN5uart110usart1InitEjfh) for uart1::usart1Init(unsigned, float, unsigned char)
    imu_usart.o(i._ZN8gyro_imu9initUSARTEh) refers to usart2.o(i._ZN5uart210usart2InitEjfh) for uart2::usart2Init(unsigned, float, unsigned char)
    imu_usart.o(i._ZN8gyro_imu9initUSARTEh) refers to usart3.o(i._ZN5uart310usart3InitEjfh) for uart3::usart3Init(unsigned, float, unsigned char)
    imu_usart.o(i._ZN8gyro_imu9initUSARTEh) refers to usart6.o(i._ZN5uart610usart6InitEjfh) for uart6::usart6Init(unsigned, float, unsigned char)
    imu_usart.o(i._ZN8gyro_imuC1ER3PinS1_h) refers to imu_usart.o(i._ZN8gyro_imu9initUSARTEh) for gyro_imu::initUSART(unsigned char)
    imu_usart.o(.ARM.exidx) refers to imu_usart.o(i._ZN8gyro_imu9initUSARTEh) for i._ZN8gyro_imu9initUSARTEh
    imu_usart.o(.ARM.exidx) refers to imu_usart.o(i._ZN8gyro_imuC1ER3PinS1_h) for i._ZN8gyro_imuC1ER3PinS1_h
    imu_usart.o(.ARM.exidx) refers to imu_usart.o(i._ZN8gyro_imu6adductEs) for i._ZN8gyro_imu6adductEs
    imu_usart.o(.ARM.exidx) refers to imu_usart.o(i._ZN8gyro_imu4readEv) for i._ZN8gyro_imu4readEv
    imu_usart.o(.ARM.exidx) refers to imu_usart.o(i._ZN8gyro_imu20setRotationForTargetEv) for i._ZN8gyro_imu20setRotationForTargetEv
    imu_usart.o(.ARM.exidx) refers to imu_usart.o(i._ZN8gyro_imu9setTargetEs) for i._ZN8gyro_imu9setTargetEs
    imu_usart.o(.ARM.exidx) refers to imu_usart.o(i._ZN8gyro_imu12setZeroAngleEv) for i._ZN8gyro_imu12setZeroAngleEv
    imu_usart.o(.ARM.exidx) refers to imu_usart.o(i._ZN8gyro_imu15getCurrentAngleEv) for i._ZN8gyro_imu15getCurrentAngleEv
    imu_usart.o(.ARM.exidx) refers to imu_usart.o(i._ZN8gyro_imu11getRotationEv) for i._ZN8gyro_imu11getRotationEv
    imu_usart.o(.ARM.exidx) refers to imu_usart.o(i._ZN8gyro_imu14getMaxRotationEv) for i._ZN8gyro_imu14getMaxRotationEv
    imu_usart.o(.ARM.exidx) refers to imu_usart.o(i._ZN8gyro_imu9getTargetEv) for i._ZN8gyro_imu9getTargetEv
    usart1.o(i.USART1_IRQHandler) refers to stm32f4xx_usart.o(i.USART_ClearITPendingBit) for USART_ClearITPendingBit
    usart1.o(i.USART1_IRQHandler) refers to usart1.o(.data) for uart1::rx
    usart1.o(i._ZN5uart110usart1InitEjfh) refers to stm32f4xx_rcc.o(i.RCC_APB2PeriphClockCmd) for RCC_APB2PeriphClockCmd
    usart1.o(i._ZN5uart110usart1InitEjfh) refers to stm32f4xx_usart.o(i.USART_StructInit) for USART_StructInit
    usart1.o(i._ZN5uart110usart1InitEjfh) refers to f2d.o(x$fpl$f2d) for __aeabi_f2d
    usart1.o(i._ZN5uart110usart1InitEjfh) refers to deqf.o(x$fpl$deqf) for __aeabi_cdcmpeq
    usart1.o(i._ZN5uart110usart1InitEjfh) refers to stm32f4xx_usart.o(i.USART_Init) for USART_Init
    usart1.o(i._ZN5uart110usart1InitEjfh) refers to stm32f4xx_usart.o(i.USART_ITConfig) for USART_ITConfig
    usart1.o(i._ZN5uart110usart1InitEjfh) refers to stm32f4xx_usart.o(i.USART_Cmd) for USART_Cmd
    usart1.o(i._ZN5uart110usart1InitEjfh) refers to usart1.o(.data) for uart1::_txCnt
    usart1.o(i._ZN5uart14readEv) refers to usart1.o(.data) for uart1::rx
    usart1.o(i._ZN5uart15writeEh) refers to usart1.o(.data) for uart1::flag
    usart1.o(i._ZN5uart19availableEv) refers to usart1.o(.data) for uart1::_rxCnt
    usart1.o(.ARM.exidx) refers to usart1.o(i.USART1_IRQHandler) for i.USART1_IRQHandler
    usart1.o(.ARM.exidx) refers to usart1.o(i._ZN5uart110usart1InitEjfh) for i._ZN5uart110usart1InitEjfh
    usart1.o(.ARM.exidx) refers to usart1.o(i._ZN5uart14readEv) for i._ZN5uart14readEv
    usart1.o(.ARM.exidx) refers to usart1.o(i._ZN5uart15writeEh) for i._ZN5uart15writeEh
    usart1.o(.ARM.exidx) refers to usart1.o(i._ZN5uart19availableEv) for i._ZN5uart19availableEv
    usart2.o(i.USART2_IRQHandler) refers to stm32f4xx_usart.o(i.USART_ClearITPendingBit) for USART_ClearITPendingBit
    usart2.o(i.USART2_IRQHandler) refers to usart2.o(.data) for uart2::rx
    usart2.o(i._ZN5uart210usart2InitEjfh) refers to stm32f4xx_rcc.o(i.RCC_APB1PeriphClockCmd) for RCC_APB1PeriphClockCmd
    usart2.o(i._ZN5uart210usart2InitEjfh) refers to stm32f4xx_usart.o(i.USART_StructInit) for USART_StructInit
    usart2.o(i._ZN5uart210usart2InitEjfh) refers to f2d.o(x$fpl$f2d) for __aeabi_f2d
    usart2.o(i._ZN5uart210usart2InitEjfh) refers to deqf.o(x$fpl$deqf) for __aeabi_cdcmpeq
    usart2.o(i._ZN5uart210usart2InitEjfh) refers to stm32f4xx_usart.o(i.USART_Init) for USART_Init
    usart2.o(i._ZN5uart210usart2InitEjfh) refers to stm32f4xx_usart.o(i.USART_ITConfig) for USART_ITConfig
    usart2.o(i._ZN5uart210usart2InitEjfh) refers to stm32f4xx_usart.o(i.USART_Cmd) for USART_Cmd
    usart2.o(i._ZN5uart210usart2InitEjfh) refers to usart2.o(.data) for uart2::_txCnt
    usart2.o(i._ZN5uart24readEv) refers to usart2.o(.data) for uart2::rx
    usart2.o(i._ZN5uart25writeEh) refers to usart2.o(.data) for uart2::flag
    usart2.o(i._ZN5uart29availableEv) refers to usart2.o(.data) for uart2::_rxCnt
    usart2.o(.ARM.exidx) refers to usart2.o(i.USART2_IRQHandler) for i.USART2_IRQHandler
    usart2.o(.ARM.exidx) refers to usart2.o(i._ZN5uart210usart2InitEjfh) for i._ZN5uart210usart2InitEjfh
    usart2.o(.ARM.exidx) refers to usart2.o(i._ZN5uart24readEv) for i._ZN5uart24readEv
    usart2.o(.ARM.exidx) refers to usart2.o(i._ZN5uart25writeEh) for i._ZN5uart25writeEh
    usart2.o(.ARM.exidx) refers to usart2.o(i._ZN5uart29availableEv) for i._ZN5uart29availableEv
    usart3.o(i.USART3_IRQHandler) refers to stm32f4xx_usart.o(i.USART_ClearITPendingBit) for USART_ClearITPendingBit
    usart3.o(i.USART3_IRQHandler) refers to usart3.o(.data) for uart3::rx
    usart3.o(i._ZN5uart310usart3InitEjfh) refers to stm32f4xx_rcc.o(i.RCC_APB1PeriphClockCmd) for RCC_APB1PeriphClockCmd
    usart3.o(i._ZN5uart310usart3InitEjfh) refers to stm32f4xx_usart.o(i.USART_StructInit) for USART_StructInit
    usart3.o(i._ZN5uart310usart3InitEjfh) refers to f2d.o(x$fpl$f2d) for __aeabi_f2d
    usart3.o(i._ZN5uart310usart3InitEjfh) refers to deqf.o(x$fpl$deqf) for __aeabi_cdcmpeq
    usart3.o(i._ZN5uart310usart3InitEjfh) refers to stm32f4xx_usart.o(i.USART_Init) for USART_Init
    usart3.o(i._ZN5uart310usart3InitEjfh) refers to stm32f4xx_usart.o(i.USART_ITConfig) for USART_ITConfig
    usart3.o(i._ZN5uart310usart3InitEjfh) refers to stm32f4xx_usart.o(i.USART_Cmd) for USART_Cmd
    usart3.o(i._ZN5uart310usart3InitEjfh) refers to usart3.o(.data) for uart3::_txCnt
    usart3.o(i._ZN5uart34readEv) refers to usart3.o(.data) for uart3::rx
    usart3.o(i._ZN5uart35writeEh) refers to usart3.o(.data) for uart3::flag
    usart3.o(i._ZN5uart39availableEv) refers to usart3.o(.data) for uart3::_rxCnt
    usart3.o(.ARM.exidx) refers to usart3.o(i.USART3_IRQHandler) for i.USART3_IRQHandler
    usart3.o(.ARM.exidx) refers to usart3.o(i._ZN5uart310usart3InitEjfh) for i._ZN5uart310usart3InitEjfh
    usart3.o(.ARM.exidx) refers to usart3.o(i._ZN5uart34readEv) for i._ZN5uart34readEv
    usart3.o(.ARM.exidx) refers to usart3.o(i._ZN5uart35writeEh) for i._ZN5uart35writeEh
    usart3.o(.ARM.exidx) refers to usart3.o(i._ZN5uart39availableEv) for i._ZN5uart39availableEv
    usart6.o(i.USART6_IRQHandler) refers to stm32f4xx_usart.o(i.USART_ClearITPendingBit) for USART_ClearITPendingBit
    usart6.o(i.USART6_IRQHandler) refers to usart6.o(.data) for uart6::rx
    usart6.o(i._ZN5uart610usart6InitEjfh) refers to stm32f4xx_rcc.o(i.RCC_APB2PeriphClockCmd) for RCC_APB2PeriphClockCmd
    usart6.o(i._ZN5uart610usart6InitEjfh) refers to stm32f4xx_usart.o(i.USART_StructInit) for USART_StructInit
    usart6.o(i._ZN5uart610usart6InitEjfh) refers to f2d.o(x$fpl$f2d) for __aeabi_f2d
    usart6.o(i._ZN5uart610usart6InitEjfh) refers to deqf.o(x$fpl$deqf) for __aeabi_cdcmpeq
    usart6.o(i._ZN5uart610usart6InitEjfh) refers to stm32f4xx_usart.o(i.USART_Init) for USART_Init
    usart6.o(i._ZN5uart610usart6InitEjfh) refers to stm32f4xx_usart.o(i.USART_ITConfig) for USART_ITConfig
    usart6.o(i._ZN5uart610usart6InitEjfh) refers to stm32f4xx_usart.o(i.USART_Cmd) for USART_Cmd
    usart6.o(i._ZN5uart610usart6InitEjfh) refers to usart6.o(.data) for uart6::_txCnt
    usart6.o(i._ZN5uart64readEv) refers to usart6.o(.data) for uart6::rx
    usart6.o(i._ZN5uart65writeEh) refers to usart6.o(.data) for uart6::flag
    usart6.o(i._ZN5uart69availableEv) refers to usart6.o(.data) for uart6::_rxCnt
    usart6.o(.ARM.exidx) refers to usart6.o(i.USART6_IRQHandler) for i.USART6_IRQHandler
    usart6.o(.ARM.exidx) refers to usart6.o(i._ZN5uart610usart6InitEjfh) for i._ZN5uart610usart6InitEjfh
    usart6.o(.ARM.exidx) refers to usart6.o(i._ZN5uart64readEv) for i._ZN5uart64readEv
    usart6.o(.ARM.exidx) refers to usart6.o(i._ZN5uart65writeEh) for i._ZN5uart65writeEh
    usart6.o(.ARM.exidx) refers to usart6.o(i._ZN5uart69availableEv) for i._ZN5uart69availableEv
    openmv.o(i._ZN6OpenMV4readEv) refers to usart1.o(i._ZN5uart19availableEv) for uart1::available()
    openmv.o(i._ZN6OpenMV4readEv) refers to usart1.o(i._ZN5uart14readEv) for uart1::read()
    openmv.o(i._ZN6OpenMV4readEv) refers to usart2.o(i._ZN5uart29availableEv) for uart2::available()
    openmv.o(i._ZN6OpenMV4readEv) refers to usart2.o(i._ZN5uart24readEv) for uart2::read()
    openmv.o(i._ZN6OpenMV4readEv) refers to usart3.o(i._ZN5uart39availableEv) for uart3::available()
    openmv.o(i._ZN6OpenMV4readEv) refers to usart3.o(i._ZN5uart34readEv) for uart3::read()
    openmv.o(i._ZN6OpenMV4readEv) refers to usart6.o(i._ZN5uart69availableEv) for uart6::available()
    openmv.o(i._ZN6OpenMV4readEv) refers to usart6.o(i._ZN5uart64readEv) for uart6::read()
    openmv.o(i._ZN6OpenMV4readEv) refers to openmv.o(i._ZN6OpenMV4crc8EPVhh) for OpenMV::crc8(volatile unsigned char*, unsigned char)
    openmv.o(i._ZN6OpenMV4readEv) refers to openmv.o(i._ZN6OpenMV6adductEs) for OpenMV::adduct(short)
    openmv.o(i._ZN6OpenMV9calculateEsb) refers to openmv.o(i._ZN6OpenMV6adductEs) for OpenMV::adduct(short)
    openmv.o(i._ZN6OpenMV9calculateEsb) refers to omniplatform.o(i._ZSt3sinf) for std::sin(float)
    openmv.o(i._ZN6OpenMV9calculateEsb) refers to openmv.o(i._ZSt3cosf) for std::cos(float)
    openmv.o(i._ZN6OpenMV9initUSARTEh) refers to usart1.o(i._ZN5uart110usart1InitEjfh) for uart1::usart1Init(unsigned, float, unsigned char)
    openmv.o(i._ZN6OpenMV9initUSARTEh) refers to usart2.o(i._ZN5uart210usart2InitEjfh) for uart2::usart2Init(unsigned, float, unsigned char)
    openmv.o(i._ZN6OpenMV9initUSARTEh) refers to usart3.o(i._ZN5uart310usart3InitEjfh) for uart3::usart3Init(unsigned, float, unsigned char)
    openmv.o(i._ZN6OpenMV9initUSARTEh) refers to usart6.o(i._ZN5uart610usart6InitEjfh) for uart6::usart6Init(unsigned, float, unsigned char)
    openmv.o(i._ZN6OpenMVC1ER3PinS1_h) refers to openmv.o(i._ZN6OpenMV9initUSARTEh) for OpenMV::initUSART(unsigned char)
    openmv.o(.ARM.exidx) refers to openmv.o(i._ZN6OpenMV9initUSARTEh) for i._ZN6OpenMV9initUSARTEh
    openmv.o(.ARM.exidx) refers to openmv.o(i._ZN6OpenMVC1ER3PinS1_h) for i._ZN6OpenMVC1ER3PinS1_h
    openmv.o(.ARM.exidx) refers to openmv.o(i._ZN6OpenMV6adductEs) for i._ZN6OpenMV6adductEs
    openmv.o(.ARM.exidx) refers to openmv.o(i._ZN6OpenMV4crc8EPVhh) for i._ZN6OpenMV4crc8EPVhh
    openmv.o(.ARM.exidx) refers to openmv.o(i._ZN6OpenMV4readEv) for i._ZN6OpenMV4readEv
    openmv.o(.ARM.exidx) refers to openmv.o(i._ZN6OpenMV9calculateEsb) for i._ZN6OpenMV9calculateEsb
    openmv.o(.ARM.exidx) refers to openmv.o(i._ZN6OpenMV4getXEv) for i._ZN6OpenMV4getXEv
    openmv.o(.ARM.exidx) refers to openmv.o(i._ZN6OpenMV4getYEv) for i._ZN6OpenMV4getYEv
    tsop.o(i._ZN4TSOP11updateTSOPsEv) refers to pin.o(i._ZN3Pin3setEb) for Pin::set(bool)
    tsop.o(i._ZN4TSOP11updateTSOPsEv) refers to pin.o(i._ZN3Pin8getGPIOxEv) for Pin::getGPIOx()
    tsop.o(i._ZN4TSOP11updateTSOPsEv) refers to pin.o(i._ZN3Pin6getPinEv) for Pin::getPin()
    tsop.o(i._ZN4TSOP14calculateAngleEv) refers to dflt_clz.o(x$fpl$dfltu) for __aeabi_ui2d
    tsop.o(i._ZN4TSOP14calculateAngleEv) refers to dmul.o(x$fpl$dmul) for __aeabi_dmul
    tsop.o(i._ZN4TSOP14calculateAngleEv) refers to daddsub_clz.o(x$fpl$drsb) for __aeabi_drsub
    tsop.o(i._ZN4TSOP14calculateAngleEv) refers to d2f.o(x$fpl$d2f) for __aeabi_d2f
    tsop.o(i._ZN4TSOP14calculateAngleEv) refers to f2d.o(x$fpl$f2d) for __aeabi_f2d
    tsop.o(i._ZN4TSOP14calculateAngleEv) refers to cos.o(i.__hardfp_cos) for __hardfp_cos
    tsop.o(i._ZN4TSOP14calculateAngleEv) refers to daddsub_clz.o(x$fpl$dadd) for __aeabi_dadd
    tsop.o(i._ZN4TSOP14calculateAngleEv) refers to sin.o(i.__hardfp_sin) for __hardfp_sin
    tsop.o(i._ZN4TSOP14calculateAngleEv) refers to atan2f.o(i.__hardfp_atan2f) for __hardfp_atan2f
    tsop.o(i._ZN4TSOPC1ER3PinS1_S1_S1_S1_S1_) refers to rt_memcpy_w.o(.text) for __aeabi_memcpy4
    tsop.o(.ARM.exidx) refers to tsop.o(i._ZN4TSOPC1ER3PinS1_S1_S1_S1_S1_) for i._ZN4TSOPC1ER3PinS1_S1_S1_S1_S1_
    tsop.o(.ARM.exidx) refers to tsop.o(i._ZN4TSOP14calculateAngleEv) for i._ZN4TSOP14calculateAngleEv
    tsop.o(.ARM.exidx) refers to tsop.o(i._ZN4TSOP11updateTSOPsEv) for i._ZN4TSOP11updateTSOPsEv
    tsop.o(.ARM.exidx) refers to tsop.o(i._ZN4TSOP8getAngleEv) for i._ZN4TSOP8getAngleEv
    ir_locator.o(i._ZN9IRLocator11angleOffsetEff) refers to f2d.o(x$fpl$f2d) for __aeabi_f2d
    ir_locator.o(i._ZN9IRLocator11angleOffsetEff) refers to dmul.o(x$fpl$dmul) for __aeabi_dmul
    ir_locator.o(i._ZN9IRLocator11angleOffsetEff) refers to pow.o(i.__hardfp_pow) for __hardfp_pow
    ir_locator.o(i._ZN9IRLocator11angleOffsetEff) refers to drleqf.o(x$fpl$drleqf) for __aeabi_cdrcmple
    ir_locator.o(i._ZN9IRLocator11angleOffsetEff) refers to ir_locator.o(i._ZN9IRLocator11convertDistEd) for IRLocator::convertDist(double)
    ir_locator.o(i._ZN9IRLocator11angleOffsetEff) refers to d2f.o(x$fpl$d2f) for __aeabi_d2f
    ir_locator.o(i._ZN9IRLocator11angleOffsetEff) refers to basic.o(x$fpl$basic) for __aeabi_dneg
    ir_locator.o(i._ZN9IRLocator11convertDistEd) refers to daddsub_clz.o(x$fpl$dsub) for __aeabi_dsub
    ir_locator.o(i._ZN9IRLocator11convertDistEd) refers to ddiv.o(x$fpl$ddiv) for __aeabi_ddiv
    ir_locator.o(i._ZN9IRLocator11convertDistEd) refers to daddsub_clz.o(x$fpl$dadd) for __aeabi_dadd
    ir_locator.o(i._ZN9IRLocator11convertDistEd) refers to drleqf.o(x$fpl$drleqf) for __aeabi_cdrcmple
    ir_locator.o(i._ZN9IRLocator11convertDistEd) refers to dleqf.o(x$fpl$dleqf) for __aeabi_cdcmple
    ir_locator.o(i._ZN9IRLocator8getAngleEv) refers to ir_locator.o(i._ZN9IRLocator8getValueEh) for IRLocator::getValue(unsigned char)
    ir_locator.o(i._ZN9IRLocator8getAngleEv) refers to ir_locator.o(i._ZN9IRLocator6adductEs) for IRLocator::adduct(short)
    ir_locator.o(i._ZN9IRLocator8getValueEh) refers to i2c.o(i._ZN3I2C13generateStartEv) for I2C::generateStart()
    ir_locator.o(i._ZN9IRLocator8getValueEh) refers to i2c.o(i._ZN3I2C4sendEh) for I2C::send(unsigned char)
    ir_locator.o(i._ZN9IRLocator8getValueEh) refers to i2c.o(i._ZN3I2C7readAchEv) for I2C::readAch()
    ir_locator.o(i._ZN9IRLocator8getValueEh) refers to i2c.o(i._ZN3I2C12generateStopEv) for I2C::generateStop()
    ir_locator.o(i._ZN9IRLocator8getValueEh) refers to i2c.o(i._ZN3I2C4readEv) for I2C::read()
    ir_locator.o(i._ZN9IRLocatorC1ER3I2Cj) refers to rt_memcpy_w.o(.text) for __aeabi_memcpy4
    ir_locator.o(.ARM.exidx) refers to ir_locator.o(i._ZN9IRLocatorC1ER3I2Cj) for i._ZN9IRLocatorC1ER3I2Cj
    ir_locator.o(.ARM.exidx) refers to ir_locator.o(i._ZN9IRLocator8getValueEh) for i._ZN9IRLocator8getValueEh
    ir_locator.o(.ARM.exidx) refers to ir_locator.o(i._ZN9IRLocator6adductEs) for i._ZN9IRLocator6adductEs
    ir_locator.o(.ARM.exidx) refers to ir_locator.o(i._ZN9IRLocator8getAngleEv) for i._ZN9IRLocator8getAngleEv
    ir_locator.o(.ARM.exidx) refers to ir_locator.o(i._ZN9IRLocator7getDistEv) for i._ZN9IRLocator7getDistEv
    ir_locator.o(.ARM.exidx) refers to ir_locator.o(i._ZN9IRLocator10ballBehindEs) for i._ZN9IRLocator10ballBehindEs
    ir_locator.o(.ARM.exidx) refers to ir_locator.o(i._ZN9IRLocator11convertDistEd) for i._ZN9IRLocator11convertDistEd
    ir_locator.o(.ARM.exidx) refers to ir_locator.o(i._ZN9IRLocator11angleOffsetEff) for i._ZN9IRLocator11angleOffsetEff
    main.o(i.main) refers to time_service.o(i._ZN12time_service4initEv) for time_service::init()
    main.o(i.main) refers to time_service.o(i._ZN12time_service9startTimeEv) for time_service::startTime()
    main.o(i.main) refers to time_service.o(i._ZN12time_service5delayEj) for time_service::delay(unsigned)
    main.o(i.main) refers to pin.o(i._ZN3PinC1Echt) for Pin::Pin(char, unsigned char, unsigned short)
    main.o(i.main) refers to i2c.o(i._ZN3I2CC1ER3PinS1_) for I2C::I2C(Pin&, Pin&)
    main.o(i.main) refers to ir_locator.o(i._ZN9IRLocatorC1ER3I2Cj) for IRLocator::IRLocator(I2C&, unsigned)
    main.o(i.main) refers to imu_usart.o(i._ZN8gyro_imuC1ER3PinS1_h) for gyro_imu::gyro_imu(Pin&, Pin&, unsigned char)
    main.o(i.main) refers to pin.o(i._ZN3Pin7pwmInitEsjh) for Pin::pwmInit(short, unsigned, unsigned char)
    main.o(i.main) refers to motor.o(i._ZN5MotorC1ER3PinS1_) for Motor::Motor(Pin&, Pin&)
    main.o(i.main) refers to omniplatform.o(i._ZN12omniplatformC1ER5MotorS1_S1_S1_) for omniplatform::omniplatform(Motor&, Motor&, Motor&, Motor&)
    main.o(i.main) refers to time_service.o(i._ZN12time_service6millisEv) for time_service::millis()
    main.o(i.main) refers to ir_locator.o(i._ZN9IRLocator8getAngleEv) for IRLocator::getAngle()
    main.o(i.main) refers to ir_locator.o(i._ZN9IRLocator7getDistEv) for IRLocator::getDist()
    main.o(i.main) refers to imu_usart.o(i._ZN8gyro_imu4readEv) for gyro_imu::read()
    main.o(i.main) refers to imu_usart.o(i._ZN8gyro_imu15getCurrentAngleEv) for gyro_imu::getCurrentAngle()
    main.o(i.main) refers to imu_usart.o(i._ZN8gyro_imu9setTargetEs) for gyro_imu::setTarget(short)
    main.o(i.main) refers to imu_usart.o(i._ZN8gyro_imu12setZeroAngleEv) for gyro_imu::setZeroAngle()
    main.o(i.main) refers to imu_usart.o(i._ZN8gyro_imu20setRotationForTargetEv) for gyro_imu::setRotationForTarget()
    main.o(i.main) refers to imu_usart.o(i._ZN8gyro_imu11getRotationEv) for gyro_imu::getRotation()
    main.o(i.main) refers to imu_usart.o(i._ZN8gyro_imu6adductEs) for gyro_imu::adduct(short)
    main.o(i.main) refers to ir_locator.o(i._ZN9IRLocator11angleOffsetEff) for IRLocator::angleOffset(float, float)
    main.o(i.main) refers to imu_usart.o(i._ZN8gyro_imu14getMaxRotationEv) for gyro_imu::getMaxRotation()
    main.o(i.main) refers to omniplatform.o(i._ZN12omniplatform4moveEfffff) for omniplatform::move(float, float, float, float, float)
    main.o(.ARM.exidx) refers to main.o(i._Z6delay_i) for i._Z6delay_i
    main.o(.ARM.exidx) refers to main.o(i._Z3mapfffff) for i._Z3mapfffff
    main.o(.ARM.exidx) refers to main.o(i._Z4signf) for i._Z4signf
    main.o(.ARM.exidx) refers to main.o(i.main) for i.main
    stm32f4xx_adc.o(i.ADC_DeInit) refers to stm32f4xx_rcc.o(i.RCC_APB2PeriphResetCmd) for RCC_APB2PeriphResetCmd
    stm32f4xx_dac.o(i.DAC_DeInit) refers to stm32f4xx_rcc.o(i.RCC_APB1PeriphResetCmd) for RCC_APB1PeriphResetCmd
    stm32f4xx_gpio.o(i.GPIO_DeInit) refers to stm32f4xx_rcc.o(i.RCC_AHB1PeriphResetCmd) for RCC_AHB1PeriphResetCmd
    stm32f4xx_i2c.o(i.I2C_DeInit) refers to stm32f4xx_rcc.o(i.RCC_APB1PeriphResetCmd) for RCC_APB1PeriphResetCmd
    stm32f4xx_i2c.o(i.I2C_Init) refers to stm32f4xx_rcc.o(i.RCC_GetClocksFreq) for RCC_GetClocksFreq
    stm32f4xx_rcc.o(i.RCC_GetClocksFreq) refers to stm32f4xx_rcc.o(.data) for APBAHBPrescTable
    stm32f4xx_rcc.o(i.RCC_WaitForHSEStartUp) refers to stm32f4xx_rcc.o(i.RCC_GetFlagStatus) for RCC_GetFlagStatus
    stm32f4xx_spi.o(i.SPI_I2S_DeInit) refers to stm32f4xx_rcc.o(i.RCC_APB2PeriphResetCmd) for RCC_APB2PeriphResetCmd
    stm32f4xx_spi.o(i.SPI_I2S_DeInit) refers to stm32f4xx_rcc.o(i.RCC_APB1PeriphResetCmd) for RCC_APB1PeriphResetCmd
    stm32f4xx_tim.o(i.TIM_DeInit) refers to stm32f4xx_rcc.o(i.RCC_APB2PeriphResetCmd) for RCC_APB2PeriphResetCmd
    stm32f4xx_tim.o(i.TIM_DeInit) refers to stm32f4xx_rcc.o(i.RCC_APB1PeriphResetCmd) for RCC_APB1PeriphResetCmd
    stm32f4xx_tim.o(i.TIM_ETRClockMode1Config) refers to stm32f4xx_tim.o(i.TIM_ETRConfig) for TIM_ETRConfig
    stm32f4xx_tim.o(i.TIM_ETRClockMode2Config) refers to stm32f4xx_tim.o(i.TIM_ETRConfig) for TIM_ETRConfig
    stm32f4xx_tim.o(i.TIM_ICInit) refers to stm32f4xx_tim.o(i.TI1_Config) for TI1_Config
    stm32f4xx_tim.o(i.TIM_ICInit) refers to stm32f4xx_tim.o(i.TIM_SetIC1Prescaler) for TIM_SetIC1Prescaler
    stm32f4xx_tim.o(i.TIM_ICInit) refers to stm32f4xx_tim.o(i.TI2_Config) for TI2_Config
    stm32f4xx_tim.o(i.TIM_ICInit) refers to stm32f4xx_tim.o(i.TIM_SetIC2Prescaler) for TIM_SetIC2Prescaler
    stm32f4xx_tim.o(i.TIM_ICInit) refers to stm32f4xx_tim.o(i.TI3_Config) for TI3_Config
    stm32f4xx_tim.o(i.TIM_ICInit) refers to stm32f4xx_tim.o(i.TIM_SetIC3Prescaler) for TIM_SetIC3Prescaler
    stm32f4xx_tim.o(i.TIM_ICInit) refers to stm32f4xx_tim.o(i.TI4_Config) for TI4_Config
    stm32f4xx_tim.o(i.TIM_ICInit) refers to stm32f4xx_tim.o(i.TIM_SetIC4Prescaler) for TIM_SetIC4Prescaler
    stm32f4xx_tim.o(i.TIM_ITRxExternalClockConfig) refers to stm32f4xx_tim.o(i.TIM_SelectInputTrigger) for TIM_SelectInputTrigger
    stm32f4xx_tim.o(i.TIM_PWMIConfig) refers to stm32f4xx_tim.o(i.TI1_Config) for TI1_Config
    stm32f4xx_tim.o(i.TIM_PWMIConfig) refers to stm32f4xx_tim.o(i.TIM_SetIC1Prescaler) for TIM_SetIC1Prescaler
    stm32f4xx_tim.o(i.TIM_PWMIConfig) refers to stm32f4xx_tim.o(i.TI2_Config) for TI2_Config
    stm32f4xx_tim.o(i.TIM_PWMIConfig) refers to stm32f4xx_tim.o(i.TIM_SetIC2Prescaler) for TIM_SetIC2Prescaler
    stm32f4xx_tim.o(i.TIM_TIxExternalClockConfig) refers to stm32f4xx_tim.o(i.TI2_Config) for TI2_Config
    stm32f4xx_tim.o(i.TIM_TIxExternalClockConfig) refers to stm32f4xx_tim.o(i.TI1_Config) for TI1_Config
    stm32f4xx_tim.o(i.TIM_TIxExternalClockConfig) refers to stm32f4xx_tim.o(i.TIM_SelectInputTrigger) for TIM_SelectInputTrigger
    stm32f4xx_usart.o(i.USART_DeInit) refers to stm32f4xx_rcc.o(i.RCC_APB2PeriphResetCmd) for RCC_APB2PeriphResetCmd
    stm32f4xx_usart.o(i.USART_DeInit) refers to stm32f4xx_rcc.o(i.RCC_APB1PeriphResetCmd) for RCC_APB1PeriphResetCmd
    stm32f4xx_usart.o(i.USART_Init) refers to stm32f4xx_rcc.o(i.RCC_GetClocksFreq) for RCC_GetClocksFreq
    retarget.o(.rev16_text) refers (Special) to use_no_semi.o(.text) for __use_no_semihosting_swi
    retarget.o(.revsh_text) refers (Special) to use_no_semi.o(.text) for __use_no_semihosting_swi
    retarget.o(.rrx_text) refers (Special) to use_no_semi.o(.text) for __use_no_semihosting_swi
    retarget.o(i._Z12ITM_SendCharj) refers (Special) to use_no_semi.o(.text) for __use_no_semihosting_swi
    retarget.o(i.__aeabi_atexit) refers (Special) to use_no_semi.o(.text) for __use_no_semihosting_swi
    retarget.o(i._sys_command_string) refers (Special) to use_no_semi.o(.text) for __use_no_semihosting_swi
    retarget.o(i._sys_exit) refers (Special) to use_no_semi.o(.text) for __use_no_semihosting_swi
    retarget.o(i._ttywrch) refers (Special) to use_no_semi.o(.text) for __use_no_semihosting_swi
    retarget.o(i._ttywrch) refers to retarget.o(i._Z12ITM_SendCharj) for ITM_SendChar(unsigned)
    retarget.o(i.ferror) refers (Special) to use_no_semi.o(.text) for __use_no_semihosting_swi
    retarget.o(i.fgetc) refers (Special) to use_no_semi.o(.text) for __use_no_semihosting_swi
    retarget.o(i.fputc) refers (Special) to use_no_semi.o(.text) for __use_no_semihosting_swi
    retarget.o(i.fputc) refers to retarget.o(i._Z12ITM_SendCharj) for ITM_SendChar(unsigned)
    retarget.o(.ARM.exidx) refers (Special) to use_no_semi.o(.text) for __use_no_semihosting_swi
    retarget.o(.ARM.exidx) refers to retarget.o(i._Z12ITM_SendCharj) for i._Z12ITM_SendCharj
    retarget.o(.ARM.exidx) refers (Special) to use_no_semi.o(.text) for __use_no_semihosting_swi
    retarget.o(.ARM.exidx) refers to retarget.o(i.__aeabi_atexit) for i.__aeabi_atexit
    retarget.o(.ARM.exidx) refers (Special) to use_no_semi.o(.text) for __use_no_semihosting_swi
    retarget.o(.ARM.exidx) refers to retarget.o(i.fputc) for i.fputc
    retarget.o(.ARM.exidx) refers (Special) to use_no_semi.o(.text) for __use_no_semihosting_swi
    retarget.o(.ARM.exidx) refers to retarget.o(i.fgetc) for i.fgetc
    retarget.o(.ARM.exidx) refers (Special) to use_no_semi.o(.text) for __use_no_semihosting_swi
    retarget.o(.ARM.exidx) refers to retarget.o(i.ferror) for i.ferror
    retarget.o(.ARM.exidx) refers (Special) to use_no_semi.o(.text) for __use_no_semihosting_swi
    retarget.o(.ARM.exidx) refers to retarget.o(i._ttywrch) for i._ttywrch
    retarget.o(.ARM.exidx) refers (Special) to use_no_semi.o(.text) for __use_no_semihosting_swi
    retarget.o(.ARM.exidx) refers to retarget.o(i._sys_command_string) for i._sys_command_string
    retarget.o(.ARM.exidx) refers (Special) to use_no_semi.o(.text) for __use_no_semihosting_swi
    retarget.o(.ARM.exidx) refers to retarget.o(i._sys_exit) for i._sys_exit
    retarget.o(.constdata) refers (Special) to use_no_semi.o(.text) for __use_no_semihosting_swi
    retarget.o(.data) refers (Special) to use_no_semi.o(.text) for __use_no_semihosting_swi
    startup_stm32f407xx.o(STACK) refers (Special) to heapauxi.o(.text) for __use_two_region_memory
    startup_stm32f407xx.o(HEAP) refers (Special) to heapauxi.o(.text) for __use_two_region_memory
    startup_stm32f407xx.o(RESET) refers (Special) to heapauxi.o(.text) for __use_two_region_memory
    startup_stm32f407xx.o(RESET) refers to startup_stm32f407xx.o(STACK) for __initial_sp
    startup_stm32f407xx.o(RESET) refers to startup_stm32f407xx.o(.text) for Reset_Handler
    startup_stm32f407xx.o(RESET) refers to time_service.o(i.SysTick_Handler) for SysTick_Handler
    startup_stm32f407xx.o(RESET) refers to spi_1.o(i.SPI1_IRQHandler) for SPI1_IRQHandler
    startup_stm32f407xx.o(RESET) refers to usart1.o(i.USART1_IRQHandler) for USART1_IRQHandler
    startup_stm32f407xx.o(RESET) refers to usart2.o(i.USART2_IRQHandler) for USART2_IRQHandler
    startup_stm32f407xx.o(RESET) refers to usart3.o(i.USART3_IRQHandler) for USART3_IRQHandler
    startup_stm32f407xx.o(RESET) refers to usart6.o(i.USART6_IRQHandler) for USART6_IRQHandler
    startup_stm32f407xx.o(.text) refers (Special) to heapauxi.o(.text) for __use_two_region_memory
    startup_stm32f407xx.o(.text) refers to system_stm32f4xx.o(i.SystemInit) for SystemInit
    startup_stm32f407xx.o(.text) refers to __main.o(!!!main) for __main
    startup_stm32f407xx.o(.text) refers to startup_stm32f407xx.o(HEAP) for Heap_Mem
    startup_stm32f407xx.o(.text) refers to startup_stm32f407xx.o(STACK) for Stack_Mem
    system_stm32f4xx.o(i.SystemCoreClockUpdate) refers to system_stm32f4xx.o(.data) for SystemCoreClock
    system_stm32f4xx.o(i.SystemCoreClockUpdate) refers to system_stm32f4xx.o(.constdata) for AHBPrescTable
    system_stm32f4xx.o(i.SystemInit) refers to system_stm32f4xx.o(i.SetSysClock) for SetSysClock
    __main.o(!!!main) refers to __rtentry.o(.ARM.Collect$$rtentry$$00000000) for __rt_entry
    basic.o(x$fpl$basic) refers (Special) to usenofp.o(x$fpl$usenofp) for __I$use$fp
    d2f.o(x$fpl$d2f) refers (Special) to usenofp.o(x$fpl$usenofp) for __I$use$fp
    d2f.o(x$fpl$d2f) refers to fretinf.o(x$fpl$fretinf) for __fpl_fretinf
    d2f.o(x$fpl$d2f) refers to dnaninf.o(x$fpl$dnaninf) for __fpl_dnaninf
    daddsub_clz.o(x$fpl$dadd) refers (Special) to usenofp.o(x$fpl$usenofp) for __I$use$fp
    daddsub_clz.o(x$fpl$dadd) refers to daddsub_clz.o(x$fpl$dsub) for _dsub1
    daddsub_clz.o(x$fpl$dadd) refers to dretinf.o(x$fpl$dretinf) for __fpl_dretinf
    daddsub_clz.o(x$fpl$dadd) refers to dnaninf.o(x$fpl$dnaninf) for __fpl_dnaninf
    daddsub_clz.o(x$fpl$drsb) refers (Special) to usenofp.o(x$fpl$usenofp) for __I$use$fp
    daddsub_clz.o(x$fpl$drsb) refers to daddsub_clz.o(x$fpl$dadd) for _dadd1
    daddsub_clz.o(x$fpl$drsb) refers to daddsub_clz.o(x$fpl$dsub) for _dsub1
    daddsub_clz.o(x$fpl$dsub) refers (Special) to usenofp.o(x$fpl$usenofp) for __I$use$fp
    daddsub_clz.o(x$fpl$dsub) refers to daddsub_clz.o(x$fpl$dadd) for _dadd1
    daddsub_clz.o(x$fpl$dsub) refers to dnaninf.o(x$fpl$dnaninf) for __fpl_dnaninf
    ddiv.o(x$fpl$drdiv) refers (Special) to usenofp.o(x$fpl$usenofp) for __I$use$fp
    ddiv.o(x$fpl$drdiv) refers to ddiv.o(x$fpl$ddiv) for ddiv_entry
    ddiv.o(x$fpl$ddiv) refers (Special) to usenofp.o(x$fpl$usenofp) for __I$use$fp
    ddiv.o(x$fpl$ddiv) refers to dretinf.o(x$fpl$dretinf) for __fpl_dretinf
    ddiv.o(x$fpl$ddiv) refers to dnaninf.o(x$fpl$dnaninf) for __fpl_dnaninf
    deqf.o(x$fpl$deqf) refers (Special) to usenofp.o(x$fpl$usenofp) for __I$use$fp
    deqf.o(x$fpl$deqf) refers to dnaninf.o(x$fpl$dnaninf) for __fpl_dnaninf
    deqf.o(x$fpl$deqf) refers to dcmpi.o(x$fpl$dcmpinf) for __fpl_dcmp_Inf
    dfixu.o(x$fpl$dfixu) refers (Special) to usenofp.o(x$fpl$usenofp) for __I$use$fp
    dfixu.o(x$fpl$dfixu) refers to dnaninf.o(x$fpl$dnaninf) for __fpl_dnaninf
    dfixu.o(x$fpl$dfixur) refers (Special) to usenofp.o(x$fpl$usenofp) for __I$use$fp
    dfixu.o(x$fpl$dfixur) refers to dnaninf.o(x$fpl$dnaninf) for __fpl_dnaninf
    dflt_clz.o(x$fpl$dfltu) refers (Special) to usenofp.o(x$fpl$usenofp) for __I$use$fp
    dflt_clz.o(x$fpl$dflt) refers (Special) to usenofp.o(x$fpl$usenofp) for __I$use$fp
    dflt_clz.o(x$fpl$dfltn) refers (Special) to usenofp.o(x$fpl$usenofp) for __I$use$fp
    dfltll_clz.o(x$fpl$dfltll) refers (Special) to usenofp.o(x$fpl$usenofp) for __I$use$fp
    dfltll_clz.o(x$fpl$dfltull) refers (Special) to usenofp.o(x$fpl$usenofp) for __I$use$fp
    dleqf.o(x$fpl$dleqf) refers (Special) to usenofp.o(x$fpl$usenofp) for __I$use$fp
    dleqf.o(x$fpl$dleqf) refers to dnaninf.o(x$fpl$dnaninf) for __fpl_dnaninf
    dleqf.o(x$fpl$dleqf) refers to dcmpi.o(x$fpl$dcmpinf) for __fpl_dcmp_Inf
    dmul.o(x$fpl$dmul) refers (Special) to usenofp.o(x$fpl$usenofp) for __I$use$fp
    dmul.o(x$fpl$dmul) refers to dretinf.o(x$fpl$dretinf) for __fpl_dretinf
    dmul.o(x$fpl$dmul) refers to dnaninf.o(x$fpl$dnaninf) for __fpl_dnaninf
    drleqf.o(x$fpl$drleqf) refers (Special) to usenofp.o(x$fpl$usenofp) for __I$use$fp
    drleqf.o(x$fpl$drleqf) refers to dleqf.o(x$fpl$dleqf) for __fpl_dcmple_InfNaN
    f2d.o(x$fpl$f2d) refers (Special) to usenofp.o(x$fpl$usenofp) for __I$use$fp
    f2d.o(x$fpl$f2d) refers to fnaninf.o(x$fpl$fnaninf) for __fpl_fnaninf
    f2d.o(x$fpl$f2d) refers to dretinf.o(x$fpl$dretinf) for __fpl_dretinf
    asin.o(i.__hardfp_asin) refers (Special) to usenofp.o(x$fpl$usenofp) for __I$use$fp
    asin.o(i.__hardfp_asin) refers to dunder.o(i.__mathlib_dbl_infnan) for __mathlib_dbl_infnan
    asin.o(i.__hardfp_asin) refers to dmul.o(x$fpl$dmul) for __aeabi_dmul
    asin.o(i.__hardfp_asin) refers to daddsub_clz.o(x$fpl$dadd) for __aeabi_dadd
    asin.o(i.__hardfp_asin) refers to _rserrno.o(.text) for __set_errno
    asin.o(i.__hardfp_asin) refers to dunder.o(i.__mathlib_dbl_invalid) for __mathlib_dbl_invalid
    asin.o(i.__hardfp_asin) refers to fpclassify.o(i.__ARM_fpclassify) for __ARM_fpclassify
    asin.o(i.__hardfp_asin) refers to dunder.o(i.__mathlib_dbl_underflow) for __mathlib_dbl_underflow
    asin.o(i.__hardfp_asin) refers to poly.o(i.__kernel_poly) for __kernel_poly
    asin.o(i.__hardfp_asin) refers to ddiv.o(x$fpl$ddiv) for __aeabi_ddiv
    asin.o(i.__hardfp_asin) refers to fabs.o(i.fabs) for fabs
    asin.o(i.__hardfp_asin) refers to daddsub_clz.o(x$fpl$drsb) for __aeabi_drsub
    asin.o(i.__hardfp_asin) refers to sqrt.o(i.sqrt) for sqrt
    asin.o(i.__hardfp_asin) refers to daddsub_clz.o(x$fpl$dsub) for __aeabi_dsub
    asin.o(i.__hardfp_asin) refers to basic.o(x$fpl$basic) for __aeabi_dneg
    asin.o(i.__hardfp_asin) refers to asin.o(.constdata) for .constdata
    asin.o(i.__softfp_asin) refers (Special) to usenofp.o(x$fpl$usenofp) for __I$use$fp
    asin.o(i.__softfp_asin) refers to asin.o(i.__hardfp_asin) for __hardfp_asin
    asin.o(i.asin) refers (Special) to usenofp.o(x$fpl$usenofp) for __I$use$fp
    asin.o(i.asin) refers to asin.o(i.__hardfp_asin) for __hardfp_asin
    asin.o(.constdata) refers (Special) to usenofp.o(x$fpl$usenofp) for __I$use$fp
    asin_x.o(i.____hardfp_asin$lsc) refers (Special) to usenofp.o(x$fpl$usenofp) for __I$use$fp
    asin_x.o(i.____hardfp_asin$lsc) refers to dunder.o(i.__mathlib_dbl_infnan) for __mathlib_dbl_infnan
    asin_x.o(i.____hardfp_asin$lsc) refers to dmul.o(x$fpl$dmul) for __aeabi_dmul
    asin_x.o(i.____hardfp_asin$lsc) refers to daddsub_clz.o(x$fpl$dadd) for __aeabi_dadd
    asin_x.o(i.____hardfp_asin$lsc) refers to _rserrno.o(.text) for __set_errno
    asin_x.o(i.____hardfp_asin$lsc) refers to poly.o(i.__kernel_poly) for __kernel_poly
    asin_x.o(i.____hardfp_asin$lsc) refers to ddiv.o(x$fpl$ddiv) for __aeabi_ddiv
    asin_x.o(i.____hardfp_asin$lsc) refers to fabs.o(i.fabs) for fabs
    asin_x.o(i.____hardfp_asin$lsc) refers to daddsub_clz.o(x$fpl$drsb) for __aeabi_drsub
    asin_x.o(i.____hardfp_asin$lsc) refers to sqrt.o(i.sqrt) for sqrt
    asin_x.o(i.____hardfp_asin$lsc) refers to daddsub_clz.o(x$fpl$dsub) for __aeabi_dsub
    asin_x.o(i.____hardfp_asin$lsc) refers to basic.o(x$fpl$basic) for __aeabi_dneg
    asin_x.o(i.____hardfp_asin$lsc) refers to asin_x.o(.constdata) for .constdata
    asin_x.o(i.____softfp_asin$lsc) refers (Special) to usenofp.o(x$fpl$usenofp) for __I$use$fp
    asin_x.o(i.____softfp_asin$lsc) refers to asin_x.o(i.____hardfp_asin$lsc) for ____hardfp_asin$lsc
    asin_x.o(i.__asin$lsc) refers (Special) to usenofp.o(x$fpl$usenofp) for __I$use$fp
    asin_x.o(i.__asin$lsc) refers to asin_x.o(i.____hardfp_asin$lsc) for ____hardfp_asin$lsc
    asin_x.o(.constdata) refers (Special) to usenofp.o(x$fpl$usenofp) for __I$use$fp
    atan2.o(i.__hardfp_atan2) refers (Special) to usenofp.o(x$fpl$usenofp) for __I$use$fp
    atan2.o(i.__hardfp_atan2) refers to dunder.o(i.__mathlib_dbl_infnan2) for __mathlib_dbl_infnan2
    atan2.o(i.__hardfp_atan2) refers to atan.o(i.atan) for atan
    atan2.o(i.__hardfp_atan2) refers to basic.o(x$fpl$basic) for __aeabi_dneg
    atan2.o(i.__hardfp_atan2) refers to ddiv.o(x$fpl$ddiv) for __aeabi_ddiv
    atan2.o(i.__hardfp_atan2) refers to fabs.o(i.fabs) for fabs
    atan2.o(i.__hardfp_atan2) refers to daddsub_clz.o(x$fpl$dsub) for __aeabi_dsub
    atan2.o(i.__hardfp_atan2) refers to deqf.o(x$fpl$deqf) for __aeabi_cdcmpeq
    atan2.o(i.__hardfp_atan2) refers to _rserrno.o(.text) for __set_errno
    atan2.o(i.__hardfp_atan2) refers to daddsub_clz.o(x$fpl$drsb) for __aeabi_drsub
    atan2.o(i.__hardfp_atan2) refers to qnan.o(.constdata) for __mathlib_zero
    atan2.o(i.__softfp_atan2) refers (Special) to usenofp.o(x$fpl$usenofp) for __I$use$fp
    atan2.o(i.__softfp_atan2) refers to atan2.o(i.__hardfp_atan2) for __hardfp_atan2
    atan2.o(i.atan2) refers (Special) to usenofp.o(x$fpl$usenofp) for __I$use$fp
    atan2.o(i.atan2) refers to atan2.o(i.__hardfp_atan2) for __hardfp_atan2
    atan2_x.o(i.____hardfp_atan2$lsc) refers (Special) to usenofp.o(x$fpl$usenofp) for __I$use$fp
    atan2_x.o(i.____hardfp_atan2$lsc) refers to dunder.o(i.__mathlib_dbl_infnan2) for __mathlib_dbl_infnan2
    atan2_x.o(i.____hardfp_atan2$lsc) refers to atan.o(i.atan) for atan
    atan2_x.o(i.____hardfp_atan2$lsc) refers to _rserrno.o(.text) for __set_errno
    atan2_x.o(i.____hardfp_atan2$lsc) refers to basic.o(x$fpl$basic) for __aeabi_dneg
    atan2_x.o(i.____hardfp_atan2$lsc) refers to ddiv.o(x$fpl$ddiv) for __aeabi_ddiv
    atan2_x.o(i.____hardfp_atan2$lsc) refers to fabs.o(i.fabs) for fabs
    atan2_x.o(i.____hardfp_atan2$lsc) refers to daddsub_clz.o(x$fpl$dsub) for __aeabi_dsub
    atan2_x.o(i.____hardfp_atan2$lsc) refers to deqf.o(x$fpl$deqf) for __aeabi_cdcmpeq
    atan2_x.o(i.____hardfp_atan2$lsc) refers to daddsub_clz.o(x$fpl$drsb) for __aeabi_drsub
    atan2_x.o(i.____hardfp_atan2$lsc) refers to qnan.o(.constdata) for __mathlib_zero
    atan2_x.o(i.____softfp_atan2$lsc) refers (Special) to usenofp.o(x$fpl$usenofp) for __I$use$fp
    atan2_x.o(i.____softfp_atan2$lsc) refers to atan2_x.o(i.____hardfp_atan2$lsc) for ____hardfp_atan2$lsc
    atan2_x.o(i.__atan2$lsc) refers (Special) to usenofp.o(x$fpl$usenofp) for __I$use$fp
    atan2_x.o(i.__atan2$lsc) refers to atan2_x.o(i.____hardfp_atan2$lsc) for ____hardfp_atan2$lsc
    atan2f.o(i.__hardfp_atan2f) refers (Special) to usenofp.o(x$fpl$usenofp) for __I$use$fp
    atan2f.o(i.__hardfp_atan2f) refers to fpclassifyf.o(i.__ARM_fpclassifyf) for __ARM_fpclassifyf
    atan2f.o(i.__hardfp_atan2f) refers to funder.o(i.__mathlib_flt_underflow) for __mathlib_flt_underflow
    atan2f.o(i.__hardfp_atan2f) refers to _rserrno.o(.text) for __set_errno
    atan2f.o(i.__hardfp_atan2f) refers to funder.o(i.__mathlib_flt_infnan2) for __mathlib_flt_infnan2
    atan2f.o(i.__softfp_atan2f) refers (Special) to usenofp.o(x$fpl$usenofp) for __I$use$fp
    atan2f.o(i.__softfp_atan2f) refers to atan2f.o(i.__hardfp_atan2f) for __hardfp_atan2f
    atan2f.o(i.atan2f) refers (Special) to usenofp.o(x$fpl$usenofp) for __I$use$fp
    atan2f.o(i.atan2f) refers to atan2f.o(i.__hardfp_atan2f) for __hardfp_atan2f
    atan2f_x.o(i.____hardfp_atan2f$lsc) refers (Special) to usenofp.o(x$fpl$usenofp) for __I$use$fp
    atan2f_x.o(i.____hardfp_atan2f$lsc) refers to fpclassifyf.o(i.__ARM_fpclassifyf) for __ARM_fpclassifyf
    atan2f_x.o(i.____hardfp_atan2f$lsc) refers to _rserrno.o(.text) for __set_errno
    atan2f_x.o(i.____hardfp_atan2f$lsc) refers to funder.o(i.__mathlib_flt_infnan2) for __mathlib_flt_infnan2
    atan2f_x.o(i.____softfp_atan2f$lsc) refers (Special) to usenofp.o(x$fpl$usenofp) for __I$use$fp
    atan2f_x.o(i.____softfp_atan2f$lsc) refers to atan2f_x.o(i.____hardfp_atan2f$lsc) for ____hardfp_atan2f$lsc
    atan2f_x.o(i.__atan2f$lsc) refers (Special) to usenofp.o(x$fpl$usenofp) for __I$use$fp
    atan2f_x.o(i.__atan2f$lsc) refers to atan2f_x.o(i.____hardfp_atan2f$lsc) for ____hardfp_atan2f$lsc
    cos.o(i.__hardfp_cos) refers (Special) to usenofp.o(x$fpl$usenofp) for __I$use$fp
    cos.o(i.__hardfp_cos) refers to _rserrno.o(.text) for __set_errno
    cos.o(i.__hardfp_cos) refers to dunder.o(i.__mathlib_dbl_invalid) for __mathlib_dbl_invalid
    cos.o(i.__hardfp_cos) refers to dunder.o(i.__mathlib_dbl_infnan) for __mathlib_dbl_infnan
    cos.o(i.__hardfp_cos) refers to rred.o(i.__ieee754_rem_pio2) for __ieee754_rem_pio2
    cos.o(i.__hardfp_cos) refers to sin_i.o(i.__kernel_sin) for __kernel_sin
    cos.o(i.__hardfp_cos) refers to cos_i.o(i.__kernel_cos) for __kernel_cos
    cos.o(i.__hardfp_cos) refers to basic.o(x$fpl$basic) for __aeabi_dneg
    cos.o(i.__softfp_cos) refers (Special) to usenofp.o(x$fpl$usenofp) for __I$use$fp
    cos.o(i.__softfp_cos) refers to cos.o(i.__hardfp_cos) for __hardfp_cos
    cos.o(i.cos) refers (Special) to usenofp.o(x$fpl$usenofp) for __I$use$fp
    cos.o(i.cos) refers to cos.o(i.__hardfp_cos) for __hardfp_cos
    cos_x.o(i.____hardfp_cos$lsc) refers (Special) to usenofp.o(x$fpl$usenofp) for __I$use$fp
    cos_x.o(i.____hardfp_cos$lsc) refers to _rserrno.o(.text) for __set_errno
    cos_x.o(i.____hardfp_cos$lsc) refers to dunder.o(i.__mathlib_dbl_infnan) for __mathlib_dbl_infnan
    cos_x.o(i.____hardfp_cos$lsc) refers to rred.o(i.__ieee754_rem_pio2) for __ieee754_rem_pio2
    cos_x.o(i.____hardfp_cos$lsc) refers to sin_i.o(i.__kernel_sin) for __kernel_sin
    cos_x.o(i.____hardfp_cos$lsc) refers to cos_i.o(i.__kernel_cos) for __kernel_cos
    cos_x.o(i.____hardfp_cos$lsc) refers to basic.o(x$fpl$basic) for __aeabi_dneg
    cos_x.o(i.____softfp_cos$lsc) refers (Special) to usenofp.o(x$fpl$usenofp) for __I$use$fp
    cos_x.o(i.____softfp_cos$lsc) refers to cos_x.o(i.____hardfp_cos$lsc) for ____hardfp_cos$lsc
    cos_x.o(i.__cos$lsc) refers (Special) to usenofp.o(x$fpl$usenofp) for __I$use$fp
    cos_x.o(i.__cos$lsc) refers to cos_x.o(i.____hardfp_cos$lsc) for ____hardfp_cos$lsc
    cosf.o(i.__hardfp_cosf) refers (Special) to usenofp.o(x$fpl$usenofp) for __I$use$fp
    cosf.o(i.__hardfp_cosf) refers to rredf.o(i.__mathlib_rredf2) for __mathlib_rredf2
    cosf.o(i.__hardfp_cosf) refers to _rserrno.o(.text) for __set_errno
    cosf.o(i.__hardfp_cosf) refers to funder.o(i.__mathlib_flt_invalid) for __mathlib_flt_invalid
    cosf.o(i.__hardfp_cosf) refers to funder.o(i.__mathlib_flt_infnan) for __mathlib_flt_infnan
    cosf.o(i.__softfp_cosf) refers (Special) to usenofp.o(x$fpl$usenofp) for __I$use$fp
    cosf.o(i.__softfp_cosf) refers to cosf.o(i.__hardfp_cosf) for __hardfp_cosf
    cosf.o(i.cosf) refers (Special) to usenofp.o(x$fpl$usenofp) for __I$use$fp
    cosf.o(i.cosf) refers to cosf.o(i.__hardfp_cosf) for __hardfp_cosf
    cosf_x.o(i.____hardfp_cosf$lsc) refers (Special) to usenofp.o(x$fpl$usenofp) for __I$use$fp
    cosf_x.o(i.____hardfp_cosf$lsc) refers to rredf.o(i.__mathlib_rredf2) for __mathlib_rredf2
    cosf_x.o(i.____hardfp_cosf$lsc) refers to _rserrno.o(.text) for __set_errno
    cosf_x.o(i.____hardfp_cosf$lsc) refers to funder.o(i.__mathlib_flt_infnan) for __mathlib_flt_infnan
    cosf_x.o(i.____softfp_cosf$lsc) refers (Special) to usenofp.o(x$fpl$usenofp) for __I$use$fp
    cosf_x.o(i.____softfp_cosf$lsc) refers to cosf_x.o(i.____hardfp_cosf$lsc) for ____hardfp_cosf$lsc
    cosf_x.o(i.__cosf$lsc) refers (Special) to usenofp.o(x$fpl$usenofp) for __I$use$fp
    cosf_x.o(i.__cosf$lsc) refers to cosf_x.o(i.____hardfp_cosf$lsc) for ____hardfp_cosf$lsc
    pow.o(i.__hardfp_pow) refers (Special) to usenofp.o(x$fpl$usenofp) for __I$use$fp
    pow.o(i.__hardfp_pow) refers to dunder.o(i.__mathlib_dbl_infnan2) for __mathlib_dbl_infnan2
    pow.o(i.__hardfp_pow) refers to _rserrno.o(.text) for __set_errno
    pow.o(i.__hardfp_pow) refers to dunder.o(i.__mathlib_dbl_divzero) for __mathlib_dbl_divzero
    pow.o(i.__hardfp_pow) refers to basic.o(x$fpl$basic) for __aeabi_dneg
    pow.o(i.__hardfp_pow) refers to dunder.o(i.__mathlib_dbl_overflow) for __mathlib_dbl_overflow
    pow.o(i.__hardfp_pow) refers to ddiv.o(x$fpl$ddiv) for __aeabi_ddiv
    pow.o(i.__hardfp_pow) refers to sqrt.o(i.sqrt) for sqrt
    pow.o(i.__hardfp_pow) refers to fabs.o(i.fabs) for fabs
    pow.o(i.__hardfp_pow) refers to dflt_clz.o(x$fpl$dflt) for __aeabi_i2d
    pow.o(i.__hardfp_pow) refers to dunder.o(i.__mathlib_dbl_invalid) for __mathlib_dbl_invalid
    pow.o(i.__hardfp_pow) refers to dmul.o(x$fpl$dmul) for __aeabi_dmul
    pow.o(i.__hardfp_pow) refers to dunder.o(i.__mathlib_dbl_underflow) for __mathlib_dbl_underflow
    pow.o(i.__hardfp_pow) refers to daddsub_clz.o(x$fpl$dsub) for __aeabi_dsub
    pow.o(i.__hardfp_pow) refers to daddsub_clz.o(x$fpl$drsb) for __aeabi_drsub
    pow.o(i.__hardfp_pow) refers to qnan.o(.constdata) for __mathlib_zero
    pow.o(i.__hardfp_pow) refers to daddsub_clz.o(x$fpl$dadd) for __aeabi_dadd
    pow.o(i.__hardfp_pow) refers to poly.o(i.__kernel_poly) for __kernel_poly
    pow.o(i.__hardfp_pow) refers to pow.o(.constdata) for .constdata
    pow.o(i.__hardfp_pow) refers to drleqf.o(x$fpl$drleqf) for __aeabi_cdrcmple
    pow.o(i.__hardfp_pow) refers to scalbn.o(x$fpl$scalbn) for __ARM_scalbn
    pow.o(i.__hardfp_pow) refers to fpclassify.o(i.__ARM_fpclassify) for __ARM_fpclassify
    pow.o(i.__softfp_pow) refers (Special) to usenofp.o(x$fpl$usenofp) for __I$use$fp
    pow.o(i.__softfp_pow) refers to pow.o(i.__hardfp_pow) for __hardfp_pow
    pow.o(i.pow) refers (Special) to usenofp.o(x$fpl$usenofp) for __I$use$fp
    pow.o(i.pow) refers to pow.o(i.__hardfp_pow) for __hardfp_pow
    pow.o(.constdata) refers (Special) to usenofp.o(x$fpl$usenofp) for __I$use$fp
    pow_x.o(i.____hardfp_pow$lsc) refers (Special) to usenofp.o(x$fpl$usenofp) for __I$use$fp
    pow_x.o(i.____hardfp_pow$lsc) refers to dunder.o(i.__mathlib_dbl_infnan2) for __mathlib_dbl_infnan2
    pow_x.o(i.____hardfp_pow$lsc) refers to _rserrno.o(.text) for __set_errno
    pow_x.o(i.____hardfp_pow$lsc) refers to basic.o(x$fpl$basic) for __aeabi_dneg
    pow_x.o(i.____hardfp_pow$lsc) refers to ddiv.o(x$fpl$ddiv) for __aeabi_ddiv
    pow_x.o(i.____hardfp_pow$lsc) refers to sqrt.o(i.sqrt) for sqrt
    pow_x.o(i.____hardfp_pow$lsc) refers to fabs.o(i.fabs) for fabs
    pow_x.o(i.____hardfp_pow$lsc) refers to dflt_clz.o(x$fpl$dflt) for __aeabi_i2d
    pow_x.o(i.____hardfp_pow$lsc) refers to dmul.o(x$fpl$dmul) for __aeabi_dmul
    pow_x.o(i.____hardfp_pow$lsc) refers to daddsub_clz.o(x$fpl$dsub) for __aeabi_dsub
    pow_x.o(i.____hardfp_pow$lsc) refers to daddsub_clz.o(x$fpl$drsb) for __aeabi_drsub
    pow_x.o(i.____hardfp_pow$lsc) refers to qnan.o(.constdata) for __mathlib_zero
    pow_x.o(i.____hardfp_pow$lsc) refers to daddsub_clz.o(x$fpl$dadd) for __aeabi_dadd
    pow_x.o(i.____hardfp_pow$lsc) refers to poly.o(i.__kernel_poly) for __kernel_poly
    pow_x.o(i.____hardfp_pow$lsc) refers to pow_x.o(.constdata) for .constdata
    pow_x.o(i.____hardfp_pow$lsc) refers to drleqf.o(x$fpl$drleqf) for __aeabi_cdrcmple
    pow_x.o(i.____hardfp_pow$lsc) refers to scalbn.o(x$fpl$scalbn) for __ARM_scalbn
    pow_x.o(i.____softfp_pow$lsc) refers (Special) to usenofp.o(x$fpl$usenofp) for __I$use$fp
    pow_x.o(i.____softfp_pow$lsc) refers to pow_x.o(i.____hardfp_pow$lsc) for ____hardfp_pow$lsc
    pow_x.o(i.__pow$lsc) refers (Special) to usenofp.o(x$fpl$usenofp) for __I$use$fp
    pow_x.o(i.__pow$lsc) refers to pow_x.o(i.____hardfp_pow$lsc) for ____hardfp_pow$lsc
    pow_x.o(.constdata) refers (Special) to usenofp.o(x$fpl$usenofp) for __I$use$fp
    sin.o(i.__hardfp_sin) refers (Special) to usenofp.o(x$fpl$usenofp) for __I$use$fp
    sin.o(i.__hardfp_sin) refers to _rserrno.o(.text) for __set_errno
    sin.o(i.__hardfp_sin) refers to dunder.o(i.__mathlib_dbl_invalid) for __mathlib_dbl_invalid
    sin.o(i.__hardfp_sin) refers to dunder.o(i.__mathlib_dbl_infnan) for __mathlib_dbl_infnan
    sin.o(i.__hardfp_sin) refers to rred.o(i.__ieee754_rem_pio2) for __ieee754_rem_pio2
    sin.o(i.__hardfp_sin) refers to cos_i.o(i.__kernel_cos) for __kernel_cos
    sin.o(i.__hardfp_sin) refers to basic.o(x$fpl$basic) for __aeabi_dneg
    sin.o(i.__hardfp_sin) refers to sin_i.o(i.__kernel_sin) for __kernel_sin
    sin.o(i.__softfp_sin) refers (Special) to usenofp.o(x$fpl$usenofp) for __I$use$fp
    sin.o(i.__softfp_sin) refers to sin.o(i.__hardfp_sin) for __hardfp_sin
    sin.o(i.sin) refers (Special) to usenofp.o(x$fpl$usenofp) for __I$use$fp
    sin.o(i.sin) refers to sin.o(i.__hardfp_sin) for __hardfp_sin
    sin_x.o(i.____hardfp_sin$lsc) refers (Special) to usenofp.o(x$fpl$usenofp) for __I$use$fp
    sin_x.o(i.____hardfp_sin$lsc) refers to _rserrno.o(.text) for __set_errno
    sin_x.o(i.____hardfp_sin$lsc) refers to dunder.o(i.__mathlib_dbl_infnan) for __mathlib_dbl_infnan
    sin_x.o(i.____hardfp_sin$lsc) refers to rred.o(i.__ieee754_rem_pio2) for __ieee754_rem_pio2
    sin_x.o(i.____hardfp_sin$lsc) refers to cos_i.o(i.__kernel_cos) for __kernel_cos
    sin_x.o(i.____hardfp_sin$lsc) refers to basic.o(x$fpl$basic) for __aeabi_dneg
    sin_x.o(i.____hardfp_sin$lsc) refers to sin_i.o(i.__kernel_sin) for __kernel_sin
    sin_x.o(i.____softfp_sin$lsc) refers (Special) to usenofp.o(x$fpl$usenofp) for __I$use$fp
    sin_x.o(i.____softfp_sin$lsc) refers to sin_x.o(i.____hardfp_sin$lsc) for ____hardfp_sin$lsc
    sin_x.o(i.__sin$lsc) refers (Special) to usenofp.o(x$fpl$usenofp) for __I$use$fp
    sin_x.o(i.__sin$lsc) refers to sin_x.o(i.____hardfp_sin$lsc) for ____hardfp_sin$lsc
    sinf.o(i.__hardfp_sinf) refers (Special) to usenofp.o(x$fpl$usenofp) for __I$use$fp
    sinf.o(i.__hardfp_sinf) refers to rredf.o(i.__mathlib_rredf2) for __mathlib_rredf2
    sinf.o(i.__hardfp_sinf) refers to fpclassifyf.o(i.__ARM_fpclassifyf) for __ARM_fpclassifyf
    sinf.o(i.__hardfp_sinf) refers to funder.o(i.__mathlib_flt_underflow) for __mathlib_flt_underflow
    sinf.o(i.__hardfp_sinf) refers to _rserrno.o(.text) for __set_errno
    sinf.o(i.__hardfp_sinf) refers to funder.o(i.__mathlib_flt_invalid) for __mathlib_flt_invalid
    sinf.o(i.__hardfp_sinf) refers to funder.o(i.__mathlib_flt_infnan) for __mathlib_flt_infnan
    sinf.o(i.__softfp_sinf) refers (Special) to usenofp.o(x$fpl$usenofp) for __I$use$fp
    sinf.o(i.__softfp_sinf) refers to sinf.o(i.__hardfp_sinf) for __hardfp_sinf
    sinf.o(i.sinf) refers (Special) to usenofp.o(x$fpl$usenofp) for __I$use$fp
    sinf.o(i.sinf) refers to sinf.o(i.__hardfp_sinf) for __hardfp_sinf
    sinf_x.o(i.____hardfp_sinf$lsc) refers (Special) to usenofp.o(x$fpl$usenofp) for __I$use$fp
    sinf_x.o(i.____hardfp_sinf$lsc) refers to rredf.o(i.__mathlib_rredf2) for __mathlib_rredf2
    sinf_x.o(i.____hardfp_sinf$lsc) refers to _rserrno.o(.text) for __set_errno
    sinf_x.o(i.____hardfp_sinf$lsc) refers to funder.o(i.__mathlib_flt_infnan) for __mathlib_flt_infnan
    sinf_x.o(i.____softfp_sinf$lsc) refers (Special) to usenofp.o(x$fpl$usenofp) for __I$use$fp
    sinf_x.o(i.____softfp_sinf$lsc) refers to sinf_x.o(i.____hardfp_sinf$lsc) for ____hardfp_sinf$lsc
    sinf_x.o(i.__sinf$lsc) refers (Special) to usenofp.o(x$fpl$usenofp) for __I$use$fp
    sinf_x.o(i.__sinf$lsc) refers to sinf_x.o(i.____hardfp_sinf$lsc) for ____hardfp_sinf$lsc
    __rtentry.o(.ARM.Collect$$rtentry$$00000000) refers (Special) to __rtentry2.o(.ARM.Collect$$rtentry$$0000000A) for __rt_entry_li
    __rtentry.o(.ARM.Collect$$rtentry$$00000000) refers (Special) to __rtentry2.o(.ARM.Collect$$rtentry$$0000000D) for __rt_entry_main
    __rtentry.o(.ARM.Collect$$rtentry$$00000000) refers (Special) to __rtentry2.o(.ARM.Collect$$rtentry$$0000000C) for __rt_entry_postli_1
    __rtentry.o(.ARM.Collect$$rtentry$$00000000) refers (Special) to __rtentry2.o(.ARM.Collect$$rtentry$$00000009) for __rt_entry_postsh_1
    __rtentry.o(.ARM.Collect$$rtentry$$00000000) refers (Special) to __rtentry2.o(.ARM.Collect$$rtentry$$00000002) for __rt_entry_presh_1
    __rtentry.o(.ARM.Collect$$rtentry$$00000000) refers (Special) to __rtentry4.o(.ARM.Collect$$rtentry$$00000004) for __rt_entry_sh
    _rserrno.o(.text) refers to rt_errno_addr_intlibspace.o(.text) for __aeabi_errno_addr
    dcmpi.o(x$fpl$dcmpinf) refers (Special) to usenofp.o(x$fpl$usenofp) for __I$use$fp
    dnaninf.o(x$fpl$dnaninf) refers (Special) to usenofp.o(x$fpl$usenofp) for __I$use$fp
    dretinf.o(x$fpl$dretinf) refers (Special) to usenofp.o(x$fpl$usenofp) for __I$use$fp
    fnaninf.o(x$fpl$fnaninf) refers (Special) to usenofp.o(x$fpl$usenofp) for __I$use$fp
    fretinf.o(x$fpl$fretinf) refers (Special) to usenofp.o(x$fpl$usenofp) for __I$use$fp
    scalbn.o(x$fpl$scalbn) refers (Special) to usenofp.o(x$fpl$usenofp) for __I$use$fp
    scalbn.o(x$fpl$scalbn) refers to dcheck1.o(x$fpl$dcheck1) for __fpl_dcheck_NaN1
    atan.o(i.__hardfp_atan) refers (Special) to usenofp.o(x$fpl$usenofp) for __I$use$fp
    atan.o(i.__hardfp_atan) refers to dunder.o(i.__mathlib_dbl_infnan) for __mathlib_dbl_infnan
    atan.o(i.__hardfp_atan) refers to fpclassify.o(i.__ARM_fpclassify) for __ARM_fpclassify
    atan.o(i.__hardfp_atan) refers to dunder.o(i.__mathlib_dbl_underflow) for __mathlib_dbl_underflow
    atan.o(i.__hardfp_atan) refers to fabs.o(i.fabs) for fabs
    atan.o(i.__hardfp_atan) refers to daddsub_clz.o(x$fpl$dadd) for __aeabi_dadd
    atan.o(i.__hardfp_atan) refers to dmul.o(x$fpl$dmul) for __aeabi_dmul
    atan.o(i.__hardfp_atan) refers to daddsub_clz.o(x$fpl$dsub) for __aeabi_dsub
    atan.o(i.__hardfp_atan) refers to ddiv.o(x$fpl$ddiv) for __aeabi_ddiv
    atan.o(i.__hardfp_atan) refers to poly.o(i.__kernel_poly) for __kernel_poly
    atan.o(i.__hardfp_atan) refers to daddsub_clz.o(x$fpl$drsb) for __aeabi_drsub
    atan.o(i.__hardfp_atan) refers to basic.o(x$fpl$basic) for __aeabi_dneg
    atan.o(i.__hardfp_atan) refers to atan.o(.constdata) for .constdata
    atan.o(i.__softfp_atan) refers (Special) to usenofp.o(x$fpl$usenofp) for __I$use$fp
    atan.o(i.__softfp_atan) refers to atan.o(i.__hardfp_atan) for __hardfp_atan
    atan.o(i.atan) refers (Special) to usenofp.o(x$fpl$usenofp) for __I$use$fp
    atan.o(i.atan) refers to atan.o(i.__hardfp_atan) for __hardfp_atan
    atan.o(.constdata) refers (Special) to usenofp.o(x$fpl$usenofp) for __I$use$fp
    atan_x.o(i.____hardfp_atan$lsc) refers (Special) to usenofp.o(x$fpl$usenofp) for __I$use$fp
    atan_x.o(i.____hardfp_atan$lsc) refers to dunder.o(i.__mathlib_dbl_infnan) for __mathlib_dbl_infnan
    atan_x.o(i.____hardfp_atan$lsc) refers to fabs.o(i.fabs) for fabs
    atan_x.o(i.____hardfp_atan$lsc) refers to daddsub_clz.o(x$fpl$dadd) for __aeabi_dadd
    atan_x.o(i.____hardfp_atan$lsc) refers to dmul.o(x$fpl$dmul) for __aeabi_dmul
    atan_x.o(i.____hardfp_atan$lsc) refers to daddsub_clz.o(x$fpl$dsub) for __aeabi_dsub
    atan_x.o(i.____hardfp_atan$lsc) refers to ddiv.o(x$fpl$ddiv) for __aeabi_ddiv
    atan_x.o(i.____hardfp_atan$lsc) refers to poly.o(i.__kernel_poly) for __kernel_poly
    atan_x.o(i.____hardfp_atan$lsc) refers to daddsub_clz.o(x$fpl$drsb) for __aeabi_drsub
    atan_x.o(i.____hardfp_atan$lsc) refers to basic.o(x$fpl$basic) for __aeabi_dneg
    atan_x.o(i.____hardfp_atan$lsc) refers to atan_x.o(.constdata) for .constdata
    atan_x.o(i.____softfp_atan$lsc) refers (Special) to usenofp.o(x$fpl$usenofp) for __I$use$fp
    atan_x.o(i.____softfp_atan$lsc) refers to atan_x.o(i.____hardfp_atan$lsc) for ____hardfp_atan$lsc
    atan_x.o(i.__atan$lsc) refers (Special) to usenofp.o(x$fpl$usenofp) for __I$use$fp
    atan_x.o(i.__atan$lsc) refers to atan_x.o(i.____hardfp_atan$lsc) for ____hardfp_atan$lsc
    atan_x.o(.constdata) refers (Special) to usenofp.o(x$fpl$usenofp) for __I$use$fp
    cos_i.o(i.__kernel_cos) refers (Special) to usenofp.o(x$fpl$usenofp) for __I$use$fp
    cos_i.o(i.__kernel_cos) refers to dfix.o(x$fpl$dfix) for __aeabi_d2iz
    cos_i.o(i.__kernel_cos) refers to dmul.o(x$fpl$dmul) for __aeabi_dmul
    cos_i.o(i.__kernel_cos) refers to poly.o(i.__kernel_poly) for __kernel_poly
    cos_i.o(i.__kernel_cos) refers to daddsub_clz.o(x$fpl$dsub) for __aeabi_dsub
    cos_i.o(i.__kernel_cos) refers to daddsub_clz.o(x$fpl$drsb) for __aeabi_drsub
    cos_i.o(i.__kernel_cos) refers to cos_i.o(.constdata) for .constdata
    cos_i.o(.constdata) refers (Special) to usenofp.o(x$fpl$usenofp) for __I$use$fp
    dunder.o(i.__mathlib_dbl_divzero) refers to ddiv.o(x$fpl$ddiv) for __aeabi_ddiv
    dunder.o(i.__mathlib_dbl_infnan) refers to daddsub_clz.o(x$fpl$dadd) for __aeabi_dadd
    dunder.o(i.__mathlib_dbl_infnan2) refers to daddsub_clz.o(x$fpl$dadd) for __aeabi_dadd
    dunder.o(i.__mathlib_dbl_invalid) refers to ddiv.o(x$fpl$ddiv) for __aeabi_ddiv
    dunder.o(i.__mathlib_dbl_overflow) refers to dmul.o(x$fpl$dmul) for __aeabi_dmul
    dunder.o(i.__mathlib_dbl_posinfnan) refers to dmul.o(x$fpl$dmul) for __aeabi_dmul
    dunder.o(i.__mathlib_dbl_underflow) refers to dmul.o(x$fpl$dmul) for __aeabi_dmul
    fabs.o(i.__hardfp_fabs) refers (Special) to usenofp.o(x$fpl$usenofp) for __I$use$fp
    fabs.o(i.__softfp_fabs) refers (Special) to usenofp.o(x$fpl$usenofp) for __I$use$fp
    fabs.o(i.fabs) refers (Special) to usenofp.o(x$fpl$usenofp) for __I$use$fp
    fpclassify.o(i.__ARM_fpclassify) refers (Special) to usenofp.o(x$fpl$usenofp) for __I$use$fp
    fpclassifyf.o(i.__ARM_fpclassifyf) refers (Special) to usenofp.o(x$fpl$usenofp) for __I$use$fp
    poly.o(i.__kernel_poly) refers (Special) to usenofp.o(x$fpl$usenofp) for __I$use$fp
    poly.o(i.__kernel_poly) refers to dmul.o(x$fpl$dmul) for __aeabi_dmul
    poly.o(i.__kernel_poly) refers to daddsub_clz.o(x$fpl$dadd) for __aeabi_dadd
    qnan.o(.constdata) refers (Special) to usenofp.o(x$fpl$usenofp) for __I$use$fp
    rred.o(i.__ieee754_rem_pio2) refers (Special) to usenofp.o(x$fpl$usenofp) for __I$use$fp
    rred.o(i.__ieee754_rem_pio2) refers to daddsub_clz.o(x$fpl$dsub) for __aeabi_dsub
    rred.o(i.__ieee754_rem_pio2) refers to daddsub_clz.o(x$fpl$dadd) for __aeabi_dadd
    rred.o(i.__ieee754_rem_pio2) refers to fabs.o(i.fabs) for fabs
    rred.o(i.__ieee754_rem_pio2) refers to dmul.o(x$fpl$dmul) for __aeabi_dmul
    rred.o(i.__ieee754_rem_pio2) refers to dfix.o(x$fpl$dfix) for __aeabi_d2iz
    rred.o(i.__ieee754_rem_pio2) refers to dflt_clz.o(x$fpl$dflt) for __aeabi_i2d
    rred.o(i.__ieee754_rem_pio2) refers to daddsub_clz.o(x$fpl$drsb) for __aeabi_drsub
    rred.o(i.__ieee754_rem_pio2) refers to basic.o(x$fpl$basic) for __aeabi_dneg
    rred.o(i.__ieee754_rem_pio2) refers to dflt_clz.o(x$fpl$dfltu) for __aeabi_ui2d
    rred.o(i.__ieee754_rem_pio2) refers to rred.o(.constdata) for .constdata
    rred.o(i.__use_accurate_range_reduction) refers (Special) to usenofp.o(x$fpl$usenofp) for __I$use$fp
    rred.o(.constdata) refers (Special) to usenofp.o(x$fpl$usenofp) for __I$use$fp
    rredf.o(i.__mathlib_rredf2) refers (Special) to usenofp.o(x$fpl$usenofp) for __I$use$fp
    rredf.o(i.__mathlib_rredf2) refers to rredf.o(.constdata) for .constdata
    rredf.o(.constdata) refers (Special) to usenofp.o(x$fpl$usenofp) for __I$use$fp
    sin_i.o(i.__kernel_sin) refers (Special) to usenofp.o(x$fpl$usenofp) for __I$use$fp
    sin_i.o(i.__kernel_sin) refers to fpclassify.o(i.__ARM_fpclassify) for __ARM_fpclassify
    sin_i.o(i.__kernel_sin) refers to dunder.o(i.__mathlib_dbl_underflow) for __mathlib_dbl_underflow
    sin_i.o(i.__kernel_sin) refers to dmul.o(x$fpl$dmul) for __aeabi_dmul
    sin_i.o(i.__kernel_sin) refers to poly.o(i.__kernel_poly) for __kernel_poly
    sin_i.o(i.__kernel_sin) refers to daddsub_clz.o(x$fpl$dsub) for __aeabi_dsub
    sin_i.o(i.__kernel_sin) refers to daddsub_clz.o(x$fpl$drsb) for __aeabi_drsub
    sin_i.o(i.__kernel_sin) refers to daddsub_clz.o(x$fpl$dadd) for __aeabi_dadd
    sin_i.o(i.__kernel_sin) refers to sin_i.o(.constdata) for .constdata
    sin_i.o(.constdata) refers (Special) to usenofp.o(x$fpl$usenofp) for __I$use$fp
    sin_i_x.o(i.____kernel_sin$lsc) refers (Special) to usenofp.o(x$fpl$usenofp) for __I$use$fp
    sin_i_x.o(i.____kernel_sin$lsc) refers to dmul.o(x$fpl$dmul) for __aeabi_dmul
    sin_i_x.o(i.____kernel_sin$lsc) refers to poly.o(i.__kernel_poly) for __kernel_poly
    sin_i_x.o(i.____kernel_sin$lsc) refers to daddsub_clz.o(x$fpl$dsub) for __aeabi_dsub
    sin_i_x.o(i.____kernel_sin$lsc) refers to daddsub_clz.o(x$fpl$drsb) for __aeabi_drsub
    sin_i_x.o(i.____kernel_sin$lsc) refers to daddsub_clz.o(x$fpl$dadd) for __aeabi_dadd
    sin_i_x.o(i.____kernel_sin$lsc) refers to sin_i_x.o(.constdata) for .constdata
    sin_i_x.o(.constdata) refers (Special) to usenofp.o(x$fpl$usenofp) for __I$use$fp
    sqrt.o(i.__hardfp_sqrt) refers (Special) to usenofp.o(x$fpl$usenofp) for __I$use$fp
    sqrt.o(i.__hardfp_sqrt) refers to dsqrt_umaal.o(x$fpl$dsqrt) for _dsqrt
    sqrt.o(i.__hardfp_sqrt) refers to _rserrno.o(.text) for __set_errno
    sqrt.o(i.__softfp_sqrt) refers (Special) to usenofp.o(x$fpl$usenofp) for __I$use$fp
    sqrt.o(i.__softfp_sqrt) refers to dsqrt_umaal.o(x$fpl$dsqrt) for _dsqrt
    sqrt.o(i.__softfp_sqrt) refers to _rserrno.o(.text) for __set_errno
    sqrt.o(i.sqrt) refers (Special) to usenofp.o(x$fpl$usenofp) for __I$use$fp
    sqrt.o(i.sqrt) refers to dsqrt_umaal.o(x$fpl$dsqrt) for _dsqrt
    sqrt.o(i.sqrt) refers to _rserrno.o(.text) for __set_errno
    sqrt_x.o(i.____hardfp_sqrt$lsc) refers (Special) to usenofp.o(x$fpl$usenofp) for __I$use$fp
    sqrt_x.o(i.____hardfp_sqrt$lsc) refers to dleqf.o(x$fpl$dleqf) for __aeabi_cdcmple
    sqrt_x.o(i.____hardfp_sqrt$lsc) refers to _rserrno.o(.text) for __set_errno
    sqrt_x.o(i.____hardfp_sqrt$lsc) refers to dsqrt_umaal.o(x$fpl$dsqrt) for _dsqrt
    sqrt_x.o(i.____softfp_sqrt$lsc) refers (Special) to usenofp.o(x$fpl$usenofp) for __I$use$fp
    sqrt_x.o(i.____softfp_sqrt$lsc) refers to dleqf.o(x$fpl$dleqf) for __aeabi_cdcmple
    sqrt_x.o(i.____softfp_sqrt$lsc) refers to _rserrno.o(.text) for __set_errno
    sqrt_x.o(i.____softfp_sqrt$lsc) refers to dsqrt_umaal.o(x$fpl$dsqrt) for _dsqrt
    sqrt_x.o(i.__sqrt$lsc) refers (Special) to usenofp.o(x$fpl$usenofp) for __I$use$fp
    sqrt_x.o(i.__sqrt$lsc) refers to dleqf.o(x$fpl$dleqf) for __aeabi_cdcmple
    sqrt_x.o(i.__sqrt$lsc) refers to _rserrno.o(.text) for __set_errno
    sqrt_x.o(i.__sqrt$lsc) refers to dsqrt_umaal.o(x$fpl$dsqrt) for _dsqrt
    __rtentry2.o(.ARM.Collect$$rtentry$$00000008) refers to boardinit2.o(.text) for _platform_post_stackheap_init
    __rtentry2.o(.ARM.Collect$$rtentry$$0000000A) refers to libinit.o(.ARM.Collect$$libinit$$00000000) for __rt_lib_init
    __rtentry2.o(.ARM.Collect$$rtentry$$0000000B) refers to boardinit3.o(.text) for _platform_post_lib_init
    __rtentry2.o(.ARM.Collect$$rtentry$$0000000D) refers to main.o(i.main) for main
    __rtentry2.o(.ARM.Collect$$rtentry$$0000000D) refers to exit.o(.text) for exit
    __rtentry2.o(.ARM.exidx) refers to __rtentry2.o(.ARM.Collect$$rtentry$$00000001) for .ARM.Collect$$rtentry$$00000001
    __rtentry2.o(.ARM.exidx) refers to __rtentry2.o(.ARM.Collect$$rtentry$$00000008) for .ARM.Collect$$rtentry$$00000008
    __rtentry2.o(.ARM.exidx) refers to __rtentry2.o(.ARM.Collect$$rtentry$$0000000A) for .ARM.Collect$$rtentry$$0000000A
    __rtentry2.o(.ARM.exidx) refers to __rtentry2.o(.ARM.Collect$$rtentry$$0000000B) for .ARM.Collect$$rtentry$$0000000B
    __rtentry2.o(.ARM.exidx) refers to __rtentry2.o(.ARM.Collect$$rtentry$$0000000D) for .ARM.Collect$$rtentry$$0000000D
    __rtentry4.o(.ARM.Collect$$rtentry$$00000004) refers to sys_stackheap_outer.o(.text) for __user_setup_stackheap
    __rtentry4.o(.ARM.exidx) refers to __rtentry4.o(.ARM.Collect$$rtentry$$00000004) for .ARM.Collect$$rtentry$$00000004
    rt_errno_addr.o(.text) refers to rt_errno_addr.o(.bss) for __aeabi_errno_addr_data
    rt_errno_addr_intlibspace.o(.text) refers to libspace.o(.bss) for __libspace_start
    dcheck1.o(x$fpl$dcheck1) refers (Special) to usenofp.o(x$fpl$usenofp) for __I$use$fp
    dcheck1.o(x$fpl$dcheck1) refers to retnan.o(x$fpl$retnan) for __fpl_return_NaN
    dfix.o(x$fpl$dfix) refers (Special) to usenofp.o(x$fpl$usenofp) for __I$use$fp
    dfix.o(x$fpl$dfix) refers to dnaninf.o(x$fpl$dnaninf) for __fpl_dnaninf
    dfix.o(x$fpl$dfixr) refers (Special) to usenofp.o(x$fpl$usenofp) for __I$use$fp
    dfix.o(x$fpl$dfixr) refers to dnaninf.o(x$fpl$dnaninf) for __fpl_dnaninf
    dsqrt_umaal.o(x$fpl$dsqrt) refers (Special) to usenofp.o(x$fpl$usenofp) for __I$use$fp
    dsqrt_umaal.o(x$fpl$dsqrt) refers to dnaninf.o(x$fpl$dnaninf) for __fpl_dnaninf
    libspace.o(.text) refers to libspace.o(.bss) for __libspace_start
    sys_stackheap_outer.o(.text) refers to libspace.o(.text) for __user_perproc_libspace
    sys_stackheap_outer.o(.text) refers to startup_stm32f407xx.o(.text) for __user_initial_stackheap
    exit.o(.text) refers to rtexit.o(.ARM.Collect$$rtexit$$00000000) for __rt_exit
    libinit.o(.ARM.Collect$$libinit$$00000000) refers (Special) to libinit2.o(.ARM.Collect$$libinit$$0000002E) for __rt_lib_init_alloca_1
    libinit.o(.ARM.Collect$$libinit$$00000000) refers (Special) to libinit2.o(.ARM.Collect$$libinit$$0000002C) for __rt_lib_init_argv_1
    libinit.o(.ARM.Collect$$libinit$$00000000) refers (Special) to libinit2.o(.ARM.Collect$$libinit$$0000001B) for __rt_lib_init_atexit_1
    libinit.o(.ARM.Collect$$libinit$$00000000) refers (Special) to libinit2.o(.ARM.Collect$$libinit$$00000021) for __rt_lib_init_clock_1
    libinit.o(.ARM.Collect$$libinit$$00000000) refers (Special) to libinit2.o(.ARM.Collect$$libinit$$00000032) for __rt_lib_init_cpp_1
    libinit.o(.ARM.Collect$$libinit$$00000000) refers (Special) to libinit2.o(.ARM.Collect$$libinit$$00000030) for __rt_lib_init_exceptions_1
    libinit.o(.ARM.Collect$$libinit$$00000000) refers (Special) to libinit2.o(.ARM.Collect$$libinit$$00000001) for __rt_lib_init_fp_1
    libinit.o(.ARM.Collect$$libinit$$00000000) refers (Special) to libinit2.o(.ARM.Collect$$libinit$$0000001F) for __rt_lib_init_fp_trap_1
    libinit.o(.ARM.Collect$$libinit$$00000000) refers (Special) to libinit2.o(.ARM.Collect$$libinit$$00000023) for __rt_lib_init_getenv_1
    libinit.o(.ARM.Collect$$libinit$$00000000) refers (Special) to libinit2.o(.ARM.Collect$$libinit$$0000000A) for __rt_lib_init_heap_1
    libinit.o(.ARM.Collect$$libinit$$00000000) refers (Special) to libinit2.o(.ARM.Collect$$libinit$$00000011) for __rt_lib_init_lc_collate_1
    libinit.o(.ARM.Collect$$libinit$$00000000) refers (Special) to libinit2.o(.ARM.Collect$$libinit$$00000013) for __rt_lib_init_lc_ctype_1
    libinit.o(.ARM.Collect$$libinit$$00000000) refers (Special) to libinit2.o(.ARM.Collect$$libinit$$00000015) for __rt_lib_init_lc_monetary_1
    libinit.o(.ARM.Collect$$libinit$$00000000) refers (Special) to libinit2.o(.ARM.Collect$$libinit$$00000017) for __rt_lib_init_lc_numeric_1
    libinit.o(.ARM.Collect$$libinit$$00000000) refers (Special) to libinit2.o(.ARM.Collect$$libinit$$00000019) for __rt_lib_init_lc_time_1
    libinit.o(.ARM.Collect$$libinit$$00000000) refers (Special) to libinit2.o(.ARM.Collect$$libinit$$00000004) for __rt_lib_init_preinit_1
    libinit.o(.ARM.Collect$$libinit$$00000000) refers (Special) to libinit2.o(.ARM.Collect$$libinit$$0000000E) for __rt_lib_init_rand_1
    libinit.o(.ARM.Collect$$libinit$$00000000) refers (Special) to libinit2.o(.ARM.Collect$$libinit$$00000033) for __rt_lib_init_return
    libinit.o(.ARM.Collect$$libinit$$00000000) refers (Special) to libinit2.o(.ARM.Collect$$libinit$$0000001D) for __rt_lib_init_signal_1
    libinit.o(.ARM.Collect$$libinit$$00000000) refers (Special) to libinit2.o(.ARM.Collect$$libinit$$00000025) for __rt_lib_init_stdio_1
    libinit.o(.ARM.Collect$$libinit$$00000000) refers (Special) to libinit2.o(.ARM.Collect$$libinit$$0000000C) for __rt_lib_init_user_alloc_1
    retnan.o(x$fpl$retnan) refers (Special) to usenofp.o(x$fpl$usenofp) for __I$use$fp
    retnan.o(x$fpl$retnan) refers to trapv.o(x$fpl$trapveneer) for __fpl_cmpreturn
    rtexit.o(.ARM.Collect$$rtexit$$00000000) refers (Special) to rtexit2.o(.ARM.Collect$$rtexit$$00000004) for __rt_exit_exit
    rtexit.o(.ARM.Collect$$rtexit$$00000000) refers (Special) to rtexit2.o(.ARM.Collect$$rtexit$$00000003) for __rt_exit_ls
    rtexit.o(.ARM.Collect$$rtexit$$00000000) refers (Special) to rtexit2.o(.ARM.Collect$$rtexit$$00000002) for __rt_exit_prels_1
    rtexit.o(.ARM.exidx) refers (Special) to rtexit2.o(.ARM.Collect$$rtexit$$00000004) for __rt_exit_exit
    rtexit.o(.ARM.exidx) refers (Special) to rtexit2.o(.ARM.Collect$$rtexit$$00000003) for __rt_exit_ls
    rtexit.o(.ARM.exidx) refers (Special) to rtexit2.o(.ARM.Collect$$rtexit$$00000002) for __rt_exit_prels_1
    rtexit.o(.ARM.exidx) refers to rtexit.o(.ARM.Collect$$rtexit$$00000000) for .ARM.Collect$$rtexit$$00000000
    libinit2.o(.ARM.Collect$$libinit$$00000001) refers to fpinit.o(x$fpl$fpinit) for _fp_init
    libinit2.o(.ARM.Collect$$libinit$$00000010) refers to libinit2.o(.ARM.Collect$$libinit$$0000000F) for .ARM.Collect$$libinit$$0000000F
    libinit2.o(.ARM.Collect$$libinit$$00000012) refers to libinit2.o(.ARM.Collect$$libinit$$0000000F) for .ARM.Collect$$libinit$$0000000F
    libinit2.o(.ARM.Collect$$libinit$$00000014) refers to libinit2.o(.ARM.Collect$$libinit$$0000000F) for .ARM.Collect$$libinit$$0000000F
    libinit2.o(.ARM.Collect$$libinit$$00000016) refers to libinit2.o(.ARM.Collect$$libinit$$0000000F) for .ARM.Collect$$libinit$$0000000F
    libinit2.o(.ARM.Collect$$libinit$$00000018) refers to libinit2.o(.ARM.Collect$$libinit$$0000000F) for .ARM.Collect$$libinit$$0000000F
    libinit2.o(.ARM.Collect$$libinit$$00000026) refers to argv_veneer.o(.emb_text) for __ARM_argv_veneer
    libinit2.o(.ARM.Collect$$libinit$$00000027) refers to argv_veneer.o(.emb_text) for __ARM_argv_veneer
    trapv.o(x$fpl$trapveneer) refers (Special) to usenofp.o(x$fpl$usenofp) for __I$use$fp
    rtexit2.o(.ARM.Collect$$rtexit$$00000003) refers to libshutdown.o(.ARM.Collect$$libshutdown$$00000000) for __rt_lib_shutdown
    rtexit2.o(.ARM.Collect$$rtexit$$00000004) refers to retarget.o(i._sys_exit) for _sys_exit
    rtexit2.o(.ARM.exidx) refers to rtexit2.o(.ARM.Collect$$rtexit$$00000001) for .ARM.Collect$$rtexit$$00000001
    rtexit2.o(.ARM.exidx) refers to rtexit2.o(.ARM.Collect$$rtexit$$00000003) for .ARM.Collect$$rtexit$$00000003
    rtexit2.o(.ARM.exidx) refers to rtexit2.o(.ARM.Collect$$rtexit$$00000004) for .ARM.Collect$$rtexit$$00000004
    argv_veneer.o(.emb_text) refers to no_argv.o(.text) for __ARM_get_argv
    _get_argv_nomalloc.o(.text) refers (Special) to hrguard.o(.text) for __heap_region$guard
    _get_argv_nomalloc.o(.text) refers to defsig_rtmem_outer.o(.text) for __rt_SIGRTMEM
    _get_argv_nomalloc.o(.text) refers to retarget.o(i._sys_command_string) for _sys_command_string
    libshutdown.o(.ARM.Collect$$libshutdown$$00000000) refers (Special) to libshutdown2.o(.ARM.Collect$$libshutdown$$00000004) for __rt_lib_shutdown_cpp_1
    libshutdown.o(.ARM.Collect$$libshutdown$$00000000) refers (Special) to libshutdown2.o(.ARM.Collect$$libshutdown$$00000002) for __rt_lib_shutdown_fini_1
    libshutdown.o(.ARM.Collect$$libshutdown$$00000000) refers (Special) to libshutdown2.o(.ARM.Collect$$libshutdown$$00000009) for __rt_lib_shutdown_fp_trap_1
    libshutdown.o(.ARM.Collect$$libshutdown$$00000000) refers (Special) to libshutdown2.o(.ARM.Collect$$libshutdown$$00000011) for __rt_lib_shutdown_heap_1
    libshutdown.o(.ARM.Collect$$libshutdown$$00000000) refers (Special) to libshutdown2.o(.ARM.Collect$$libshutdown$$00000012) for __rt_lib_shutdown_return
    libshutdown.o(.ARM.Collect$$libshutdown$$00000000) refers (Special) to libshutdown2.o(.ARM.Collect$$libshutdown$$0000000C) for __rt_lib_shutdown_signal_1
    libshutdown.o(.ARM.Collect$$libshutdown$$00000000) refers (Special) to libshutdown2.o(.ARM.Collect$$libshutdown$$00000006) for __rt_lib_shutdown_stdio_1
    libshutdown.o(.ARM.Collect$$libshutdown$$00000000) refers (Special) to libshutdown2.o(.ARM.Collect$$libshutdown$$0000000E) for __rt_lib_shutdown_user_alloc_1
    defsig_rtmem_outer.o(.text) refers to defsig_rtmem_inner.o(.text) for __rt_SIGRTMEM_inner
    defsig_rtmem_outer.o(.text) refers to defsig_exit.o(.text) for __sig_exit
    defsig_rtmem_formal.o(.text) refers to rt_raise.o(.text) for __rt_raise
    rt_raise.o(.text) refers to __raise.o(.text) for __raise
    rt_raise.o(.text) refers to retarget.o(i._sys_exit) for _sys_exit
    defsig_exit.o(.text) refers to retarget.o(i._sys_exit) for _sys_exit
    defsig_rtmem_inner.o(.text) refers to defsig_general.o(.text) for __default_signal_display
    __raise.o(.text) refers to defsig.o(CL$$defsig) for __default_signal_handler
    defsig_general.o(.text) refers to retarget.o(i._ttywrch) for _ttywrch
    defsig.o(CL$$defsig) refers to defsig_rtmem_inner.o(.text) for __rt_SIGRTMEM_inner
    defsig_abrt_inner.o(.text) refers to defsig_general.o(.text) for __default_signal_display
    defsig_fpe_inner.o(.text) refers to defsig_general.o(.text) for __default_signal_display
    defsig_rtred_inner.o(.text) refers to defsig_general.o(.text) for __default_signal_display
    defsig_stak_inner.o(.text) refers to defsig_general.o(.text) for __default_signal_display
    defsig_pvfn_inner.o(.text) refers to defsig_general.o(.text) for __default_signal_display
    defsig_cppl_inner.o(.text) refers to defsig_general.o(.text) for __default_signal_display
    defsig_segv_inner.o(.text) refers to defsig_general.o(.text) for __default_signal_display
    defsig_other.o(.text) refers to defsig_general.o(.text) for __default_signal_display
    mpu9250_spi.o(.ARM.exidx) refers to mpu9250_spi.o(i._ZN11mpu9250_spi7convertEth) for i._ZN11mpu9250_spi7convertEth
    omniplatform.o(i._ZSt3sinf) refers to sinf.o(i.__hardfp_sinf) for __hardfp_sinf
    omniplatform.o(.ARM.exidx) refers to omniplatform.o(i._ZSt3sinf) for i._ZSt3sinf
    openmv.o(i._ZSt3cosf) refers to cosf.o(i.__hardfp_cosf) for __hardfp_cosf
    openmv.o(.ARM.exidx) refers to openmv.o(i._ZSt3cosf) for i._ZSt3cosf


==============================================================================

Removing Unused input sections from the image.

    Removing time_service.o(.rev16_text), (4 bytes).
    Removing time_service.o(.revsh_text), (4 bytes).
    Removing time_service.o(.rrx_text), (6 bytes).
    Removing time_service.o(i._ZN12time_service8stopTimeEv), (18 bytes).
    Removing time_service.o(.ARM.exidx), (8 bytes).
    Removing time_service.o(.ARM.exidx), (8 bytes).
    Removing time_service.o(.ARM.exidx), (8 bytes).
    Removing time_service.o(.ARM.exidx), (8 bytes).
    Removing time_service.o(.ARM.exidx), (8 bytes).
    Removing time_service.o(.ARM.exidx), (8 bytes).
    Removing pin.o(.rev16_text), (4 bytes).
    Removing pin.o(.revsh_text), (4 bytes).
    Removing pin.o(.rrx_text), (6 bytes).
    Removing pin.o(i._ZN3Pin3setEb), (32 bytes).
    Removing pin.o(.ARM.exidx), (8 bytes).
    Removing pin.o(.ARM.exidx), (8 bytes).
    Removing pin.o(.ARM.exidx), (8 bytes).
    Removing pin.o(.ARM.exidx), (8 bytes).
    Removing pin.o(.ARM.exidx), (8 bytes).
    Removing pin.o(.ARM.exidx), (8 bytes).
    Removing pin.o(.ARM.exidx), (8 bytes).
    Removing pin.o(.ARM.exidx), (8 bytes).
    Removing pin.o(.ARM.exidx), (8 bytes).
    Removing pin.o(.ARM.exidx), (8 bytes).
    Removing pin.o(.ARM.exidx), (8 bytes).
    Removing pin.o(.ARM.exidx), (8 bytes).
    Removing pin.o(.ARM.exidx), (8 bytes).
    Removing pin.o(.ARM.exidx), (8 bytes).
    Removing adc.o(.rev16_text), (4 bytes).
    Removing adc.o(.revsh_text), (4 bytes).
    Removing adc.o(.rrx_text), (6 bytes).
    Removing adc.o(i._ZN3Adc10adcDmaInitEv), (36 bytes).
    Removing adc.o(i._ZN3Adc10setChannelEv), (36 bytes).
    Removing adc.o(i._ZN3Adc12getRCCPeriphEP11ADC_TypeDef), (40 bytes).
    Removing adc.o(i._ZN3Adc6getADCEv), (6 bytes).
    Removing adc.o(i._ZN3Adc7adcInitEh), (40 bytes).
    Removing adc.o(i._ZN3Adc8sendMeChEh), (22 bytes).
    Removing adc.o(i._ZN3Adc8startADCEv), (60 bytes).
    Removing adc.o(i._ZN3Adc9getCyclesEh), (38 bytes).
    Removing adc.o(i._ZN3AdcC1EP11ADC_TypeDefhhh), (44 bytes).
    Removing adc.o(.ARM.exidx), (8 bytes).
    Removing adc.o(.ARM.exidx), (8 bytes).
    Removing adc.o(.ARM.exidx), (8 bytes).
    Removing adc.o(.ARM.exidx), (8 bytes).
    Removing adc.o(.ARM.exidx), (8 bytes).
    Removing adc.o(.ARM.exidx), (8 bytes).
    Removing adc.o(.ARM.exidx), (8 bytes).
    Removing adc.o(.ARM.exidx), (8 bytes).
    Removing adc.o(.ARM.exidx), (8 bytes).
    Removing dma.o(.rev16_text), (4 bytes).
    Removing dma.o(.revsh_text), (4 bytes).
    Removing dma.o(.rrx_text), (6 bytes).
    Removing dma.o(i._ZN3Dma10dataReturnEh), (10 bytes).
    Removing dma.o(i._ZN3Dma12adcInitInDmaEh), (42 bytes).
    Removing dma.o(i._ZN3Dma7dmaInitEP18DMA_Stream_TypeDefjj), (108 bytes).
    Removing dma.o(i._ZN3DmaC1EjR3Adc), (26 bytes).
    Removing dma.o(.ARM.exidx), (8 bytes).
    Removing dma.o(.ARM.exidx), (8 bytes).
    Removing dma.o(.ARM.exidx), (8 bytes).
    Removing dma.o(.ARM.exidx), (8 bytes).
    Removing i2c.o(.rev16_text), (4 bytes).
    Removing i2c.o(.revsh_text), (4 bytes).
    Removing i2c.o(.rrx_text), (6 bytes).
    Removing i2c.o(i._ZN3I2C7sclReadEv), (34 bytes).
    Removing i2c.o(i._ZN3I2C7sendAchEv), (54 bytes).
    Removing i2c.o(i._ZN3I2C8sendNachEv), (54 bytes).
    Removing i2c.o(.ARM.exidx), (8 bytes).
    Removing i2c.o(.ARM.exidx), (8 bytes).
    Removing i2c.o(.ARM.exidx), (8 bytes).
    Removing i2c.o(.ARM.exidx), (8 bytes).
    Removing i2c.o(.ARM.exidx), (8 bytes).
    Removing i2c.o(.ARM.exidx), (8 bytes).
    Removing i2c.o(.ARM.exidx), (8 bytes).
    Removing i2c.o(.ARM.exidx), (8 bytes).
    Removing i2c.o(.ARM.exidx), (8 bytes).
    Removing i2c.o(.ARM.exidx), (8 bytes).
    Removing i2c.o(.ARM.exidx), (8 bytes).
    Removing i2c.o(.ARM.exidx), (8 bytes).
    Removing i2c.o(.ARM.exidx), (8 bytes).
    Removing i2c.o(.ARM.exidx), (8 bytes).
    Removing i2c.o(.ARM.exidx), (8 bytes).
    Removing i2c.o(.ARM.exidx), (8 bytes).
    Removing motor.o(.rev16_text), (4 bytes).
    Removing motor.o(.revsh_text), (4 bytes).
    Removing motor.o(.rrx_text), (6 bytes).
    Removing motor.o(i._ZN5Motor7disableEv), (24 bytes).
    Removing motor.o(.ARM.exidx), (8 bytes).
    Removing motor.o(.ARM.exidx), (8 bytes).
    Removing motor.o(.ARM.exidx), (8 bytes).
    Removing motor.o(.ARM.exidx), (8 bytes).
    Removing imu_spi.o(.rev16_text), (4 bytes).
    Removing imu_spi.o(.revsh_text), (4 bytes).
    Removing imu_spi.o(.rrx_text), (6 bytes).
    Removing imu_spi.o(i._ZN3IMU12setZeroAngleEv), (20 bytes).
    Removing imu_spi.o(i._ZN3IMU16get_accelerationEv), (6 bytes).
    Removing imu_spi.o(i._ZN3IMU20updateAnglesFromFIFOEv), (14 bytes).
    Removing imu_spi.o(i._ZN3IMU4initEv), (60 bytes).
    Removing imu_spi.o(i._ZN3IMU5getXaEv), (14 bytes).
    Removing imu_spi.o(i._ZN3IMU5getXgEv), (14 bytes).
    Removing imu_spi.o(i._ZN3IMU5getYaEv), (14 bytes).
    Removing imu_spi.o(i._ZN3IMU5getYgEv), (14 bytes).
    Removing imu_spi.o(i._ZN3IMU5getZaEv), (14 bytes).
    Removing imu_spi.o(i._ZN3IMU5getZgEv), (14 bytes).
    Removing imu_spi.o(i._ZN3IMU6updateEv), (200 bytes).
    Removing imu_spi.o(i._ZN3IMU7acc_selEv), (14 bytes).
    Removing imu_spi.o(i._ZN3IMU8getAngleEv), (172 bytes).
    Removing imu_spi.o(i._ZN3IMU8gyro_selEv), (14 bytes).
    Removing imu_spi.o(i._ZN3IMU9calibrateEj), (18 bytes).
    Removing imu_spi.o(.ARM.exidx), (8 bytes).
    Removing imu_spi.o(.ARM.exidx), (8 bytes).
    Removing imu_spi.o(.ARM.exidx), (8 bytes).
    Removing imu_spi.o(.ARM.exidx), (8 bytes).
    Removing imu_spi.o(.ARM.exidx), (8 bytes).
    Removing imu_spi.o(.ARM.exidx), (8 bytes).
    Removing imu_spi.o(.ARM.exidx), (8 bytes).
    Removing imu_spi.o(.ARM.exidx), (8 bytes).
    Removing imu_spi.o(.ARM.exidx), (8 bytes).
    Removing imu_spi.o(.ARM.exidx), (8 bytes).
    Removing imu_spi.o(.ARM.exidx), (8 bytes).
    Removing imu_spi.o(.ARM.exidx), (8 bytes).
    Removing imu_spi.o(.ARM.exidx), (8 bytes).
    Removing imu_spi.o(.ARM.exidx), (8 bytes).
    Removing imu_spi.o(.ARM.exidx), (8 bytes).
    Removing spi_dot.o(.rev16_text), (4 bytes).
    Removing spi_dot.o(.revsh_text), (4 bytes).
    Removing spi_dot.o(.rrx_text), (6 bytes).
    Removing spi_dot.o(i._Z8initSPI2bht), (284 bytes).
    Removing spi_dot.o(i._Z8writeSPIt), (40 bytes).
    Removing spi_dot.o(.ARM.exidx), (8 bytes).
    Removing spi_dot.o(.ARM.exidx), (8 bytes).
    Removing spi_dot.o(.data), (7 bytes).
    Removing spi_1.o(.rev16_text), (4 bytes).
    Removing spi_1.o(.revsh_text), (4 bytes).
    Removing spi_1.o(.rrx_text), (6 bytes).
    Removing spi_1.o(i._ZN5SPI_14initEiiii), (404 bytes).
    Removing spi_1.o(i._ZN5SPI_14readEv), (76 bytes).
    Removing spi_1.o(i._ZN5SPI_14sendEt), (56 bytes).
    Removing spi_1.o(i._ZN5SPI_19availableEv), (12 bytes).
    Removing spi_1.o(.ARM.exidx), (8 bytes).
    Removing spi_1.o(.ARM.exidx), (8 bytes).
    Removing spi_1.o(.ARM.exidx), (8 bytes).
    Removing spi_1.o(.ARM.exidx), (8 bytes).
    Removing spi_1.o(.ARM.exidx), (8 bytes).
    Removing mpu9250_spi.o(.rev16_text), (4 bytes).
    Removing mpu9250_spi.o(.revsh_text), (4 bytes).
    Removing mpu9250_spi.o(.rrx_text), (6 bytes).
    Removing mpu9250_spi.o(i._ZN11mpu9250_spi12readFIFOsizeEv), (46 bytes).
    Removing mpu9250_spi.o(i._ZN11mpu9250_spi12setAccOffsetEiii), (88 bytes).
    Removing mpu9250_spi.o(i._ZN11mpu9250_spi12updateAnglesEdb), (1052 bytes).
    Removing mpu9250_spi.o(i._ZN11mpu9250_spi13setGyroOffsetEiii), (82 bytes).
    Removing mpu9250_spi.o(i._ZN11mpu9250_spi15read_acc_fs_selEv), (22 bytes).
    Removing mpu9250_spi.o(i._ZN11mpu9250_spi16read_gyro_fs_selEv), (22 bytes).
    Removing mpu9250_spi.o(i._ZN11mpu9250_spi20updateAnglesFromFIFOEv), (48 bytes).
    Removing mpu9250_spi.o(i._ZN11mpu9250_spi21MadgwickAHRSupdateIMUEd), (4434 bytes).
    Removing mpu9250_spi.o(i._ZN11mpu9250_spi5getXaEv), (6 bytes).
    Removing mpu9250_spi.o(i._ZN11mpu9250_spi5getXgEv), (6 bytes).
    Removing mpu9250_spi.o(i._ZN11mpu9250_spi5getYaEv), (6 bytes).
    Removing mpu9250_spi.o(i._ZN11mpu9250_spi5getYgEv), (6 bytes).
    Removing mpu9250_spi.o(i._ZN11mpu9250_spi5getZaEv), (6 bytes).
    Removing mpu9250_spi.o(i._ZN11mpu9250_spi5getZgEv), (6 bytes).
    Removing mpu9250_spi.o(i._ZN11mpu9250_spi7correctEv), (102 bytes).
    Removing mpu9250_spi.o(i._ZN11mpu9250_spi7initIMUEv), (512 bytes).
    Removing mpu9250_spi.o(i._ZN11mpu9250_spi7invSqrtEf), (64 bytes).
    Removing mpu9250_spi.o(i._ZN11mpu9250_spi7readAccEv), (258 bytes).
    Removing mpu9250_spi.o(i._ZN11mpu9250_spi7readRegEiPii), (72 bytes).
    Removing mpu9250_spi.o(i._ZN11mpu9250_spi8readFIFOEv), (640 bytes).
    Removing mpu9250_spi.o(i._ZN11mpu9250_spi8readGyroEv), (258 bytes).
    Removing mpu9250_spi.o(i._ZN11mpu9250_spi8readTempEv), (136 bytes).
    Removing mpu9250_spi.o(i._ZN11mpu9250_spi8writeRegEih), (38 bytes).
    Removing mpu9250_spi.o(i._ZN11mpu9250_spi9calibrateEi), (288 bytes).
    Removing mpu9250_spi.o(i._ZN11mpu9250_spiC1ER3Pin), (22 bytes).
    Removing mpu9250_spi.o(.ARM.exidx), (8 bytes).
    Removing mpu9250_spi.o(.ARM.exidx), (8 bytes).
    Removing mpu9250_spi.o(.ARM.exidx), (8 bytes).
    Removing mpu9250_spi.o(.ARM.exidx), (8 bytes).
    Removing mpu9250_spi.o(.ARM.exidx), (8 bytes).
    Removing mpu9250_spi.o(.ARM.exidx), (8 bytes).
    Removing mpu9250_spi.o(.ARM.exidx), (8 bytes).
    Removing mpu9250_spi.o(.ARM.exidx), (8 bytes).
    Removing mpu9250_spi.o(.ARM.exidx), (8 bytes).
    Removing mpu9250_spi.o(.ARM.exidx), (8 bytes).
    Removing mpu9250_spi.o(.ARM.exidx), (8 bytes).
    Removing mpu9250_spi.o(.ARM.exidx), (8 bytes).
    Removing mpu9250_spi.o(.ARM.exidx), (8 bytes).
    Removing mpu9250_spi.o(.ARM.exidx), (8 bytes).
    Removing mpu9250_spi.o(.ARM.exidx), (8 bytes).
    Removing mpu9250_spi.o(.ARM.exidx), (8 bytes).
    Removing mpu9250_spi.o(.ARM.exidx), (8 bytes).
    Removing mpu9250_spi.o(.ARM.exidx), (8 bytes).
    Removing mpu9250_spi.o(.ARM.exidx), (8 bytes).
    Removing mpu9250_spi.o(.ARM.exidx), (8 bytes).
    Removing mpu9250_spi.o(.ARM.exidx), (8 bytes).
    Removing mpu9250_spi.o(.ARM.exidx), (8 bytes).
    Removing mpu9250_spi.o(.ARM.exidx), (8 bytes).
    Removing mpu9250_spi.o(.ARM.exidx), (8 bytes).
    Removing mpu9250_spi.o(.ARM.exidx), (8 bytes).
    Removing omniplatform.o(.rev16_text), (4 bytes).
    Removing omniplatform.o(.revsh_text), (4 bytes).
    Removing omniplatform.o(.rrx_text), (6 bytes).
    Removing omniplatform.o(i._ZN12omniplatform7disableEv), (36 bytes).
    Removing omniplatform.o(.ARM.exidx), (8 bytes).
    Removing omniplatform.o(.ARM.exidx), (8 bytes).
    Removing omniplatform.o(.ARM.exidx), (8 bytes).
    Removing imu_usart.o(.rev16_text), (4 bytes).
    Removing imu_usart.o(.revsh_text), (4 bytes).
    Removing imu_usart.o(.rrx_text), (6 bytes).
    Removing imu_usart.o(i._ZN8gyro_imu9getTargetEv), (8 bytes).
    Removing imu_usart.o(.ARM.exidx), (8 bytes).
    Removing imu_usart.o(.ARM.exidx), (8 bytes).
    Removing imu_usart.o(.ARM.exidx), (8 bytes).
    Removing imu_usart.o(.ARM.exidx), (8 bytes).
    Removing imu_usart.o(.ARM.exidx), (8 bytes).
    Removing imu_usart.o(.ARM.exidx), (8 bytes).
    Removing imu_usart.o(.ARM.exidx), (8 bytes).
    Removing imu_usart.o(.ARM.exidx), (8 bytes).
    Removing imu_usart.o(.ARM.exidx), (8 bytes).
    Removing imu_usart.o(.ARM.exidx), (8 bytes).
    Removing imu_usart.o(.ARM.exidx), (8 bytes).
    Removing usart1.o(.rev16_text), (4 bytes).
    Removing usart1.o(.revsh_text), (4 bytes).
    Removing usart1.o(.rrx_text), (6 bytes).
    Removing usart1.o(i._ZN5uart15writeEh), (96 bytes).
    Removing usart1.o(.ARM.exidx), (8 bytes).
    Removing usart1.o(.ARM.exidx), (8 bytes).
    Removing usart1.o(.ARM.exidx), (8 bytes).
    Removing usart1.o(.ARM.exidx), (8 bytes).
    Removing usart1.o(.ARM.exidx), (8 bytes).
    Removing usart2.o(.rev16_text), (4 bytes).
    Removing usart2.o(.revsh_text), (4 bytes).
    Removing usart2.o(.rrx_text), (6 bytes).
    Removing usart2.o(i._ZN5uart25writeEh), (96 bytes).
    Removing usart2.o(.ARM.exidx), (8 bytes).
    Removing usart2.o(.ARM.exidx), (8 bytes).
    Removing usart2.o(.ARM.exidx), (8 bytes).
    Removing usart2.o(.ARM.exidx), (8 bytes).
    Removing usart2.o(.ARM.exidx), (8 bytes).
    Removing usart3.o(.rev16_text), (4 bytes).
    Removing usart3.o(.revsh_text), (4 bytes).
    Removing usart3.o(.rrx_text), (6 bytes).
    Removing usart3.o(i._ZN5uart35writeEh), (96 bytes).
    Removing usart3.o(.ARM.exidx), (8 bytes).
    Removing usart3.o(.ARM.exidx), (8 bytes).
    Removing usart3.o(.ARM.exidx), (8 bytes).
    Removing usart3.o(.ARM.exidx), (8 bytes).
    Removing usart3.o(.ARM.exidx), (8 bytes).
    Removing usart6.o(.rev16_text), (4 bytes).
    Removing usart6.o(.revsh_text), (4 bytes).
    Removing usart6.o(.rrx_text), (6 bytes).
    Removing usart6.o(i._ZN5uart65writeEh), (96 bytes).
    Removing usart6.o(.ARM.exidx), (8 bytes).
    Removing usart6.o(.ARM.exidx), (8 bytes).
    Removing usart6.o(.ARM.exidx), (8 bytes).
    Removing usart6.o(.ARM.exidx), (8 bytes).
    Removing usart6.o(.ARM.exidx), (8 bytes).
    Removing openmv.o(.rev16_text), (4 bytes).
    Removing openmv.o(.revsh_text), (4 bytes).
    Removing openmv.o(.rrx_text), (6 bytes).
    Removing openmv.o(i._ZN6OpenMV4crc8EPVhh), (58 bytes).
    Removing openmv.o(i._ZN6OpenMV4getXEv), (8 bytes).
    Removing openmv.o(i._ZN6OpenMV4getYEv), (8 bytes).
    Removing openmv.o(i._ZN6OpenMV4readEv), (282 bytes).
    Removing openmv.o(i._ZN6OpenMV6adductEs), (32 bytes).
    Removing openmv.o(i._ZN6OpenMV9calculateEsb), (528 bytes).
    Removing openmv.o(i._ZN6OpenMV9initUSARTEh), (86 bytes).
    Removing openmv.o(i._ZN6OpenMVC1ER3PinS1_h), (42 bytes).
    Removing openmv.o(.ARM.exidx), (8 bytes).
    Removing openmv.o(.ARM.exidx), (8 bytes).
    Removing openmv.o(.ARM.exidx), (8 bytes).
    Removing openmv.o(.ARM.exidx), (8 bytes).
    Removing openmv.o(.ARM.exidx), (8 bytes).
    Removing openmv.o(.ARM.exidx), (8 bytes).
    Removing openmv.o(.ARM.exidx), (8 bytes).
    Removing openmv.o(.ARM.exidx), (8 bytes).
    Removing tsop.o(.rev16_text), (4 bytes).
    Removing tsop.o(.revsh_text), (4 bytes).
    Removing tsop.o(.rrx_text), (6 bytes).
    Removing tsop.o(i._ZN4TSOP11updateTSOPsEv), (310 bytes).
    Removing tsop.o(i._ZN4TSOP14calculateAngleEv), (376 bytes).
    Removing tsop.o(i._ZN4TSOP8getAngleEv), (18 bytes).
    Removing tsop.o(i._ZN4TSOPC1ER3PinS1_S1_S1_S1_S1_), (128 bytes).
    Removing tsop.o(.ARM.exidx), (8 bytes).
    Removing tsop.o(.ARM.exidx), (8 bytes).
    Removing tsop.o(.ARM.exidx), (8 bytes).
    Removing tsop.o(.ARM.exidx), (8 bytes).
    Removing ir_locator.o(.rev16_text), (4 bytes).
    Removing ir_locator.o(.revsh_text), (4 bytes).
    Removing ir_locator.o(.rrx_text), (6 bytes).
    Removing ir_locator.o(i._ZN9IRLocator10ballBehindEs), (18 bytes).
    Removing ir_locator.o(.ARM.exidx), (8 bytes).
    Removing ir_locator.o(.ARM.exidx), (8 bytes).
    Removing ir_locator.o(.ARM.exidx), (8 bytes).
    Removing ir_locator.o(.ARM.exidx), (8 bytes).
    Removing ir_locator.o(.ARM.exidx), (8 bytes).
    Removing ir_locator.o(.ARM.exidx), (8 bytes).
    Removing ir_locator.o(.ARM.exidx), (8 bytes).
    Removing ir_locator.o(.ARM.exidx), (8 bytes).
    Removing main.o(.rev16_text), (4 bytes).
    Removing main.o(.revsh_text), (4 bytes).
    Removing main.o(.rrx_text), (6 bytes).
    Removing main.o(i._Z3mapfffff), (26 bytes).
    Removing main.o(i._Z4signf), (48 bytes).
    Removing main.o(i._Z6delay_i), (10 bytes).
    Removing main.o(.ARM.exidx), (8 bytes).
    Removing main.o(.ARM.exidx), (8 bytes).
    Removing main.o(.ARM.exidx), (8 bytes).
    Removing main.o(.ARM.exidx), (8 bytes).
    Removing misc.o(.rev16_text), (4 bytes).
    Removing misc.o(.revsh_text), (4 bytes).
    Removing misc.o(.rrx_text), (6 bytes).
    Removing misc.o(i.NVIC_Init), (120 bytes).
    Removing misc.o(i.NVIC_PriorityGroupConfig), (20 bytes).
    Removing misc.o(i.NVIC_SetVectorTable), (20 bytes).
    Removing misc.o(i.NVIC_SystemLPConfig), (32 bytes).
    Removing misc.o(i.SysTick_CLKSourceConfig), (40 bytes).
    Removing stm32f4xx_adc.o(.rev16_text), (4 bytes).
    Removing stm32f4xx_adc.o(.revsh_text), (4 bytes).
    Removing stm32f4xx_adc.o(.rrx_text), (6 bytes).
    Removing stm32f4xx_adc.o(i.ADC_AnalogWatchdogCmd), (20 bytes).
    Removing stm32f4xx_adc.o(i.ADC_AnalogWatchdogSingleChannelConfig), (16 bytes).
    Removing stm32f4xx_adc.o(i.ADC_AnalogWatchdogThresholdsConfig), (6 bytes).
    Removing stm32f4xx_adc.o(i.ADC_AutoInjectedConvCmd), (22 bytes).
    Removing stm32f4xx_adc.o(i.ADC_ClearFlag), (6 bytes).
    Removing stm32f4xx_adc.o(i.ADC_ClearITPendingBit), (10 bytes).
    Removing stm32f4xx_adc.o(i.ADC_Cmd), (22 bytes).
    Removing stm32f4xx_adc.o(i.ADC_CommonInit), (48 bytes).
    Removing stm32f4xx_adc.o(i.ADC_CommonStructInit), (12 bytes).
    Removing stm32f4xx_adc.o(i.ADC_ContinuousModeCmd), (22 bytes).
    Removing stm32f4xx_adc.o(i.ADC_DMACmd), (22 bytes).
    Removing stm32f4xx_adc.o(i.ADC_DMARequestAfterLastTransferCmd), (22 bytes).
    Removing stm32f4xx_adc.o(i.ADC_DeInit), (22 bytes).
    Removing stm32f4xx_adc.o(i.ADC_DiscModeChannelCountConfig), (24 bytes).
    Removing stm32f4xx_adc.o(i.ADC_DiscModeCmd), (22 bytes).
    Removing stm32f4xx_adc.o(i.ADC_EOCOnEachRegularChannelCmd), (22 bytes).
    Removing stm32f4xx_adc.o(i.ADC_ExternalTrigInjectedConvConfig), (16 bytes).
    Removing stm32f4xx_adc.o(i.ADC_ExternalTrigInjectedConvEdgeConfig), (16 bytes).
    Removing stm32f4xx_adc.o(i.ADC_GetConversionValue), (8 bytes).
    Removing stm32f4xx_adc.o(i.ADC_GetFlagStatus), (18 bytes).
    Removing stm32f4xx_adc.o(i.ADC_GetITStatus), (38 bytes).
    Removing stm32f4xx_adc.o(i.ADC_GetInjectedConversionValue), (28 bytes).
    Removing stm32f4xx_adc.o(i.ADC_GetMultiModeConversionValue), (12 bytes).
    Removing stm32f4xx_adc.o(i.ADC_GetSoftwareStartConvStatus), (20 bytes).
    Removing stm32f4xx_adc.o(i.ADC_GetSoftwareStartInjectedConvCmdStatus), (20 bytes).
    Removing stm32f4xx_adc.o(i.ADC_ITConfig), (32 bytes).
    Removing stm32f4xx_adc.o(i.ADC_Init), (84 bytes).
    Removing stm32f4xx_adc.o(i.ADC_InjectedChannelConfig), (130 bytes).
    Removing stm32f4xx_adc.o(i.ADC_InjectedDiscModeCmd), (22 bytes).
    Removing stm32f4xx_adc.o(i.ADC_InjectedSequencerLengthConfig), (24 bytes).
    Removing stm32f4xx_adc.o(i.ADC_MultiModeDMARequestAfterLastTransferCmd), (44 bytes).
    Removing stm32f4xx_adc.o(i.ADC_RegularChannelConfig), (184 bytes).
    Removing stm32f4xx_adc.o(i.ADC_SetInjectedOffset), (20 bytes).
    Removing stm32f4xx_adc.o(i.ADC_SoftwareStartConv), (10 bytes).
    Removing stm32f4xx_adc.o(i.ADC_SoftwareStartInjectedConv), (10 bytes).
    Removing stm32f4xx_adc.o(i.ADC_StructInit), (20 bytes).
    Removing stm32f4xx_adc.o(i.ADC_TempSensorVrefintCmd), (44 bytes).
    Removing stm32f4xx_adc.o(i.ADC_VBATCmd), (44 bytes).
    Removing stm32f4xx_crc.o(.rev16_text), (4 bytes).
    Removing stm32f4xx_crc.o(.revsh_text), (4 bytes).
    Removing stm32f4xx_crc.o(.rrx_text), (6 bytes).
    Removing stm32f4xx_crc.o(i.CRC_CalcBlockCRC), (36 bytes).
    Removing stm32f4xx_crc.o(i.CRC_CalcCRC), (16 bytes).
    Removing stm32f4xx_crc.o(i.CRC_GetCRC), (12 bytes).
    Removing stm32f4xx_crc.o(i.CRC_GetIDRegister), (12 bytes).
    Removing stm32f4xx_crc.o(i.CRC_ResetDR), (12 bytes).
    Removing stm32f4xx_crc.o(i.CRC_SetIDRegister), (12 bytes).
    Removing stm32f4xx_dac.o(.rev16_text), (4 bytes).
    Removing stm32f4xx_dac.o(.revsh_text), (4 bytes).
    Removing stm32f4xx_dac.o(.rrx_text), (6 bytes).
    Removing stm32f4xx_dac.o(i.DAC_ClearFlag), (16 bytes).
    Removing stm32f4xx_dac.o(i.DAC_ClearITPendingBit), (16 bytes).
    Removing stm32f4xx_dac.o(i.DAC_Cmd), (40 bytes).
    Removing stm32f4xx_dac.o(i.DAC_DMACmd), (44 bytes).
    Removing stm32f4xx_dac.o(i.DAC_DeInit), (22 bytes).
    Removing stm32f4xx_dac.o(i.DAC_DualSoftwareTriggerCmd), (36 bytes).
    Removing stm32f4xx_dac.o(i.DAC_GetDataOutputValue), (36 bytes).
    Removing stm32f4xx_dac.o(i.DAC_GetFlagStatus), (32 bytes).
    Removing stm32f4xx_dac.o(i.DAC_GetITStatus), (48 bytes).
    Removing stm32f4xx_dac.o(i.DAC_ITConfig), (40 bytes).
    Removing stm32f4xx_dac.o(i.DAC_Init), (52 bytes).
    Removing stm32f4xx_dac.o(i.DAC_SetChannel1Data), (32 bytes).
    Removing stm32f4xx_dac.o(i.DAC_SetChannel2Data), (32 bytes).
    Removing stm32f4xx_dac.o(i.DAC_SetDualChannelData), (36 bytes).
    Removing stm32f4xx_dac.o(i.DAC_SoftwareTriggerCmd), (44 bytes).
    Removing stm32f4xx_dac.o(i.DAC_StructInit), (12 bytes).
    Removing stm32f4xx_dac.o(i.DAC_WaveGenerationCmd), (40 bytes).
    Removing stm32f4xx_dma.o(.rev16_text), (4 bytes).
    Removing stm32f4xx_dma.o(.revsh_text), (4 bytes).
    Removing stm32f4xx_dma.o(.rrx_text), (6 bytes).
    Removing stm32f4xx_dma.o(i.DMA_ClearFlag), (52 bytes).
    Removing stm32f4xx_dma.o(i.DMA_ClearITPendingBit), (52 bytes).
    Removing stm32f4xx_dma.o(i.DMA_Cmd), (22 bytes).
    Removing stm32f4xx_dma.o(i.DMA_DeInit), (344 bytes).
    Removing stm32f4xx_dma.o(i.DMA_DoubleBufferModeCmd), (22 bytes).
    Removing stm32f4xx_dma.o(i.DMA_DoubleBufferModeConfig), (24 bytes).
    Removing stm32f4xx_dma.o(i.DMA_FlowControllerConfig), (22 bytes).
    Removing stm32f4xx_dma.o(i.DMA_GetCmdStatus), (20 bytes).
    Removing stm32f4xx_dma.o(i.DMA_GetCurrDataCounter), (8 bytes).
    Removing stm32f4xx_dma.o(i.DMA_GetCurrentMemoryTarget), (20 bytes).
    Removing stm32f4xx_dma.o(i.DMA_GetFIFOStatus), (12 bytes).
    Removing stm32f4xx_dma.o(i.DMA_GetFlagStatus), (68 bytes).
    Removing stm32f4xx_dma.o(i.DMA_GetITStatus), (100 bytes).
    Removing stm32f4xx_dma.o(i.DMA_ITConfig), (58 bytes).
    Removing stm32f4xx_dma.o(i.DMA_Init), (88 bytes).
    Removing stm32f4xx_dma.o(i.DMA_MemoryTargetConfig), (10 bytes).
    Removing stm32f4xx_dma.o(i.DMA_PeriphIncOffsetSizeConfig), (22 bytes).
    Removing stm32f4xx_dma.o(i.DMA_SetCurrDataCounter), (4 bytes).
    Removing stm32f4xx_dma.o(i.DMA_StructInit), (34 bytes).
    Removing stm32f4xx_gpio.o(.rev16_text), (4 bytes).
    Removing stm32f4xx_gpio.o(.revsh_text), (4 bytes).
    Removing stm32f4xx_gpio.o(.rrx_text), (6 bytes).
    Removing stm32f4xx_gpio.o(i.GPIO_DeInit), (312 bytes).
    Removing stm32f4xx_gpio.o(i.GPIO_PinLockConfig), (34 bytes).
    Removing stm32f4xx_gpio.o(i.GPIO_ReadInputData), (8 bytes).
    Removing stm32f4xx_gpio.o(i.GPIO_ReadInputDataBit), (18 bytes).
    Removing stm32f4xx_gpio.o(i.GPIO_ReadOutputData), (8 bytes).
    Removing stm32f4xx_gpio.o(i.GPIO_ReadOutputDataBit), (18 bytes).
    Removing stm32f4xx_gpio.o(i.GPIO_StructInit), (18 bytes).
    Removing stm32f4xx_gpio.o(i.GPIO_ToggleBits), (8 bytes).
    Removing stm32f4xx_gpio.o(i.GPIO_Write), (4 bytes).
    Removing stm32f4xx_gpio.o(i.GPIO_WriteBit), (10 bytes).
    Removing stm32f4xx_i2c.o(.rev16_text), (4 bytes).
    Removing stm32f4xx_i2c.o(.revsh_text), (4 bytes).
    Removing stm32f4xx_i2c.o(.rrx_text), (6 bytes).
    Removing stm32f4xx_i2c.o(i.I2C_ARPCmd), (24 bytes).
    Removing stm32f4xx_i2c.o(i.I2C_AcknowledgeConfig), (24 bytes).
    Removing stm32f4xx_i2c.o(i.I2C_AnalogFilterCmd), (24 bytes).
    Removing stm32f4xx_i2c.o(i.I2C_CalculatePEC), (24 bytes).
    Removing stm32f4xx_i2c.o(i.I2C_CheckEvent), (42 bytes).
    Removing stm32f4xx_i2c.o(i.I2C_ClearFlag), (12 bytes).
    Removing stm32f4xx_i2c.o(i.I2C_ClearITPendingBit), (12 bytes).
    Removing stm32f4xx_i2c.o(i.I2C_Cmd), (24 bytes).
    Removing stm32f4xx_i2c.o(i.I2C_DMACmd), (24 bytes).
    Removing stm32f4xx_i2c.o(i.I2C_DMALastTransferCmd), (24 bytes).
    Removing stm32f4xx_i2c.o(i.I2C_DeInit), (96 bytes).
    Removing stm32f4xx_i2c.o(i.I2C_DigitalFilterConfig), (22 bytes).
    Removing stm32f4xx_i2c.o(i.I2C_DualAddressCmd), (24 bytes).
    Removing stm32f4xx_i2c.o(i.I2C_FastModeDutyCycleConfig), (28 bytes).
    Removing stm32f4xx_i2c.o(i.I2C_GeneralCallCmd), (24 bytes).
    Removing stm32f4xx_i2c.o(i.I2C_GenerateSTART), (24 bytes).
    Removing stm32f4xx_i2c.o(i.I2C_GenerateSTOP), (24 bytes).
    Removing stm32f4xx_i2c.o(i.I2C_GetFlagStatus), (58 bytes).
    Removing stm32f4xx_i2c.o(i.I2C_GetITStatus), (38 bytes).
    Removing stm32f4xx_i2c.o(i.I2C_GetLastEvent), (26 bytes).
    Removing stm32f4xx_i2c.o(i.I2C_GetPEC), (8 bytes).
    Removing stm32f4xx_i2c.o(i.I2C_ITConfig), (18 bytes).
    Removing stm32f4xx_i2c.o(i.I2C_Init), (232 bytes).
    Removing stm32f4xx_i2c.o(i.I2C_NACKPositionConfig), (28 bytes).
    Removing stm32f4xx_i2c.o(i.I2C_OwnAddress2Config), (22 bytes).
    Removing stm32f4xx_i2c.o(i.I2C_PECPositionConfig), (28 bytes).
    Removing stm32f4xx_i2c.o(i.I2C_ReadRegister), (22 bytes).
    Removing stm32f4xx_i2c.o(i.I2C_ReceiveData), (8 bytes).
    Removing stm32f4xx_i2c.o(i.I2C_SMBusAlertConfig), (28 bytes).
    Removing stm32f4xx_i2c.o(i.I2C_Send7bitAddress), (16 bytes).
    Removing stm32f4xx_i2c.o(i.I2C_SendData), (4 bytes).
    Removing stm32f4xx_i2c.o(i.I2C_SoftwareResetCmd), (22 bytes).
    Removing stm32f4xx_i2c.o(i.I2C_StretchClockCmd), (24 bytes).
    Removing stm32f4xx_i2c.o(i.I2C_StructInit), (30 bytes).
    Removing stm32f4xx_i2c.o(i.I2C_TransmitPEC), (24 bytes).
    Removing stm32f4xx_rcc.o(.rev16_text), (4 bytes).
    Removing stm32f4xx_rcc.o(.revsh_text), (4 bytes).
    Removing stm32f4xx_rcc.o(.rrx_text), (6 bytes).
    Removing stm32f4xx_rcc.o(i.RCC_AHB1PeriphClockLPModeCmd), (32 bytes).
    Removing stm32f4xx_rcc.o(i.RCC_AHB1PeriphResetCmd), (32 bytes).
    Removing stm32f4xx_rcc.o(i.RCC_AHB2PeriphClockCmd), (32 bytes).
    Removing stm32f4xx_rcc.o(i.RCC_AHB2PeriphClockLPModeCmd), (32 bytes).
    Removing stm32f4xx_rcc.o(i.RCC_AHB2PeriphResetCmd), (32 bytes).
    Removing stm32f4xx_rcc.o(i.RCC_AHB3PeriphClockCmd), (32 bytes).
    Removing stm32f4xx_rcc.o(i.RCC_AHB3PeriphClockLPModeCmd), (32 bytes).
    Removing stm32f4xx_rcc.o(i.RCC_AHB3PeriphResetCmd), (32 bytes).
    Removing stm32f4xx_rcc.o(i.RCC_APB1PeriphClockLPModeCmd), (32 bytes).
    Removing stm32f4xx_rcc.o(i.RCC_APB1PeriphResetCmd), (32 bytes).
    Removing stm32f4xx_rcc.o(i.RCC_APB2PeriphClockLPModeCmd), (32 bytes).
    Removing stm32f4xx_rcc.o(i.RCC_APB2PeriphResetCmd), (32 bytes).
    Removing stm32f4xx_rcc.o(i.RCC_AdjustHSICalibrationValue), (24 bytes).
    Removing stm32f4xx_rcc.o(i.RCC_BackupResetCmd), (12 bytes).
    Removing stm32f4xx_rcc.o(i.RCC_ClearFlag), (20 bytes).
    Removing stm32f4xx_rcc.o(i.RCC_ClearITPendingBit), (12 bytes).
    Removing stm32f4xx_rcc.o(i.RCC_ClockSecuritySystemCmd), (12 bytes).
    Removing stm32f4xx_rcc.o(i.RCC_DeInit), (100 bytes).
    Removing stm32f4xx_rcc.o(i.RCC_GetFlagStatus), (64 bytes).
    Removing stm32f4xx_rcc.o(i.RCC_GetITStatus), (24 bytes).
    Removing stm32f4xx_rcc.o(i.RCC_GetSYSCLKSource), (16 bytes).
    Removing stm32f4xx_rcc.o(i.RCC_HCLKConfig), (24 bytes).
    Removing stm32f4xx_rcc.o(i.RCC_HSEConfig), (16 bytes).
    Removing stm32f4xx_rcc.o(i.RCC_HSICmd), (12 bytes).
    Removing stm32f4xx_rcc.o(i.RCC_I2SCLKConfig), (12 bytes).
    Removing stm32f4xx_rcc.o(i.RCC_ITConfig), (32 bytes).
    Removing stm32f4xx_rcc.o(i.RCC_LSEConfig), (44 bytes).
    Removing stm32f4xx_rcc.o(i.RCC_LSEModeConfig), (36 bytes).
    Removing stm32f4xx_rcc.o(i.RCC_LSICmd), (12 bytes).
    Removing stm32f4xx_rcc.o(i.RCC_LTDCCLKDivConfig), (24 bytes).
    Removing stm32f4xx_rcc.o(i.RCC_MCO1Config), (28 bytes).
    Removing stm32f4xx_rcc.o(i.RCC_MCO2Config), (28 bytes).
    Removing stm32f4xx_rcc.o(i.RCC_PCLK1Config), (24 bytes).
    Removing stm32f4xx_rcc.o(i.RCC_PCLK2Config), (24 bytes).
    Removing stm32f4xx_rcc.o(i.RCC_PLLCmd), (12 bytes).
    Removing stm32f4xx_rcc.o(i.RCC_PLLConfig), (36 bytes).
    Removing stm32f4xx_rcc.o(i.RCC_PLLI2SCmd), (12 bytes).
    Removing stm32f4xx_rcc.o(i.RCC_PLLI2SConfig), (16 bytes).
    Removing stm32f4xx_rcc.o(i.RCC_PLLSAICmd), (12 bytes).
    Removing stm32f4xx_rcc.o(i.RCC_PLLSAIConfig), (24 bytes).
    Removing stm32f4xx_rcc.o(i.RCC_RTCCLKCmd), (12 bytes).
    Removing stm32f4xx_rcc.o(i.RCC_RTCCLKConfig), (60 bytes).
    Removing stm32f4xx_rcc.o(i.RCC_SAIBlockACLKConfig), (24 bytes).
    Removing stm32f4xx_rcc.o(i.RCC_SAIBlockBCLKConfig), (24 bytes).
    Removing stm32f4xx_rcc.o(i.RCC_SAIPLLI2SClkDivConfig), (28 bytes).
    Removing stm32f4xx_rcc.o(i.RCC_SAIPLLSAIClkDivConfig), (28 bytes).
    Removing stm32f4xx_rcc.o(i.RCC_SYSCLKConfig), (24 bytes).
    Removing stm32f4xx_rcc.o(i.RCC_TIMCLKPresConfig), (12 bytes).
    Removing stm32f4xx_rcc.o(i.RCC_WaitForHSEStartUp), (56 bytes).
    Removing stm32f4xx_spi.o(.rev16_text), (4 bytes).
    Removing stm32f4xx_spi.o(.revsh_text), (4 bytes).
    Removing stm32f4xx_spi.o(.rrx_text), (6 bytes).
    Removing stm32f4xx_spi.o(i.I2S_Cmd), (24 bytes).
    Removing stm32f4xx_spi.o(i.I2S_FullDuplexConfig), (80 bytes).
    Removing stm32f4xx_spi.o(i.I2S_Init), (408 bytes).
    Removing stm32f4xx_spi.o(i.I2S_StructInit), (20 bytes).
    Removing stm32f4xx_spi.o(i.SPI_BiDirectionalLineConfig), (28 bytes).
    Removing stm32f4xx_spi.o(i.SPI_CalculateCRC), (24 bytes).
    Removing stm32f4xx_spi.o(i.SPI_Cmd), (24 bytes).
    Removing stm32f4xx_spi.o(i.SPI_DataSizeConfig), (18 bytes).
    Removing stm32f4xx_spi.o(i.SPI_GetCRC), (16 bytes).
    Removing stm32f4xx_spi.o(i.SPI_GetCRCPolynomial), (6 bytes).
    Removing stm32f4xx_spi.o(i.SPI_I2S_ClearFlag), (6 bytes).
    Removing stm32f4xx_spi.o(i.SPI_I2S_ClearITPendingBit), (20 bytes).
    Removing stm32f4xx_spi.o(i.SPI_I2S_DMACmd), (18 bytes).
    Removing stm32f4xx_spi.o(i.SPI_I2S_DeInit), (176 bytes).
    Removing stm32f4xx_spi.o(i.SPI_I2S_GetITStatus), (52 bytes).
    Removing stm32f4xx_spi.o(i.SPI_I2S_ITConfig), (32 bytes).
    Removing stm32f4xx_spi.o(i.SPI_I2S_ReceiveData), (6 bytes).
    Removing stm32f4xx_spi.o(i.SPI_I2S_SendData), (4 bytes).
    Removing stm32f4xx_spi.o(i.SPI_Init), (60 bytes).
    Removing stm32f4xx_spi.o(i.SPI_NSSInternalSoftwareConfig), (30 bytes).
    Removing stm32f4xx_spi.o(i.SPI_SSOutputCmd), (24 bytes).
    Removing stm32f4xx_spi.o(i.SPI_StructInit), (24 bytes).
    Removing stm32f4xx_spi.o(i.SPI_TIModeCmd), (24 bytes).
    Removing stm32f4xx_spi.o(i.SPI_TransmitCRC), (10 bytes).
    Removing stm32f4xx_tim.o(.rev16_text), (4 bytes).
    Removing stm32f4xx_tim.o(.revsh_text), (4 bytes).
    Removing stm32f4xx_tim.o(.rrx_text), (6 bytes).
    Removing stm32f4xx_tim.o(i.TI1_Config), (58 bytes).
    Removing stm32f4xx_tim.o(i.TI2_Config), (80 bytes).
    Removing stm32f4xx_tim.o(i.TI3_Config), (72 bytes).
    Removing stm32f4xx_tim.o(i.TI4_Config), (80 bytes).
    Removing stm32f4xx_tim.o(i.TIM_ARRPreloadConfig), (24 bytes).
    Removing stm32f4xx_tim.o(i.TIM_BDTRStructInit), (18 bytes).
    Removing stm32f4xx_tim.o(i.TIM_CCPreloadControl), (24 bytes).
    Removing stm32f4xx_tim.o(i.TIM_CCxCmd), (30 bytes).
    Removing stm32f4xx_tim.o(i.TIM_CCxNCmd), (30 bytes).
    Removing stm32f4xx_tim.o(i.TIM_ClearFlag), (6 bytes).
    Removing stm32f4xx_tim.o(i.TIM_ClearITPendingBit), (6 bytes).
    Removing stm32f4xx_tim.o(i.TIM_ClearOC1Ref), (18 bytes).
    Removing stm32f4xx_tim.o(i.TIM_ClearOC2Ref), (24 bytes).
    Removing stm32f4xx_tim.o(i.TIM_ClearOC3Ref), (18 bytes).
    Removing stm32f4xx_tim.o(i.TIM_ClearOC4Ref), (24 bytes).
    Removing stm32f4xx_tim.o(i.TIM_CounterModeConfig), (18 bytes).
    Removing stm32f4xx_tim.o(i.TIM_DMACmd), (18 bytes).
    Removing stm32f4xx_tim.o(i.TIM_DMAConfig), (10 bytes).
    Removing stm32f4xx_tim.o(i.TIM_DeInit), (400 bytes).
    Removing stm32f4xx_tim.o(i.TIM_ETRClockMode1Config), (54 bytes).
    Removing stm32f4xx_tim.o(i.TIM_ETRClockMode2Config), (32 bytes).
    Removing stm32f4xx_tim.o(i.TIM_ETRConfig), (28 bytes).
    Removing stm32f4xx_tim.o(i.TIM_EncoderInterfaceConfig), (66 bytes).
    Removing stm32f4xx_tim.o(i.TIM_ForcedOC1Config), (18 bytes).
    Removing stm32f4xx_tim.o(i.TIM_ForcedOC2Config), (26 bytes).
    Removing stm32f4xx_tim.o(i.TIM_ForcedOC3Config), (18 bytes).
    Removing stm32f4xx_tim.o(i.TIM_ForcedOC4Config), (26 bytes).
    Removing stm32f4xx_tim.o(i.TIM_GenerateEvent), (4 bytes).
    Removing stm32f4xx_tim.o(i.TIM_GetCapture1), (6 bytes).
    Removing stm32f4xx_tim.o(i.TIM_GetCapture2), (6 bytes).
    Removing stm32f4xx_tim.o(i.TIM_GetCapture3), (6 bytes).
    Removing stm32f4xx_tim.o(i.TIM_GetCapture4), (6 bytes).
    Removing stm32f4xx_tim.o(i.TIM_GetCounter), (6 bytes).
    Removing stm32f4xx_tim.o(i.TIM_GetFlagStatus), (18 bytes).
    Removing stm32f4xx_tim.o(i.TIM_GetITStatus), (34 bytes).
    Removing stm32f4xx_tim.o(i.TIM_GetPrescaler), (6 bytes).
    Removing stm32f4xx_tim.o(i.TIM_ICInit), (110 bytes).
    Removing stm32f4xx_tim.o(i.TIM_ICStructInit), (18 bytes).
    Removing stm32f4xx_tim.o(i.TIM_ITConfig), (18 bytes).
    Removing stm32f4xx_tim.o(i.TIM_ITRxExternalClockConfig), (24 bytes).
    Removing stm32f4xx_tim.o(i.TIM_InternalClockConfig), (12 bytes).
    Removing stm32f4xx_tim.o(i.TIM_OC1FastConfig), (18 bytes).
    Removing stm32f4xx_tim.o(i.TIM_OC1NPolarityConfig), (18 bytes).
    Removing stm32f4xx_tim.o(i.TIM_OC1PolarityConfig), (18 bytes).
    Removing stm32f4xx_tim.o(i.TIM_OC1PreloadConfig), (18 bytes).
    Removing stm32f4xx_tim.o(i.TIM_OC2FastConfig), (26 bytes).
    Removing stm32f4xx_tim.o(i.TIM_OC2NPolarityConfig), (26 bytes).
    Removing stm32f4xx_tim.o(i.TIM_OC2PolarityConfig), (26 bytes).
    Removing stm32f4xx_tim.o(i.TIM_OC2PreloadConfig), (26 bytes).
    Removing stm32f4xx_tim.o(i.TIM_OC3FastConfig), (18 bytes).
    Removing stm32f4xx_tim.o(i.TIM_OC3NPolarityConfig), (26 bytes).
    Removing stm32f4xx_tim.o(i.TIM_OC3PolarityConfig), (26 bytes).
    Removing stm32f4xx_tim.o(i.TIM_OC3PreloadConfig), (18 bytes).
    Removing stm32f4xx_tim.o(i.TIM_OC4FastConfig), (26 bytes).
    Removing stm32f4xx_tim.o(i.TIM_OC4PolarityConfig), (26 bytes).
    Removing stm32f4xx_tim.o(i.TIM_OC4PreloadConfig), (26 bytes).
    Removing stm32f4xx_tim.o(i.TIM_OCStructInit), (20 bytes).
    Removing stm32f4xx_tim.o(i.TIM_PWMIConfig), (124 bytes).
    Removing stm32f4xx_tim.o(i.TIM_PrescalerConfig), (6 bytes).
    Removing stm32f4xx_tim.o(i.TIM_RemapConfig), (6 bytes).
    Removing stm32f4xx_tim.o(i.TIM_SelectCCDMA), (24 bytes).
    Removing stm32f4xx_tim.o(i.TIM_SelectCOM), (24 bytes).
    Removing stm32f4xx_tim.o(i.TIM_SelectHallSensor), (24 bytes).
    Removing stm32f4xx_tim.o(i.TIM_SelectInputTrigger), (18 bytes).
    Removing stm32f4xx_tim.o(i.TIM_SelectMasterSlaveMode), (18 bytes).
    Removing stm32f4xx_tim.o(i.TIM_SelectOCxM), (86 bytes).
    Removing stm32f4xx_tim.o(i.TIM_SelectOnePulseMode), (18 bytes).
    Removing stm32f4xx_tim.o(i.TIM_SelectOutputTrigger), (18 bytes).
    Removing stm32f4xx_tim.o(i.TIM_SelectSlaveMode), (18 bytes).
    Removing stm32f4xx_tim.o(i.TIM_SetAutoreload), (4 bytes).
    Removing stm32f4xx_tim.o(i.TIM_SetClockDivision), (18 bytes).
    Removing stm32f4xx_tim.o(i.TIM_SetCounter), (4 bytes).
    Removing stm32f4xx_tim.o(i.TIM_SetIC1Prescaler), (18 bytes).
    Removing stm32f4xx_tim.o(i.TIM_SetIC2Prescaler), (26 bytes).
    Removing stm32f4xx_tim.o(i.TIM_SetIC3Prescaler), (18 bytes).
    Removing stm32f4xx_tim.o(i.TIM_SetIC4Prescaler), (26 bytes).
    Removing stm32f4xx_tim.o(i.TIM_TIxExternalClockConfig), (62 bytes).
    Removing stm32f4xx_tim.o(i.TIM_TimeBaseStructInit), (18 bytes).
    Removing stm32f4xx_tim.o(i.TIM_UpdateDisableConfig), (24 bytes).
    Removing stm32f4xx_tim.o(i.TIM_UpdateRequestConfig), (24 bytes).
    Removing stm32f4xx_usart.o(.rev16_text), (4 bytes).
    Removing stm32f4xx_usart.o(.revsh_text), (4 bytes).
    Removing stm32f4xx_usart.o(.rrx_text), (6 bytes).
    Removing stm32f4xx_usart.o(i.USART_ClearFlag), (18 bytes).
    Removing stm32f4xx_usart.o(i.USART_ClockInit), (32 bytes).
    Removing stm32f4xx_usart.o(i.USART_ClockStructInit), (12 bytes).
    Removing stm32f4xx_usart.o(i.USART_DMACmd), (18 bytes).
    Removing stm32f4xx_usart.o(i.USART_DeInit), (240 bytes).
    Removing stm32f4xx_usart.o(i.USART_GetFlagStatus), (26 bytes).
    Removing stm32f4xx_usart.o(i.USART_GetITStatus), (84 bytes).
    Removing stm32f4xx_usart.o(i.USART_HalfDuplexCmd), (24 bytes).
    Removing stm32f4xx_usart.o(i.USART_IrDACmd), (24 bytes).
    Removing stm32f4xx_usart.o(i.USART_IrDAConfig), (18 bytes).
    Removing stm32f4xx_usart.o(i.USART_LINBreakDetectLengthConfig), (18 bytes).
    Removing stm32f4xx_usart.o(i.USART_LINCmd), (24 bytes).
    Removing stm32f4xx_usart.o(i.USART_OneBitMethodCmd), (24 bytes).
    Removing stm32f4xx_usart.o(i.USART_OverSampling8Cmd), (22 bytes).
    Removing stm32f4xx_usart.o(i.USART_ReceiveData), (10 bytes).
    Removing stm32f4xx_usart.o(i.USART_ReceiverWakeUpCmd), (24 bytes).
    Removing stm32f4xx_usart.o(i.USART_SendBreak), (10 bytes).
    Removing stm32f4xx_usart.o(i.USART_SendData), (8 bytes).
    Removing stm32f4xx_usart.o(i.USART_SetAddress), (18 bytes).
    Removing stm32f4xx_usart.o(i.USART_SetGuardTime), (16 bytes).
    Removing stm32f4xx_usart.o(i.USART_SetPrescaler), (16 bytes).
    Removing stm32f4xx_usart.o(i.USART_SmartCardCmd), (24 bytes).
    Removing stm32f4xx_usart.o(i.USART_SmartCardNACKCmd), (24 bytes).
    Removing stm32f4xx_usart.o(i.USART_WakeUpConfig), (18 bytes).
    Removing retarget.o(.rev16_text), (4 bytes).
    Removing retarget.o(.revsh_text), (4 bytes).
    Removing retarget.o(.rrx_text), (6 bytes).
    Removing retarget.o(i._Z12ITM_SendCharj), (48 bytes).
    Removing retarget.o(i.__aeabi_atexit), (4 bytes).
    Removing retarget.o(i._sys_command_string), (6 bytes).
    Removing retarget.o(i._ttywrch), (12 bytes).
    Removing retarget.o(i.ferror), (8 bytes).
    Removing retarget.o(i.fgetc), (6 bytes).
    Removing retarget.o(i.fputc), (14 bytes).
    Removing retarget.o(.ARM.exidx), (8 bytes).
    Removing retarget.o(.ARM.exidx), (8 bytes).
    Removing retarget.o(.ARM.exidx), (8 bytes).
    Removing retarget.o(.ARM.exidx), (8 bytes).
    Removing retarget.o(.ARM.exidx), (8 bytes).
    Removing retarget.o(.ARM.exidx), (8 bytes).
    Removing retarget.o(.ARM.exidx), (8 bytes).
    Removing retarget.o(.ARM.exidx), (8 bytes).
    Removing retarget.o(.data), (12 bytes).
    Removing system_stm32f4xx.o(.rev16_text), (4 bytes).
    Removing system_stm32f4xx.o(.revsh_text), (4 bytes).
    Removing system_stm32f4xx.o(.rrx_text), (6 bytes).
    Removing system_stm32f4xx.o(i.SystemCoreClockUpdate), (192 bytes).
    Removing system_stm32f4xx.o(.constdata), (24 bytes).
    Removing system_stm32f4xx.o(.data), (4 bytes).
    Removing mpu9250_spi.o(i._ZN11mpu9250_spi7convertEth), (32 bytes).
    Removing mpu9250_spi.o(.ARM.exidx), (8 bytes).
    Removing omniplatform.o(.ARM.exidx), (8 bytes).
    Removing openmv.o(i._ZSt3cosf), (24 bytes).
    Removing openmv.o(.ARM.exidx), (8 bytes).

676 unused section(s) (total 25373 bytes) removed from the image.

==============================================================================

Image Symbol Table

    Local Symbols

    Symbol Name                              Value     Ov Type        Size  Object(Section)

    ../clib/angel/boardlib.s                 0x00000000   Number         0  boardinit1.o ABSOLUTE
    ../clib/angel/boardlib.s                 0x00000000   Number         0  boardinit2.o ABSOLUTE
    ../clib/angel/boardlib.s                 0x00000000   Number         0  boardinit3.o ABSOLUTE
    ../clib/angel/boardlib.s                 0x00000000   Number         0  boardshut.o ABSOLUTE
    ../clib/angel/handlers.s                 0x00000000   Number         0  __scatter_copy.o ABSOLUTE
    ../clib/angel/handlers.s                 0x00000000   Number         0  __scatter_zi.o ABSOLUTE
    ../clib/angel/kernel.s                   0x00000000   Number         0  rtexit.o ABSOLUTE
    ../clib/angel/kernel.s                   0x00000000   Number         0  rtexit2.o ABSOLUTE
    ../clib/angel/kernel.s                   0x00000000   Number         0  __rtentry4.o ABSOLUTE
    ../clib/angel/kernel.s                   0x00000000   Number         0  __rtentry2.o ABSOLUTE
    ../clib/angel/kernel.s                   0x00000000   Number         0  __rtentry.o ABSOLUTE
    ../clib/angel/rt.s                       0x00000000   Number         0  rt_errno_addr_intlibspace.o ABSOLUTE
    ../clib/angel/rt.s                       0x00000000   Number         0  rt_errno_addr.o ABSOLUTE
    ../clib/angel/rt.s                       0x00000000   Number         0  rt_raise.o ABSOLUTE
    ../clib/angel/scatter.s                  0x00000000   Number         0  __scatter.o ABSOLUTE
    ../clib/angel/startup.s                  0x00000000   Number         0  __main.o ABSOLUTE
    ../clib/angel/sys.s                      0x00000000   Number         0  sys_stackheap_outer.o ABSOLUTE
    ../clib/angel/sys.s                      0x00000000   Number         0  libspace.o ABSOLUTE
    ../clib/angel/sys.s                      0x00000000   Number         0  use_no_semi.o ABSOLUTE
    ../clib/armsys.c                         0x00000000   Number         0  argv_veneer.o ABSOLUTE
    ../clib/armsys.c                         0x00000000   Number         0  no_argv.o ABSOLUTE
    ../clib/armsys.c                         0x00000000   Number         0  argv_veneer.o ABSOLUTE
    ../clib/armsys.c                         0x00000000   Number         0  _get_argv_nomalloc.o ABSOLUTE
    ../clib/fenv.c                           0x00000000   Number         0  _rserrno.o ABSOLUTE
    ../clib/heapalloc.c                      0x00000000   Number         0  hrguard.o ABSOLUTE
    ../clib/heapaux.c                        0x00000000   Number         0  heapauxi.o ABSOLUTE
    ../clib/libinit.s                        0x00000000   Number         0  libinit.o ABSOLUTE
    ../clib/libinit.s                        0x00000000   Number         0  libshutdown.o ABSOLUTE
    ../clib/libinit.s                        0x00000000   Number         0  libinit2.o ABSOLUTE
    ../clib/libinit.s                        0x00000000   Number         0  libshutdown2.o ABSOLUTE
    ../clib/memcpset.s                       0x00000000   Number         0  rt_memcpy_w.o ABSOLUTE
    ../clib/signal.c                         0x00000000   Number         0  __raise.o ABSOLUTE
    ../clib/signal.c                         0x00000000   Number         0  defsig_general.o ABSOLUTE
    ../clib/signal.c                         0x00000000   Number         0  defsig_exit.o ABSOLUTE
    ../clib/signal.c                         0x00000000   Number         0  defsig_rtmem_inner.o ABSOLUTE
    ../clib/signal.c                         0x00000000   Number         0  defsig_rtmem_formal.o ABSOLUTE
    ../clib/signal.c                         0x00000000   Number         0  defsig_rtmem_outer.o ABSOLUTE
    ../clib/signal.c                         0x00000000   Number         0  defsig_abrt_inner.o ABSOLUTE
    ../clib/signal.c                         0x00000000   Number         0  defsig_fpe_inner.o ABSOLUTE
    ../clib/signal.c                         0x00000000   Number         0  defsig_rtred_inner.o ABSOLUTE
    ../clib/signal.c                         0x00000000   Number         0  defsig_stak_inner.o ABSOLUTE
    ../clib/signal.c                         0x00000000   Number         0  defsig_pvfn_inner.o ABSOLUTE
    ../clib/signal.c                         0x00000000   Number         0  defsig_cppl_inner.o ABSOLUTE
    ../clib/signal.c                         0x00000000   Number         0  defsig_segv_inner.o ABSOLUTE
    ../clib/signal.c                         0x00000000   Number         0  defsig_other.o ABSOLUTE
    ../clib/signal.s                         0x00000000   Number         0  defsig.o ABSOLUTE
    ../clib/stdlib.c                         0x00000000   Number         0  exit.o ABSOLUTE
    ../fplib/basic.s                         0x00000000   Number         0  basic.o ABSOLUTE
    ../fplib/d2f.s                           0x00000000   Number         0  d2f.o ABSOLUTE
    ../fplib/daddsub.s                       0x00000000   Number         0  daddsub_clz.o ABSOLUTE
    ../fplib/dcheck1.s                       0x00000000   Number         0  dcheck1.o ABSOLUTE
    ../fplib/dcmpi.s                         0x00000000   Number         0  dcmpi.o ABSOLUTE
    ../fplib/ddiv.s                          0x00000000   Number         0  ddiv.o ABSOLUTE
    ../fplib/deqf.s                          0x00000000   Number         0  deqf.o ABSOLUTE
    ../fplib/dfix.s                          0x00000000   Number         0  dfix.o ABSOLUTE
    ../fplib/dfixu.s                         0x00000000   Number         0  dfixu.o ABSOLUTE
    ../fplib/dflt.s                          0x00000000   Number         0  dflt_clz.o ABSOLUTE
    ../fplib/dfltll.s                        0x00000000   Number         0  dfltll_clz.o ABSOLUTE
    ../fplib/dleqf.s                         0x00000000   Number         0  dleqf.o ABSOLUTE
    ../fplib/dmul.s                          0x00000000   Number         0  dmul.o ABSOLUTE
    ../fplib/dnaninf.s                       0x00000000   Number         0  dnaninf.o ABSOLUTE
    ../fplib/dretinf.s                       0x00000000   Number         0  dretinf.o ABSOLUTE
    ../fplib/drleqf.s                        0x00000000   Number         0  drleqf.o ABSOLUTE
    ../fplib/dsqrt.s                         0x00000000   Number         0  dsqrt_umaal.o ABSOLUTE
    ../fplib/f2d.s                           0x00000000   Number         0  f2d.o ABSOLUTE
    ../fplib/fnaninf.s                       0x00000000   Number         0  fnaninf.o ABSOLUTE
    ../fplib/fpinit.s                        0x00000000   Number         0  fpinit.o ABSOLUTE
    ../fplib/fretinf.s                       0x00000000   Number         0  fretinf.o ABSOLUTE
    ../fplib/retnan.s                        0x00000000   Number         0  retnan.o ABSOLUTE
    ../fplib/scalbn.s                        0x00000000   Number         0  scalbn.o ABSOLUTE
    ../fplib/trapv.s                         0x00000000   Number         0  trapv.o ABSOLUTE
    ../fplib/usenofp.s                       0x00000000   Number         0  usenofp.o ABSOLUTE
    ../mathlib/asin.c                        0x00000000   Number         0  asin.o ABSOLUTE
    ../mathlib/asin.c                        0x00000000   Number         0  asin_x.o ABSOLUTE
    ../mathlib/atan.c                        0x00000000   Number         0  atan_x.o ABSOLUTE
    ../mathlib/atan.c                        0x00000000   Number         0  atan.o ABSOLUTE
    ../mathlib/atan2.c                       0x00000000   Number         0  atan2_x.o ABSOLUTE
    ../mathlib/atan2.c                       0x00000000   Number         0  atan2.o ABSOLUTE
    ../mathlib/atan2f.c                      0x00000000   Number         0  atan2f.o ABSOLUTE
    ../mathlib/atan2f.c                      0x00000000   Number         0  atan2f_x.o ABSOLUTE
    ../mathlib/cos.c                         0x00000000   Number         0  cos.o ABSOLUTE
    ../mathlib/cos.c                         0x00000000   Number         0  cos_x.o ABSOLUTE
    ../mathlib/cos_i.c                       0x00000000   Number         0  cos_i.o ABSOLUTE
    ../mathlib/cosf.c                        0x00000000   Number         0  cosf_x.o ABSOLUTE
    ../mathlib/cosf.c                        0x00000000   Number         0  cosf.o ABSOLUTE
    ../mathlib/dunder.c                      0x00000000   Number         0  dunder.o ABSOLUTE
    ../mathlib/fabs.c                        0x00000000   Number         0  fabs.o ABSOLUTE
    ../mathlib/fpclassify.c                  0x00000000   Number         0  fpclassify.o ABSOLUTE
    ../mathlib/fpclassifyf.c                 0x00000000   Number         0  fpclassifyf.o ABSOLUTE
    ../mathlib/funder.c                      0x00000000   Number         0  funder.o ABSOLUTE
    ../mathlib/poly.c                        0x00000000   Number         0  poly.o ABSOLUTE
    ../mathlib/pow.c                         0x00000000   Number         0  pow_x.o ABSOLUTE
    ../mathlib/pow.c                         0x00000000   Number         0  pow.o ABSOLUTE
    ../mathlib/qnan.c                        0x00000000   Number         0  qnan.o ABSOLUTE
    ../mathlib/rred.c                        0x00000000   Number         0  rred.o ABSOLUTE
    ../mathlib/rredf.c                       0x00000000   Number         0  rredf.o ABSOLUTE
    ../mathlib/sin.c                         0x00000000   Number         0  sin_x.o ABSOLUTE
    ../mathlib/sin.c                         0x00000000   Number         0  sin.o ABSOLUTE
    ../mathlib/sin_i.c                       0x00000000   Number         0  sin_i_x.o ABSOLUTE
    ../mathlib/sin_i.c                       0x00000000   Number         0  sin_i.o ABSOLUTE
    ../mathlib/sinf.c                        0x00000000   Number         0  sinf.o ABSOLUTE
    ../mathlib/sinf.c                        0x00000000   Number         0  sinf_x.o ABSOLUTE
    ../mathlib/sqrt.c                        0x00000000   Number         0  sqrt.o ABSOLUTE
    ../mathlib/sqrt.c                        0x00000000   Number         0  sqrt_x.o ABSOLUTE
    RTE/Device/STM32F407VGTx/startup_stm32f407xx.s 0x00000000   Number         0  startup_stm32f407xx.o ABSOLUTE
    RTE/Device/STM32F407VGTx/system_stm32f4xx.c 0x00000000   Number         0  system_stm32f4xx.o ABSOLUTE
    RTE\Device\STM32F407VGTx\system_stm32f4xx.c 0x00000000   Number         0  system_stm32f4xx.o ABSOLUTE
    dc.s                                     0x00000000   Number         0  dc.o ABSOLUTE
    src\I2C\I2C.cpp                          0x00000000   Number         0  i2c.o ABSOLUTE
    src\IMU_SPI\IMU_SPI.cpp                  0x00000000   Number         0  imu_spi.o ABSOLUTE
    src\IMU_USART\IMU_USART.cpp              0x00000000   Number         0  imu_usart.o ABSOLUTE
    src\IR_Locator\IR_Locator.cpp            0x00000000   Number         0  ir_locator.o ABSOLUTE
    src\Motor\Motor.cpp                      0x00000000   Number         0  motor.o ABSOLUTE
    src\OpenMV\OpenMV.cpp                    0x00000000   Number         0  openmv.o ABSOLUTE
    src\Pin\Pin.cpp                          0x00000000   Number         0  pin.o ABSOLUTE
    src\SPI_1\SPI_1.cpp                      0x00000000   Number         0  spi_1.o ABSOLUTE
    src\SPI_DOT\SPI_DOT.cpp                  0x00000000   Number         0  spi_dot.o ABSOLUTE
    src\TSOP\TSOP.cpp                        0x00000000   Number         0  tsop.o ABSOLUTE
    src\\I2C\\I2C.cpp                        0x00000000   Number         0  i2c.o ABSOLUTE
    src\\IMU_SPI\\IMU_SPI.cpp                0x00000000   Number         0  imu_spi.o ABSOLUTE
    src\\IMU_USART\\IMU_USART.cpp            0x00000000   Number         0  imu_usart.o ABSOLUTE
    src\\IR_Locator\\IR_Locator.cpp          0x00000000   Number         0  ir_locator.o ABSOLUTE
    src\\Motor\\Motor.cpp                    0x00000000   Number         0  motor.o ABSOLUTE
    src\\OpenMV\\OpenMV.cpp                  0x00000000   Number         0  openmv.o ABSOLUTE
    src\\Pin\\Pin.cpp                        0x00000000   Number         0  pin.o ABSOLUTE
    src\\SPI_1\\SPI_1.cpp                    0x00000000   Number         0  spi_1.o ABSOLUTE
    src\\SPI_DOT\\SPI_DOT.cpp                0x00000000   Number         0  spi_dot.o ABSOLUTE
    src\\TSOP\\TSOP.cpp                      0x00000000   Number         0  tsop.o ABSOLUTE
    src\\adc\\adc.cpp                        0x00000000   Number         0  adc.o ABSOLUTE
    src\\dma\\dma.cpp                        0x00000000   Number         0  dma.o ABSOLUTE
    src\\external\\retarget.cpp              0x00000000   Number         0  retarget.o ABSOLUTE
    src\\main\\main.cpp                      0x00000000   Number         0  main.o ABSOLUTE
    src\\mpu9250\\mpu9250_spi.cpp            0x00000000   Number         0  mpu9250_spi.o ABSOLUTE
    src\\omniplatform\\omniplatform.cpp      0x00000000   Number         0  omniplatform.o ABSOLUTE
    src\\spl4\\src\\misc.c                   0x00000000   Number         0  misc.o ABSOLUTE
    src\\spl4\\src\\stm32f4xx_adc.c          0x00000000   Number         0  stm32f4xx_adc.o ABSOLUTE
    src\\spl4\\src\\stm32f4xx_crc.c          0x00000000   Number         0  stm32f4xx_crc.o ABSOLUTE
    src\\spl4\\src\\stm32f4xx_dac.c          0x00000000   Number         0  stm32f4xx_dac.o ABSOLUTE
    src\\spl4\\src\\stm32f4xx_dma.c          0x00000000   Number         0  stm32f4xx_dma.o ABSOLUTE
    src\\spl4\\src\\stm32f4xx_gpio.c         0x00000000   Number         0  stm32f4xx_gpio.o ABSOLUTE
    src\\spl4\\src\\stm32f4xx_i2c.c          0x00000000   Number         0  stm32f4xx_i2c.o ABSOLUTE
    src\\spl4\\src\\stm32f4xx_rcc.c          0x00000000   Number         0  stm32f4xx_rcc.o ABSOLUTE
    src\\spl4\\src\\stm32f4xx_spi.c          0x00000000   Number         0  stm32f4xx_spi.o ABSOLUTE
    src\\spl4\\src\\stm32f4xx_tim.c          0x00000000   Number         0  stm32f4xx_tim.o ABSOLUTE
    src\\spl4\\src\\stm32f4xx_usart.c        0x00000000   Number         0  stm32f4xx_usart.o ABSOLUTE
    src\\time_service\\time_service.cpp      0x00000000   Number         0  time_service.o ABSOLUTE
    src\\usart1\\usart1.cpp                  0x00000000   Number         0  usart1.o ABSOLUTE
    src\\usart2\\usart2.cpp                  0x00000000   Number         0  usart2.o ABSOLUTE
    src\\usart3\\usart3.cpp                  0x00000000   Number         0  usart3.o ABSOLUTE
    src\\usart6\\usart6.cpp                  0x00000000   Number         0  usart6.o ABSOLUTE
    src\adc\adc.cpp                          0x00000000   Number         0  adc.o ABSOLUTE
    src\dma\dma.cpp                          0x00000000   Number         0  dma.o ABSOLUTE
    src\external\retarget.cpp                0x00000000   Number         0  retarget.o ABSOLUTE
    src\main\main.cpp                        0x00000000   Number         0  main.o ABSOLUTE
    src\mpu9250\mpu9250_spi.cpp              0x00000000   Number         0  mpu9250_spi.o ABSOLUTE
    src\omniplatform\omniplatform.cpp        0x00000000   Number         0  omniplatform.o ABSOLUTE
    src\spl4\src\misc.c                      0x00000000   Number         0  misc.o ABSOLUTE
    src\spl4\src\stm32f4xx_adc.c             0x00000000   Number         0  stm32f4xx_adc.o ABSOLUTE
    src\spl4\src\stm32f4xx_crc.c             0x00000000   Number         0  stm32f4xx_crc.o ABSOLUTE
    src\spl4\src\stm32f4xx_dac.c             0x00000000   Number         0  stm32f4xx_dac.o ABSOLUTE
    src\spl4\src\stm32f4xx_dma.c             0x00000000   Number         0  stm32f4xx_dma.o ABSOLUTE
    src\spl4\src\stm32f4xx_gpio.c            0x00000000   Number         0  stm32f4xx_gpio.o ABSOLUTE
    src\spl4\src\stm32f4xx_i2c.c             0x00000000   Number         0  stm32f4xx_i2c.o ABSOLUTE
    src\spl4\src\stm32f4xx_rcc.c             0x00000000   Number         0  stm32f4xx_rcc.o ABSOLUTE
    src\spl4\src\stm32f4xx_spi.c             0x00000000   Number         0  stm32f4xx_spi.o ABSOLUTE
    src\spl4\src\stm32f4xx_tim.c             0x00000000   Number         0  stm32f4xx_tim.o ABSOLUTE
    src\spl4\src\stm32f4xx_usart.c           0x00000000   Number         0  stm32f4xx_usart.o ABSOLUTE
    src\time_service\time_service.cpp        0x00000000   Number         0  time_service.o ABSOLUTE
    src\usart1\usart1.cpp                    0x00000000   Number         0  usart1.o ABSOLUTE
    src\usart2\usart2.cpp                    0x00000000   Number         0  usart2.o ABSOLUTE
    src\usart3\usart3.cpp                    0x00000000   Number         0  usart3.o ABSOLUTE
    src\usart6\usart6.cpp                    0x00000000   Number         0  usart6.o ABSOLUTE
    RESET                                    0x08000000   Section      392  startup_stm32f407xx.o(RESET)
    !!!main                                  0x08000188   Section        8  __main.o(!!!main)
    !!!scatter                               0x08000190   Section       52  __scatter.o(!!!scatter)
    !!handler_copy                           0x080001c4   Section       26  __scatter_copy.o(!!handler_copy)
    !!handler_zi                             0x080001e0   Section       28  __scatter_zi.o(!!handler_zi)
    .ARM.Collect$$libinit$$00000000          0x080001fc   Section        2  libinit.o(.ARM.Collect$$libinit$$00000000)
    .ARM.Collect$$libinit$$00000001          0x080001fe   Section        4  libinit2.o(.ARM.Collect$$libinit$$00000001)
    .ARM.Collect$$libinit$$00000004          0x08000202   Section        0  libinit2.o(.ARM.Collect$$libinit$$00000004)
    .ARM.Collect$$libinit$$0000000A          0x08000202   Section        0  libinit2.o(.ARM.Collect$$libinit$$0000000A)
    .ARM.Collect$$libinit$$0000000C          0x08000202   Section        0  libinit2.o(.ARM.Collect$$libinit$$0000000C)
    .ARM.Collect$$libinit$$0000000E          0x08000202   Section        0  libinit2.o(.ARM.Collect$$libinit$$0000000E)
    .ARM.Collect$$libinit$$00000011          0x08000202   Section        0  libinit2.o(.ARM.Collect$$libinit$$00000011)
    .ARM.Collect$$libinit$$00000013          0x08000202   Section        0  libinit2.o(.ARM.Collect$$libinit$$00000013)
    .ARM.Collect$$libinit$$00000015          0x08000202   Section        0  libinit2.o(.ARM.Collect$$libinit$$00000015)
    .ARM.Collect$$libinit$$00000017          0x08000202   Section        0  libinit2.o(.ARM.Collect$$libinit$$00000017)
    .ARM.Collect$$libinit$$00000019          0x08000202   Section        0  libinit2.o(.ARM.Collect$$libinit$$00000019)
    .ARM.Collect$$libinit$$0000001B          0x08000202   Section        0  libinit2.o(.ARM.Collect$$libinit$$0000001B)
    .ARM.Collect$$libinit$$0000001D          0x08000202   Section        0  libinit2.o(.ARM.Collect$$libinit$$0000001D)
    .ARM.Collect$$libinit$$0000001F          0x08000202   Section        0  libinit2.o(.ARM.Collect$$libinit$$0000001F)
    .ARM.Collect$$libinit$$00000021          0x08000202   Section        0  libinit2.o(.ARM.Collect$$libinit$$00000021)
    .ARM.Collect$$libinit$$00000023          0x08000202   Section        0  libinit2.o(.ARM.Collect$$libinit$$00000023)
    .ARM.Collect$$libinit$$00000025          0x08000202   Section        0  libinit2.o(.ARM.Collect$$libinit$$00000025)
    .ARM.Collect$$libinit$$0000002C          0x08000202   Section        0  libinit2.o(.ARM.Collect$$libinit$$0000002C)
    .ARM.Collect$$libinit$$0000002E          0x08000202   Section        0  libinit2.o(.ARM.Collect$$libinit$$0000002E)
    .ARM.Collect$$libinit$$00000030          0x08000202   Section        0  libinit2.o(.ARM.Collect$$libinit$$00000030)
    .ARM.Collect$$libinit$$00000032          0x08000202   Section        0  libinit2.o(.ARM.Collect$$libinit$$00000032)
    .ARM.Collect$$libinit$$00000033          0x08000202   Section        2  libinit2.o(.ARM.Collect$$libinit$$00000033)
    .ARM.Collect$$libshutdown$$00000000      0x08000204   Section        2  libshutdown.o(.ARM.Collect$$libshutdown$$00000000)
    .ARM.Collect$$libshutdown$$00000002      0x08000206   Section        0  libshutdown2.o(.ARM.Collect$$libshutdown$$00000002)
    .ARM.Collect$$libshutdown$$00000004      0x08000206   Section        0  libshutdown2.o(.ARM.Collect$$libshutdown$$00000004)
    .ARM.Collect$$libshutdown$$00000006      0x08000206   Section        0  libshutdown2.o(.ARM.Collect$$libshutdown$$00000006)
    .ARM.Collect$$libshutdown$$00000009      0x08000206   Section        0  libshutdown2.o(.ARM.Collect$$libshutdown$$00000009)
    .ARM.Collect$$libshutdown$$0000000C      0x08000206   Section        0  libshutdown2.o(.ARM.Collect$$libshutdown$$0000000C)
    .ARM.Collect$$libshutdown$$0000000E      0x08000206   Section        0  libshutdown2.o(.ARM.Collect$$libshutdown$$0000000E)
    .ARM.Collect$$libshutdown$$00000011      0x08000206   Section        0  libshutdown2.o(.ARM.Collect$$libshutdown$$00000011)
    .ARM.Collect$$libshutdown$$00000012      0x08000206   Section        2  libshutdown2.o(.ARM.Collect$$libshutdown$$00000012)
    .ARM.Collect$$rtentry$$00000000          0x08000208   Section        0  __rtentry.o(.ARM.Collect$$rtentry$$00000000)
    .ARM.Collect$$rtentry$$00000002          0x08000208   Section        0  __rtentry2.o(.ARM.Collect$$rtentry$$00000002)
    .ARM.Collect$$rtentry$$00000004          0x08000208   Section        6  __rtentry4.o(.ARM.Collect$$rtentry$$00000004)
    .ARM.Collect$$rtentry$$00000009          0x0800020e   Section        0  __rtentry2.o(.ARM.Collect$$rtentry$$00000009)
    .ARM.Collect$$rtentry$$0000000A          0x0800020e   Section        4  __rtentry2.o(.ARM.Collect$$rtentry$$0000000A)
    .ARM.Collect$$rtentry$$0000000C          0x08000212   Section        0  __rtentry2.o(.ARM.Collect$$rtentry$$0000000C)
    .ARM.Collect$$rtentry$$0000000D          0x08000212   Section        8  __rtentry2.o(.ARM.Collect$$rtentry$$0000000D)
    .ARM.Collect$$rtexit$$00000000           0x0800021a   Section        2  rtexit.o(.ARM.Collect$$rtexit$$00000000)
    .ARM.Collect$$rtexit$$00000002           0x0800021c   Section        0  rtexit2.o(.ARM.Collect$$rtexit$$00000002)
    .ARM.Collect$$rtexit$$00000003           0x0800021c   Section        4  rtexit2.o(.ARM.Collect$$rtexit$$00000003)
    .ARM.Collect$$rtexit$$00000004           0x08000220   Section        6  rtexit2.o(.ARM.Collect$$rtexit$$00000004)
    .text                                    0x08000228   Section       64  startup_stm32f407xx.o(.text)
    $v0                                      0x08000228   Number         0  startup_stm32f407xx.o(.text)
    .text                                    0x08000268   Section        2  use_no_semi.o(.text)
    .text                                    0x0800026a   Section      100  rt_memcpy_w.o(.text)
    .text                                    0x080002ce   Section        0  heapauxi.o(.text)
    .text                                    0x080002d4   Section        0  _rserrno.o(.text)
    .text                                    0x080002ec   Section        8  rt_errno_addr_intlibspace.o(.text)
    .text                                    0x080002f4   Section        8  libspace.o(.text)
    .text                                    0x080002fc   Section       74  sys_stackheap_outer.o(.text)
    .text                                    0x08000346   Section        0  exit.o(.text)
    i.GPIO_Init                              0x08000358   Section        0  stm32f4xx_gpio.o(i.GPIO_Init)
    i.GPIO_PinAFConfig                       0x080003e8   Section        0  stm32f4xx_gpio.o(i.GPIO_PinAFConfig)
    i.GPIO_ResetBits                         0x0800042e   Section        0  stm32f4xx_gpio.o(i.GPIO_ResetBits)
    i.GPIO_SetBits                           0x08000432   Section        0  stm32f4xx_gpio.o(i.GPIO_SetBits)
    i.RCC_AHB1PeriphClockCmd                 0x08000438   Section        0  stm32f4xx_rcc.o(i.RCC_AHB1PeriphClockCmd)
    i.RCC_APB1PeriphClockCmd                 0x08000458   Section        0  stm32f4xx_rcc.o(i.RCC_APB1PeriphClockCmd)
    i.RCC_APB2PeriphClockCmd                 0x08000478   Section        0  stm32f4xx_rcc.o(i.RCC_APB2PeriphClockCmd)
    i.RCC_GetClocksFreq                      0x08000498   Section        0  stm32f4xx_rcc.o(i.RCC_GetClocksFreq)
    i.SPI1_IRQHandler                        0x08000580   Section        0  spi_1.o(i.SPI1_IRQHandler)
    i.SPI_I2S_GetFlagStatus                  0x080005ec   Section        0  stm32f4xx_spi.o(i.SPI_I2S_GetFlagStatus)
    i.SetSysClock                            0x08000600   Section        0  system_stm32f4xx.o(i.SetSysClock)
    SetSysClock                              0x08000601   Thumb Code   262  system_stm32f4xx.o(i.SetSysClock)
    i.SysTick_Handler                        0x08000710   Section        0  time_service.o(i.SysTick_Handler)
    i.SystemInit                             0x08000728   Section        0  system_stm32f4xx.o(i.SystemInit)
    i.TIM_BDTRConfig                         0x08000790   Section        0  stm32f4xx_tim.o(i.TIM_BDTRConfig)
    i.TIM_Cmd                                0x080007b0   Section        0  stm32f4xx_tim.o(i.TIM_Cmd)
    i.TIM_CtrlPWMOutputs                     0x080007c8   Section        0  stm32f4xx_tim.o(i.TIM_CtrlPWMOutputs)
    i.TIM_OC1Init                            0x080007e8   Section        0  stm32f4xx_tim.o(i.TIM_OC1Init)
    i.TIM_OC2Init                            0x08000864   Section        0  stm32f4xx_tim.o(i.TIM_OC2Init)
    i.TIM_OC3Init                            0x08000908   Section        0  stm32f4xx_tim.o(i.TIM_OC3Init)
    i.TIM_OC4Init                            0x080009a8   Section        0  stm32f4xx_tim.o(i.TIM_OC4Init)
    i.TIM_SetCompare1                        0x08000a20   Section        0  stm32f4xx_tim.o(i.TIM_SetCompare1)
    i.TIM_SetCompare2                        0x08000a24   Section        0  stm32f4xx_tim.o(i.TIM_SetCompare2)
    i.TIM_SetCompare3                        0x08000a28   Section        0  stm32f4xx_tim.o(i.TIM_SetCompare3)
    i.TIM_SetCompare4                        0x08000a2c   Section        0  stm32f4xx_tim.o(i.TIM_SetCompare4)
    i.TIM_TimeBaseInit                       0x08000a30   Section        0  stm32f4xx_tim.o(i.TIM_TimeBaseInit)
    i.USART1_IRQHandler                      0x08000ab4   Section        0  usart1.o(i.USART1_IRQHandler)
    i.USART2_IRQHandler                      0x08000b54   Section        0  usart2.o(i.USART2_IRQHandler)
    i.USART3_IRQHandler                      0x08000bfc   Section        0  usart3.o(i.USART3_IRQHandler)
    i.USART6_IRQHandler                      0x08000ca4   Section        0  usart6.o(i.USART6_IRQHandler)
    i.USART_ClearITPendingBit                0x08000d4c   Section        0  stm32f4xx_usart.o(i.USART_ClearITPendingBit)
    i.USART_Cmd                              0x08000d6a   Section        0  stm32f4xx_usart.o(i.USART_Cmd)
    i.USART_ITConfig                         0x08000d82   Section        0  stm32f4xx_usart.o(i.USART_ITConfig)
    i.USART_Init                             0x08000dcc   Section        0  stm32f4xx_usart.o(i.USART_Init)
    i.USART_StructInit                       0x08000ea0   Section        0  stm32f4xx_usart.o(i.USART_StructInit)
    i._ZN12omniplatform4moveEfffff           0x08000eb8   Section        0  omniplatform.o(i._ZN12omniplatform4moveEfffff)
    i._ZN12omniplatformC1ER5MotorS1_S1_S1_   0x080010c4   Section        0  omniplatform.o(i._ZN12omniplatformC1ER5MotorS1_S1_S1_)
    i._ZN12time_service4initEv               0x08001108   Section        0  time_service.o(i._ZN12time_service4initEv)
    i._ZN12time_service5delayEj              0x08001168   Section        0  time_service.o(i._ZN12time_service5delayEj)
    i._ZN12time_service6millisEv             0x0800118c   Section        0  time_service.o(i._ZN12time_service6millisEv)
    i._ZN12time_service9startTimeEv          0x08001198   Section        0  time_service.o(i._ZN12time_service9startTimeEv)
    i._ZN3I2C12generateStopEv                0x080011aa   Section        0  i2c.o(i._ZN3I2C12generateStopEv)
    i._ZN3I2C13generateStartEv               0x080011e2   Section        0  i2c.o(i._ZN3I2C13generateStartEv)
    i._ZN3I2C4readEv                         0x0800122c   Section        0  i2c.o(i._ZN3I2C4readEv)
    i._ZN3I2C4sendEh                         0x0800127a   Section        0  i2c.o(i._ZN3I2C4sendEh)
    i._ZN3I2C5delayEv                        0x080012b2   Section        0  i2c.o(i._ZN3I2C5delayEv)
    i._ZN3I2C6sclLowEv                       0x080012ce   Section        0  i2c.o(i._ZN3I2C6sclLowEv)
    i._ZN3I2C6sdaLowEv                       0x080012da   Section        0  i2c.o(i._ZN3I2C6sdaLowEv)
    i._ZN3I2C7readAchEv                      0x080012e8   Section        0  i2c.o(i._ZN3I2C7readAchEv)
    i._ZN3I2C7sclHighEv                      0x0800132c   Section        0  i2c.o(i._ZN3I2C7sclHighEv)
    i._ZN3I2C7sdaHighEv                      0x08001338   Section        0  i2c.o(i._ZN3I2C7sdaHighEv)
    i._ZN3I2C7sdaReadEv                      0x08001346   Section        0  i2c.o(i._ZN3I2C7sdaReadEv)
    i._ZN3I2C8writeBitEb                     0x08001368   Section        0  i2c.o(i._ZN3I2C8writeBitEb)
    i._ZN3I2CC1ER3PinS1_                     0x080013a4   Section        0  i2c.o(i._ZN3I2CC1ER3PinS1_)
    i._ZN3Pin12RCC_ClockCmdEv                0x080013d4   Section        0  pin.o(i._ZN3Pin12RCC_ClockCmdEv)
    i._ZN3Pin12setTimParamsEt                0x08001508   Section        0  pin.o(i._ZN3Pin12setTimParamsEt)
    i._ZN3Pin13setAFforUSARTEt               0x080015fc   Section        0  pin.o(i._ZN3Pin13setAFforUSARTEt)
    i._ZN3Pin3pwmEj                          0x08001624   Section        0  pin.o(i._ZN3Pin3pwmEj)
    i._ZN3Pin6getPinEv                       0x08001668   Section        0  pin.o(i._ZN3Pin6getPinEv)
    i._ZN3Pin6setBitEv                       0x0800166e   Section        0  pin.o(i._ZN3Pin6setBitEv)
    i._ZN3Pin6setPinEh                       0x0800167e   Section        0  pin.o(i._ZN3Pin6setPinEh)
    i._ZN3Pin7pwmInitEsjh                    0x0800174c   Section        0  pin.o(i._ZN3Pin7pwmInitEsjh)
    i._ZN3Pin7setGPIOEc                      0x08001854   Section        0  pin.o(i._ZN3Pin7setGPIOEc)
    i._ZN3Pin8getGPIOxEv                     0x080018c8   Section        0  pin.o(i._ZN3Pin8getGPIOxEv)
    i._ZN3Pin8resetBitEv                     0x080018ce   Section        0  pin.o(i._ZN3Pin8resetBitEv)
    i._ZN3Pin9getPeriodEv                    0x080018de   Section        0  pin.o(i._ZN3Pin9getPeriodEv)
    i._ZN3PinC1Echt                          0x080018e8   Section        0  pin.o(i._ZN3PinC1Echt)
    i._ZN5Motor11getMaxSpeedEv               0x08001b1c   Section        0  motor.o(i._ZN5Motor11getMaxSpeedEv)
    i._ZN5Motor2goEs                         0x08001b28   Section        0  motor.o(i._ZN5Motor2goEs)
    i._ZN5MotorC1ER3PinS1_                   0x08001b94   Section        0  motor.o(i._ZN5MotorC1ER3PinS1_)
    i._ZN5uart110usart1InitEjfh              0x08001bb8   Section        0  usart1.o(i._ZN5uart110usart1InitEjfh)
    i._ZN5uart14readEv                       0x08001d20   Section        0  usart1.o(i._ZN5uart14readEv)
    i._ZN5uart19availableEv                  0x08001d68   Section        0  usart1.o(i._ZN5uart19availableEv)
    i._ZN5uart210usart2InitEjfh              0x08001d9c   Section        0  usart2.o(i._ZN5uart210usart2InitEjfh)
    i._ZN5uart24readEv                       0x08001f04   Section        0  usart2.o(i._ZN5uart24readEv)
    i._ZN5uart29availableEv                  0x08001f4c   Section        0  usart2.o(i._ZN5uart29availableEv)
    i._ZN5uart310usart3InitEjfh              0x08001f80   Section        0  usart3.o(i._ZN5uart310usart3InitEjfh)
    i._ZN5uart34readEv                       0x080020e8   Section        0  usart3.o(i._ZN5uart34readEv)
    i._ZN5uart39availableEv                  0x08002130   Section        0  usart3.o(i._ZN5uart39availableEv)
    i._ZN5uart610usart6InitEjfh              0x08002164   Section        0  usart6.o(i._ZN5uart610usart6InitEjfh)
    i._ZN5uart64readEv                       0x080022cc   Section        0  usart6.o(i._ZN5uart64readEv)
    i._ZN5uart69availableEv                  0x08002314   Section        0  usart6.o(i._ZN5uart69availableEv)
    i._ZN8gyro_imu11getRotationEv            0x08002348   Section        0  imu_usart.o(i._ZN8gyro_imu11getRotationEv)
    i._ZN8gyro_imu12setZeroAngleEv           0x08002350   Section        0  imu_usart.o(i._ZN8gyro_imu12setZeroAngleEv)
    i._ZN8gyro_imu14getMaxRotationEv         0x08002356   Section        0  imu_usart.o(i._ZN8gyro_imu14getMaxRotationEv)
    i._ZN8gyro_imu15getCurrentAngleEv        0x0800235e   Section        0  imu_usart.o(i._ZN8gyro_imu15getCurrentAngleEv)
    i._ZN8gyro_imu20setRotationForTargetEv   0x08002366   Section        0  imu_usart.o(i._ZN8gyro_imu20setRotationForTargetEv)
    i._ZN8gyro_imu4readEv                    0x080023a8   Section        0  imu_usart.o(i._ZN8gyro_imu4readEv)
    i._ZN8gyro_imu6adductEs                  0x080024b8   Section        0  imu_usart.o(i._ZN8gyro_imu6adductEs)
    i._ZN8gyro_imu9initUSARTEh               0x080024d8   Section        0  imu_usart.o(i._ZN8gyro_imu9initUSARTEh)
    i._ZN8gyro_imu9setTargetEs               0x0800252e   Section        0  imu_usart.o(i._ZN8gyro_imu9setTargetEs)
    i._ZN8gyro_imuC1ER3PinS1_h               0x08002532   Section        0  imu_usart.o(i._ZN8gyro_imuC1ER3PinS1_h)
    i._ZN9IRLocator11angleOffsetEff          0x08002558   Section        0  ir_locator.o(i._ZN9IRLocator11angleOffsetEff)
    i._ZN9IRLocator11convertDistEd           0x080026e0   Section        0  ir_locator.o(i._ZN9IRLocator11convertDistEd)
    i._ZN9IRLocator6adductEs                 0x0800278c   Section        0  ir_locator.o(i._ZN9IRLocator6adductEs)
    i._ZN9IRLocator7getDistEv                0x080027ac   Section        0  ir_locator.o(i._ZN9IRLocator7getDistEv)
    i._ZN9IRLocator8getAngleEv               0x080027b4   Section        0  ir_locator.o(i._ZN9IRLocator8getAngleEv)
    i._ZN9IRLocator8getValueEh               0x0800281a   Section        0  ir_locator.o(i._ZN9IRLocator8getValueEh)
    i._ZN9IRLocatorC1ER3I2Cj                 0x08002884   Section        0  ir_locator.o(i._ZN9IRLocatorC1ER3I2Cj)
    i._ZSt3sinf                              0x0800289e   Section        0  omniplatform.o(i._ZSt3sinf)
    i.__ARM_fpclassify                       0x080028b6   Section        0  fpclassify.o(i.__ARM_fpclassify)
    i.__ARM_fpclassifyf                      0x080028e6   Section        0  fpclassifyf.o(i.__ARM_fpclassifyf)
    i.__hardfp_pow                           0x08002910   Section        0  pow.o(i.__hardfp_pow)
    i.__hardfp_sinf                          0x08003560   Section        0  sinf.o(i.__hardfp_sinf)
    i.__kernel_poly                          0x080036f0   Section        0  poly.o(i.__kernel_poly)
    i.__mathlib_dbl_divzero                  0x080037e8   Section        0  dunder.o(i.__mathlib_dbl_divzero)
    i.__mathlib_dbl_infnan2                  0x08003818   Section        0  dunder.o(i.__mathlib_dbl_infnan2)
    i.__mathlib_dbl_invalid                  0x08003830   Section        0  dunder.o(i.__mathlib_dbl_invalid)
    i.__mathlib_dbl_overflow                 0x08003850   Section        0  dunder.o(i.__mathlib_dbl_overflow)
    i.__mathlib_dbl_underflow                0x08003870   Section        0  dunder.o(i.__mathlib_dbl_underflow)
    i.__mathlib_flt_infnan                   0x08003890   Section        0  funder.o(i.__mathlib_flt_infnan)
    i.__mathlib_flt_invalid                  0x08003898   Section        0  funder.o(i.__mathlib_flt_invalid)
    i.__mathlib_flt_underflow                0x080038a8   Section        0  funder.o(i.__mathlib_flt_underflow)
    i.__mathlib_rredf2                       0x080038b8   Section        0  rredf.o(i.__mathlib_rredf2)
    i._sys_exit                              0x08003a0c   Section        0  retarget.o(i._sys_exit)
    i.fabs                                   0x08003a10   Section        0  fabs.o(i.fabs)
    i.main                                   0x08003a28   Section        0  main.o(i.main)
    i.sqrt                                   0x08003e80   Section        0  sqrt.o(i.sqrt)
    x$fpl$basic                              0x08003eee   Section       24  basic.o(x$fpl$basic)
    $v0                                      0x08003eee   Number         0  basic.o(x$fpl$basic)
    x$fpl$d2f                                0x08003f08   Section       98  d2f.o(x$fpl$d2f)
    $v0                                      0x08003f08   Number         0  d2f.o(x$fpl$d2f)
    x$fpl$dadd                               0x08003f6c   Section      336  daddsub_clz.o(x$fpl$dadd)
    $v0                                      0x08003f6c   Number         0  daddsub_clz.o(x$fpl$dadd)
    _dadd1                                   0x08003f7d   Thumb Code     0  daddsub_clz.o(x$fpl$dadd)
    x$fpl$dcheck1                            0x080040bc   Section       16  dcheck1.o(x$fpl$dcheck1)
    $v0                                      0x080040bc   Number         0  dcheck1.o(x$fpl$dcheck1)
    x$fpl$dcmpinf                            0x080040cc   Section       24  dcmpi.o(x$fpl$dcmpinf)
    $v0                                      0x080040cc   Number         0  dcmpi.o(x$fpl$dcmpinf)
    x$fpl$ddiv                               0x080040e4   Section      688  ddiv.o(x$fpl$ddiv)
    $v0                                      0x080040e4   Number         0  ddiv.o(x$fpl$ddiv)
    ddiv_entry                               0x080040eb   Thumb Code     0  ddiv.o(x$fpl$ddiv)
    x$fpl$deqf                               0x08004394   Section      120  deqf.o(x$fpl$deqf)
    $v0                                      0x08004394   Number         0  deqf.o(x$fpl$deqf)
    x$fpl$dflt                               0x0800440c   Section       46  dflt_clz.o(x$fpl$dflt)
    $v0                                      0x0800440c   Number         0  dflt_clz.o(x$fpl$dflt)
    x$fpl$dleqf                              0x0800443c   Section      120  dleqf.o(x$fpl$dleqf)
    $v0                                      0x0800443c   Number         0  dleqf.o(x$fpl$dleqf)
    x$fpl$dmul                               0x080044b4   Section      340  dmul.o(x$fpl$dmul)
    $v0                                      0x080044b4   Number         0  dmul.o(x$fpl$dmul)
    x$fpl$dnaninf                            0x08004608   Section      156  dnaninf.o(x$fpl$dnaninf)
    $v0                                      0x08004608   Number         0  dnaninf.o(x$fpl$dnaninf)
    x$fpl$dretinf                            0x080046a4   Section       12  dretinf.o(x$fpl$dretinf)
    $v0                                      0x080046a4   Number         0  dretinf.o(x$fpl$dretinf)
    x$fpl$drleqf                             0x080046b0   Section      108  drleqf.o(x$fpl$drleqf)
    $v0                                      0x080046b0   Number         0  drleqf.o(x$fpl$drleqf)
    x$fpl$drsb                               0x0800471c   Section       22  daddsub_clz.o(x$fpl$drsb)
    $v0                                      0x0800471c   Number         0  daddsub_clz.o(x$fpl$drsb)
    x$fpl$dsqrt                              0x08004734   Section      408  dsqrt_umaal.o(x$fpl$dsqrt)
    $v0                                      0x08004734   Number         0  dsqrt_umaal.o(x$fpl$dsqrt)
    x$fpl$dsub                               0x080048cc   Section      468  daddsub_clz.o(x$fpl$dsub)
    $v0                                      0x080048cc   Number         0  daddsub_clz.o(x$fpl$dsub)
    _dsub1                                   0x080048dd   Thumb Code     0  daddsub_clz.o(x$fpl$dsub)
    x$fpl$f2d                                0x08004aa0   Section       86  f2d.o(x$fpl$f2d)
    $v0                                      0x08004aa0   Number         0  f2d.o(x$fpl$f2d)
    x$fpl$fnaninf                            0x08004af6   Section      140  fnaninf.o(x$fpl$fnaninf)
    $v0                                      0x08004af6   Number         0  fnaninf.o(x$fpl$fnaninf)
    x$fpl$fpinit                             0x08004b82   Section       10  fpinit.o(x$fpl$fpinit)
    $v0                                      0x08004b82   Number         0  fpinit.o(x$fpl$fpinit)
    x$fpl$fretinf                            0x08004b8c   Section       10  fretinf.o(x$fpl$fretinf)
    $v0                                      0x08004b8c   Number         0  fretinf.o(x$fpl$fretinf)
    x$fpl$retnan                             0x08004b96   Section      100  retnan.o(x$fpl$retnan)
    $v0                                      0x08004b96   Number         0  retnan.o(x$fpl$retnan)
    x$fpl$scalbn                             0x08004bfa   Section       92  scalbn.o(x$fpl$scalbn)
    $v0                                      0x08004bfa   Number         0  scalbn.o(x$fpl$scalbn)
    x$fpl$trapveneer                         0x08004c56   Section       48  trapv.o(x$fpl$trapveneer)
    $v0                                      0x08004c56   Number         0  trapv.o(x$fpl$trapveneer)
    .constdata                               0x08004c86   Section       61  retarget.o(.constdata)
    x$fpl$usenofp                            0x08004c86   Section        0  usenofp.o(x$fpl$usenofp)
    __tagsym$$used                           0x08004c86   Number         0  retarget.o(.constdata)
    date_time_commit                         0x08004c86   Data          61  retarget.o(.constdata)
    .constdata                               0x08004cc8   Section      136  pow.o(.constdata)
    bp                                       0x08004cc8   Data          16  pow.o(.constdata)
    dp_h                                     0x08004cd8   Data          16  pow.o(.constdata)
    dp_l                                     0x08004ce8   Data          16  pow.o(.constdata)
    L                                        0x08004cf8   Data          48  pow.o(.constdata)
    P                                        0x08004d28   Data          40  pow.o(.constdata)
    .constdata                               0x08004d50   Section        8  qnan.o(.constdata)
    .constdata                               0x08004d58   Section       32  rredf.o(.constdata)
    twooverpi                                0x08004d58   Data          32  rredf.o(.constdata)
    .data                                    0x20000000   Section        8  time_service.o(.data)
    .data                                    0x20000008   Section       22  spi_1.o(.data)
    .data                                    0x2000001e   Section       25  usart1.o(.data)
    .data                                    0x20000038   Section       25  usart2.o(.data)
    .data                                    0x20000052   Section       25  usart3.o(.data)
    .data                                    0x2000006c   Section       25  usart6.o(.data)
    .data                                    0x20000085   Section       16  stm32f4xx_rcc.o(.data)
    APBAHBPrescTable                         0x20000085   Data          16  stm32f4xx_rcc.o(.data)
    .bss                                     0x20000098   Section       32  spi_1.o(.bss)
    .bss                                     0x200000b8   Section       96  libspace.o(.bss)
    HEAP                                     0x20000118   Section     3840  startup_stm32f407xx.o(HEAP)
    Heap_Mem                                 0x20000118   Data        3840  startup_stm32f407xx.o(HEAP)
    STACK                                    0x20001018   Section     4080  startup_stm32f407xx.o(STACK)
    Stack_Mem                                0x20001018   Data        4080  startup_stm32f407xx.o(STACK)
    __initial_sp                             0x20002008   Data           0  startup_stm32f407xx.o(STACK)

    Global Symbols

    Symbol Name                              Value     Ov Type        Size  Object(Section)

    BuildAttributes$$THM_ISAv4$E$P$D$K$B$S$7EM$VFPi3$EXTD16$VFPS$VFMA$PE$A:L22UL41UL21$X:L11$S22US41US21$IEEE1$IW$USESV6$~STKCKD$USESV7$~SHL$OTIME$ROPI$IEEEX$EBA8$UX$STANDARDLIB$REQ8$PRES8$EABIv2 0x00000000   Number         0  anon$$obj.o ABSOLUTE
    __ARM_use_no_argv                        0x00000000   Number         0  main.o ABSOLUTE
    __ARM_exceptions_init                     - Undefined Weak Reference
    __alloca_initialize                       - Undefined Weak Reference
    __arm_fini_                               - Undefined Weak Reference
    __arm_preinit_                            - Undefined Weak Reference
    __cpp_initialize__aeabi_                  - Undefined Weak Reference
    __cxa_finalize                            - Undefined Weak Reference
    __rt_locale                               - Undefined Weak Reference
    __sigvec_lookup                           - Undefined Weak Reference
    _atexit_init                              - Undefined Weak Reference
    _call_atexit_fns                          - Undefined Weak Reference
    _clock_init                               - Undefined Weak Reference
    _fp_trap_init                             - Undefined Weak Reference
    _fp_trap_shutdown                         - Undefined Weak Reference
    _get_lc_collate                           - Undefined Weak Reference
    _get_lc_ctype                             - Undefined Weak Reference
    _get_lc_monetary                          - Undefined Weak Reference
    _get_lc_numeric                           - Undefined Weak Reference
    _get_lc_time                              - Undefined Weak Reference
    _getenv_init                              - Undefined Weak Reference
    _handle_redirection                       - Undefined Weak Reference
    _init_alloc                               - Undefined Weak Reference
    _init_user_alloc                          - Undefined Weak Reference
    _initio                                   - Undefined Weak Reference
    _rand_init                                - Undefined Weak Reference
    _signal_finish                            - Undefined Weak Reference
    _signal_init                              - Undefined Weak Reference
    _terminate_alloc                          - Undefined Weak Reference
    _terminate_user_alloc                     - Undefined Weak Reference
    _terminateio                              - Undefined Weak Reference
    __Vectors_Size                           0x00000188   Number         0  startup_stm32f407xx.o ABSOLUTE
    __Vectors                                0x08000000   Data           4  startup_stm32f407xx.o(RESET)
    __Vectors_End                            0x08000188   Data           0  startup_stm32f407xx.o(RESET)
    __main                                   0x08000189   Thumb Code     8  __main.o(!!!main)
    __scatterload                            0x08000191   Thumb Code     0  __scatter.o(!!!scatter)
    __scatterload_rt2                        0x08000191   Thumb Code    44  __scatter.o(!!!scatter)
    __scatterload_rt2_thumb_only             0x08000191   Thumb Code     0  __scatter.o(!!!scatter)
    __scatterload_null                       0x0800019f   Thumb Code     0  __scatter.o(!!!scatter)
    __scatterload_copy                       0x080001c5   Thumb Code    26  __scatter_copy.o(!!handler_copy)
    __scatterload_zeroinit                   0x080001e1   Thumb Code    28  __scatter_zi.o(!!handler_zi)
    __rt_lib_init                            0x080001fd   Thumb Code     0  libinit.o(.ARM.Collect$$libinit$$00000000)
    __rt_lib_init_fp_1                       0x080001ff   Thumb Code     0  libinit2.o(.ARM.Collect$$libinit$$00000001)
    __rt_lib_init_alloca_1                   0x08000203   Thumb Code     0  libinit2.o(.ARM.Collect$$libinit$$0000002E)
    __rt_lib_init_argv_1                     0x08000203   Thumb Code     0  libinit2.o(.ARM.Collect$$libinit$$0000002C)
    __rt_lib_init_atexit_1                   0x08000203   Thumb Code     0  libinit2.o(.ARM.Collect$$libinit$$0000001B)
    __rt_lib_init_clock_1                    0x08000203   Thumb Code     0  libinit2.o(.ARM.Collect$$libinit$$00000021)
    __rt_lib_init_cpp_1                      0x08000203   Thumb Code     0  libinit2.o(.ARM.Collect$$libinit$$00000032)
    __rt_lib_init_exceptions_1               0x08000203   Thumb Code     0  libinit2.o(.ARM.Collect$$libinit$$00000030)
    __rt_lib_init_fp_trap_1                  0x08000203   Thumb Code     0  libinit2.o(.ARM.Collect$$libinit$$0000001F)
    __rt_lib_init_getenv_1                   0x08000203   Thumb Code     0  libinit2.o(.ARM.Collect$$libinit$$00000023)
    __rt_lib_init_heap_1                     0x08000203   Thumb Code     0  libinit2.o(.ARM.Collect$$libinit$$0000000A)
    __rt_lib_init_lc_collate_1               0x08000203   Thumb Code     0  libinit2.o(.ARM.Collect$$libinit$$00000011)
    __rt_lib_init_lc_ctype_1                 0x08000203   Thumb Code     0  libinit2.o(.ARM.Collect$$libinit$$00000013)
    __rt_lib_init_lc_monetary_1              0x08000203   Thumb Code     0  libinit2.o(.ARM.Collect$$libinit$$00000015)
    __rt_lib_init_lc_numeric_1               0x08000203   Thumb Code     0  libinit2.o(.ARM.Collect$$libinit$$00000017)
    __rt_lib_init_lc_time_1                  0x08000203   Thumb Code     0  libinit2.o(.ARM.Collect$$libinit$$00000019)
    __rt_lib_init_preinit_1                  0x08000203   Thumb Code     0  libinit2.o(.ARM.Collect$$libinit$$00000004)
    __rt_lib_init_rand_1                     0x08000203   Thumb Code     0  libinit2.o(.ARM.Collect$$libinit$$0000000E)
    __rt_lib_init_return                     0x08000203   Thumb Code     0  libinit2.o(.ARM.Collect$$libinit$$00000033)
    __rt_lib_init_signal_1                   0x08000203   Thumb Code     0  libinit2.o(.ARM.Collect$$libinit$$0000001D)
    __rt_lib_init_stdio_1                    0x08000203   Thumb Code     0  libinit2.o(.ARM.Collect$$libinit$$00000025)
    __rt_lib_init_user_alloc_1               0x08000203   Thumb Code     0  libinit2.o(.ARM.Collect$$libinit$$0000000C)
    __rt_lib_shutdown                        0x08000205   Thumb Code     0  libshutdown.o(.ARM.Collect$$libshutdown$$00000000)
    __rt_lib_shutdown_cpp_1                  0x08000207   Thumb Code     0  libshutdown2.o(.ARM.Collect$$libshutdown$$00000004)
    __rt_lib_shutdown_fini_1                 0x08000207   Thumb Code     0  libshutdown2.o(.ARM.Collect$$libshutdown$$00000002)
    __rt_lib_shutdown_fp_trap_1              0x08000207   Thumb Code     0  libshutdown2.o(.ARM.Collect$$libshutdown$$00000009)
    __rt_lib_shutdown_heap_1                 0x08000207   Thumb Code     0  libshutdown2.o(.ARM.Collect$$libshutdown$$00000011)
    __rt_lib_shutdown_return                 0x08000207   Thumb Code     0  libshutdown2.o(.ARM.Collect$$libshutdown$$00000012)
    __rt_lib_shutdown_signal_1               0x08000207   Thumb Code     0  libshutdown2.o(.ARM.Collect$$libshutdown$$0000000C)
    __rt_lib_shutdown_stdio_1                0x08000207   Thumb Code     0  libshutdown2.o(.ARM.Collect$$libshutdown$$00000006)
    __rt_lib_shutdown_user_alloc_1           0x08000207   Thumb Code     0  libshutdown2.o(.ARM.Collect$$libshutdown$$0000000E)
    __rt_entry                               0x08000209   Thumb Code     0  __rtentry.o(.ARM.Collect$$rtentry$$00000000)
    __rt_entry_presh_1                       0x08000209   Thumb Code     0  __rtentry2.o(.ARM.Collect$$rtentry$$00000002)
    __rt_entry_sh                            0x08000209   Thumb Code     0  __rtentry4.o(.ARM.Collect$$rtentry$$00000004)
    __rt_entry_li                            0x0800020f   Thumb Code     0  __rtentry2.o(.ARM.Collect$$rtentry$$0000000A)
    __rt_entry_postsh_1                      0x0800020f   Thumb Code     0  __rtentry2.o(.ARM.Collect$$rtentry$$00000009)
    __rt_entry_main                          0x08000213   Thumb Code     0  __rtentry2.o(.ARM.Collect$$rtentry$$0000000D)
    __rt_entry_postli_1                      0x08000213   Thumb Code     0  __rtentry2.o(.ARM.Collect$$rtentry$$0000000C)
    __rt_exit                                0x0800021b   Thumb Code     0  rtexit.o(.ARM.Collect$$rtexit$$00000000)
    __rt_exit_ls                             0x0800021d   Thumb Code     0  rtexit2.o(.ARM.Collect$$rtexit$$00000003)
    __rt_exit_prels_1                        0x0800021d   Thumb Code     0  rtexit2.o(.ARM.Collect$$rtexit$$00000002)
    __rt_exit_exit                           0x08000221   Thumb Code     0  rtexit2.o(.ARM.Collect$$rtexit$$00000004)
    Reset_Handler                            0x08000229   Thumb Code     8  startup_stm32f407xx.o(.text)
    NMI_Handler                              0x08000231   Thumb Code     2  startup_stm32f407xx.o(.text)
    HardFault_Handler                        0x08000233   Thumb Code     2  startup_stm32f407xx.o(.text)
    MemManage_Handler                        0x08000235   Thumb Code     2  startup_stm32f407xx.o(.text)
    BusFault_Handler                         0x08000237   Thumb Code     2  startup_stm32f407xx.o(.text)
    UsageFault_Handler                       0x08000239   Thumb Code     2  startup_stm32f407xx.o(.text)
    SVC_Handler                              0x0800023b   Thumb Code     2  startup_stm32f407xx.o(.text)
    DebugMon_Handler                         0x0800023d   Thumb Code     2  startup_stm32f407xx.o(.text)
    PendSV_Handler                           0x0800023f   Thumb Code     2  startup_stm32f407xx.o(.text)
    ADC_IRQHandler                           0x08000243   Thumb Code     0  startup_stm32f407xx.o(.text)
    CAN1_RX0_IRQHandler                      0x08000243   Thumb Code     0  startup_stm32f407xx.o(.text)
    CAN1_RX1_IRQHandler                      0x08000243   Thumb Code     0  startup_stm32f407xx.o(.text)
    CAN1_SCE_IRQHandler                      0x08000243   Thumb Code     0  startup_stm32f407xx.o(.text)
    CAN1_TX_IRQHandler                       0x08000243   Thumb Code     0  startup_stm32f407xx.o(.text)
    CAN2_RX0_IRQHandler                      0x08000243   Thumb Code     0  startup_stm32f407xx.o(.text)
    CAN2_RX1_IRQHandler                      0x08000243   Thumb Code     0  startup_stm32f407xx.o(.text)
    CAN2_SCE_IRQHandler                      0x08000243   Thumb Code     0  startup_stm32f407xx.o(.text)
    CAN2_TX_IRQHandler                       0x08000243   Thumb Code     0  startup_stm32f407xx.o(.text)
    DCMI_IRQHandler                          0x08000243   Thumb Code     0  startup_stm32f407xx.o(.text)
    DMA1_Stream0_IRQHandler                  0x08000243   Thumb Code     0  startup_stm32f407xx.o(.text)
    DMA1_Stream1_IRQHandler                  0x08000243   Thumb Code     0  startup_stm32f407xx.o(.text)
    DMA1_Stream2_IRQHandler                  0x08000243   Thumb Code     0  startup_stm32f407xx.o(.text)
    DMA1_Stream3_IRQHandler                  0x08000243   Thumb Code     0  startup_stm32f407xx.o(.text)
    DMA1_Stream4_IRQHandler                  0x08000243   Thumb Code     0  startup_stm32f407xx.o(.text)
    DMA1_Stream5_IRQHandler                  0x08000243   Thumb Code     0  startup_stm32f407xx.o(.text)
    DMA1_Stream6_IRQHandler                  0x08000243   Thumb Code     0  startup_stm32f407xx.o(.text)
    DMA1_Stream7_IRQHandler                  0x08000243   Thumb Code     0  startup_stm32f407xx.o(.text)
    DMA2_Stream0_IRQHandler                  0x08000243   Thumb Code     0  startup_stm32f407xx.o(.text)
    DMA2_Stream1_IRQHandler                  0x08000243   Thumb Code     0  startup_stm32f407xx.o(.text)
    DMA2_Stream2_IRQHandler                  0x08000243   Thumb Code     0  startup_stm32f407xx.o(.text)
    DMA2_Stream3_IRQHandler                  0x08000243   Thumb Code     0  startup_stm32f407xx.o(.text)
    DMA2_Stream4_IRQHandler                  0x08000243   Thumb Code     0  startup_stm32f407xx.o(.text)
    DMA2_Stream5_IRQHandler                  0x08000243   Thumb Code     0  startup_stm32f407xx.o(.text)
    DMA2_Stream6_IRQHandler                  0x08000243   Thumb Code     0  startup_stm32f407xx.o(.text)
    DMA2_Stream7_IRQHandler                  0x08000243   Thumb Code     0  startup_stm32f407xx.o(.text)
    ETH_IRQHandler                           0x08000243   Thumb Code     0  startup_stm32f407xx.o(.text)
    ETH_WKUP_IRQHandler                      0x08000243   Thumb Code     0  startup_stm32f407xx.o(.text)
    EXTI0_IRQHandler                         0x08000243   Thumb Code     0  startup_stm32f407xx.o(.text)
    EXTI15_10_IRQHandler                     0x08000243   Thumb Code     0  startup_stm32f407xx.o(.text)
    EXTI1_IRQHandler                         0x08000243   Thumb Code     0  startup_stm32f407xx.o(.text)
    EXTI2_IRQHandler                         0x08000243   Thumb Code     0  startup_stm32f407xx.o(.text)
    EXTI3_IRQHandler                         0x08000243   Thumb Code     0  startup_stm32f407xx.o(.text)
    EXTI4_IRQHandler                         0x08000243   Thumb Code     0  startup_stm32f407xx.o(.text)
    EXTI9_5_IRQHandler                       0x08000243   Thumb Code     0  startup_stm32f407xx.o(.text)
    FLASH_IRQHandler                         0x08000243   Thumb Code     0  startup_stm32f407xx.o(.text)
    FMC_IRQHandler                           0x08000243   Thumb Code     0  startup_stm32f407xx.o(.text)
    FPU_IRQHandler                           0x08000243   Thumb Code     0  startup_stm32f407xx.o(.text)
    HASH_RNG_IRQHandler                      0x08000243   Thumb Code     0  startup_stm32f407xx.o(.text)
    I2C1_ER_IRQHandler                       0x08000243   Thumb Code     0  startup_stm32f407xx.o(.text)
    I2C1_EV_IRQHandler                       0x08000243   Thumb Code     0  startup_stm32f407xx.o(.text)
    I2C2_ER_IRQHandler                       0x08000243   Thumb Code     0  startup_stm32f407xx.o(.text)
    I2C2_EV_IRQHandler                       0x08000243   Thumb Code     0  startup_stm32f407xx.o(.text)
    I2C3_ER_IRQHandler                       0x08000243   Thumb Code     0  startup_stm32f407xx.o(.text)
    I2C3_EV_IRQHandler                       0x08000243   Thumb Code     0  startup_stm32f407xx.o(.text)
    OTG_FS_IRQHandler                        0x08000243   Thumb Code     0  startup_stm32f407xx.o(.text)
    OTG_FS_WKUP_IRQHandler                   0x08000243   Thumb Code     0  startup_stm32f407xx.o(.text)
    OTG_HS_EP1_IN_IRQHandler                 0x08000243   Thumb Code     0  startup_stm32f407xx.o(.text)
    OTG_HS_EP1_OUT_IRQHandler                0x08000243   Thumb Code     0  startup_stm32f407xx.o(.text)
    OTG_HS_IRQHandler                        0x08000243   Thumb Code     0  startup_stm32f407xx.o(.text)
    OTG_HS_WKUP_IRQHandler                   0x08000243   Thumb Code     0  startup_stm32f407xx.o(.text)
    PVD_IRQHandler                           0x08000243   Thumb Code     0  startup_stm32f407xx.o(.text)
    RCC_IRQHandler                           0x08000243   Thumb Code     0  startup_stm32f407xx.o(.text)
    RTC_Alarm_IRQHandler                     0x08000243   Thumb Code     0  startup_stm32f407xx.o(.text)
    RTC_WKUP_IRQHandler                      0x08000243   Thumb Code     0  startup_stm32f407xx.o(.text)
    SDIO_IRQHandler                          0x08000243   Thumb Code     0  startup_stm32f407xx.o(.text)
    SPI2_IRQHandler                          0x08000243   Thumb Code     0  startup_stm32f407xx.o(.text)
    SPI3_IRQHandler                          0x08000243   Thumb Code     0  startup_stm32f407xx.o(.text)
    TAMP_STAMP_IRQHandler                    0x08000243   Thumb Code     0  startup_stm32f407xx.o(.text)
    TIM1_BRK_TIM9_IRQHandler                 0x08000243   Thumb Code     0  startup_stm32f407xx.o(.text)
    TIM1_CC_IRQHandler                       0x08000243   Thumb Code     0  startup_stm32f407xx.o(.text)
    TIM1_TRG_COM_TIM11_IRQHandler            0x08000243   Thumb Code     0  startup_stm32f407xx.o(.text)
    TIM1_UP_TIM10_IRQHandler                 0x08000243   Thumb Code     0  startup_stm32f407xx.o(.text)
    TIM2_IRQHandler                          0x08000243   Thumb Code     0  startup_stm32f407xx.o(.text)
    TIM3_IRQHandler                          0x08000243   Thumb Code     0  startup_stm32f407xx.o(.text)
    TIM4_IRQHandler                          0x08000243   Thumb Code     0  startup_stm32f407xx.o(.text)
    TIM5_IRQHandler                          0x08000243   Thumb Code     0  startup_stm32f407xx.o(.text)
    TIM6_DAC_IRQHandler                      0x08000243   Thumb Code     0  startup_stm32f407xx.o(.text)
    TIM7_IRQHandler                          0x08000243   Thumb Code     0  startup_stm32f407xx.o(.text)
    TIM8_BRK_TIM12_IRQHandler                0x08000243   Thumb Code     0  startup_stm32f407xx.o(.text)
    TIM8_CC_IRQHandler                       0x08000243   Thumb Code     0  startup_stm32f407xx.o(.text)
    TIM8_TRG_COM_TIM14_IRQHandler            0x08000243   Thumb Code     0  startup_stm32f407xx.o(.text)
    TIM8_UP_TIM13_IRQHandler                 0x08000243   Thumb Code     0  startup_stm32f407xx.o(.text)
    UART4_IRQHandler                         0x08000243   Thumb Code     0  startup_stm32f407xx.o(.text)
    UART5_IRQHandler                         0x08000243   Thumb Code     0  startup_stm32f407xx.o(.text)
    WWDG_IRQHandler                          0x08000243   Thumb Code     0  startup_stm32f407xx.o(.text)
    __user_initial_stackheap                 0x08000245   Thumb Code     0  startup_stm32f407xx.o(.text)
    __semihosting$guard                      0x08000269   Thumb Code     0  use_no_semi.o(.text)
    __use_no_semihosting_swi                 0x08000269   Thumb Code     2  use_no_semi.o(.text)
    __aeabi_memcpy4                          0x0800026b   Thumb Code     0  rt_memcpy_w.o(.text)
    __aeabi_memcpy8                          0x0800026b   Thumb Code     0  rt_memcpy_w.o(.text)
    __rt_memcpy_w                            0x0800026b   Thumb Code   100  rt_memcpy_w.o(.text)
    _memcpy_lastbytes_aligned                0x080002b3   Thumb Code     0  rt_memcpy_w.o(.text)
    __use_two_region_memory                  0x080002cf   Thumb Code     2  heapauxi.o(.text)
    __rt_heap_escrow$2region                 0x080002d1   Thumb Code     2  heapauxi.o(.text)
    __rt_heap_expand$2region                 0x080002d3   Thumb Code     2  heapauxi.o(.text)
    __read_errno                             0x080002d5   Thumb Code    10  _rserrno.o(.text)
    __set_errno                              0x080002df   Thumb Code    12  _rserrno.o(.text)
    __aeabi_errno_addr                       0x080002ed   Thumb Code     8  rt_errno_addr_intlibspace.o(.text)
    __errno$intlibspace                      0x080002ed   Thumb Code     0  rt_errno_addr_intlibspace.o(.text)
    __rt_errno_addr$intlibspace              0x080002ed   Thumb Code     0  rt_errno_addr_intlibspace.o(.text)
    __user_libspace                          0x080002f5   Thumb Code     8  libspace.o(.text)
    __user_perproc_libspace                  0x080002f5   Thumb Code     0  libspace.o(.text)
    __user_perthread_libspace                0x080002f5   Thumb Code     0  libspace.o(.text)
    __user_setup_stackheap                   0x080002fd   Thumb Code    74  sys_stackheap_outer.o(.text)
    exit                                     0x08000347   Thumb Code    18  exit.o(.text)
    GPIO_Init                                0x08000359   Thumb Code   144  stm32f4xx_gpio.o(i.GPIO_Init)
    GPIO_PinAFConfig                         0x080003e9   Thumb Code    70  stm32f4xx_gpio.o(i.GPIO_PinAFConfig)
    GPIO_ResetBits                           0x0800042f   Thumb Code     4  stm32f4xx_gpio.o(i.GPIO_ResetBits)
    GPIO_SetBits                             0x08000433   Thumb Code     4  stm32f4xx_gpio.o(i.GPIO_SetBits)
    RCC_AHB1PeriphClockCmd                   0x08000439   Thumb Code    26  stm32f4xx_rcc.o(i.RCC_AHB1PeriphClockCmd)
    RCC_APB1PeriphClockCmd                   0x08000459   Thumb Code    26  stm32f4xx_rcc.o(i.RCC_APB1PeriphClockCmd)
    RCC_APB2PeriphClockCmd                   0x08000479   Thumb Code    26  stm32f4xx_rcc.o(i.RCC_APB2PeriphClockCmd)
    RCC_GetClocksFreq                        0x08000499   Thumb Code   214  stm32f4xx_rcc.o(i.RCC_GetClocksFreq)
    SPI1_IRQHandler                          0x08000581   Thumb Code    92  spi_1.o(i.SPI1_IRQHandler)
    SPI_I2S_GetFlagStatus                    0x080005ed   Thumb Code    18  stm32f4xx_spi.o(i.SPI_I2S_GetFlagStatus)
    SysTick_Handler                          0x08000711   Thumb Code    20  time_service.o(i.SysTick_Handler)
    SystemInit                               0x08000729   Thumb Code    88  system_stm32f4xx.o(i.SystemInit)
    TIM_BDTRConfig                           0x08000791   Thumb Code    32  stm32f4xx_tim.o(i.TIM_BDTRConfig)
    TIM_Cmd                                  0x080007b1   Thumb Code    24  stm32f4xx_tim.o(i.TIM_Cmd)
    TIM_CtrlPWMOutputs                       0x080007c9   Thumb Code    30  stm32f4xx_tim.o(i.TIM_CtrlPWMOutputs)
    TIM_OC1Init                              0x080007e9   Thumb Code   114  stm32f4xx_tim.o(i.TIM_OC1Init)
    TIM_OC2Init                              0x08000865   Thumb Code   154  stm32f4xx_tim.o(i.TIM_OC2Init)
    TIM_OC3Init                              0x08000909   Thumb Code   150  stm32f4xx_tim.o(i.TIM_OC3Init)
    TIM_OC4Init                              0x080009a9   Thumb Code   112  stm32f4xx_tim.o(i.TIM_OC4Init)
    TIM_SetCompare1                          0x08000a21   Thumb Code     4  stm32f4xx_tim.o(i.TIM_SetCompare1)
    TIM_SetCompare2                          0x08000a25   Thumb Code     4  stm32f4xx_tim.o(i.TIM_SetCompare2)
    TIM_SetCompare3                          0x08000a29   Thumb Code     4  stm32f4xx_tim.o(i.TIM_SetCompare3)
    TIM_SetCompare4                          0x08000a2d   Thumb Code     4  stm32f4xx_tim.o(i.TIM_SetCompare4)
    TIM_TimeBaseInit                         0x08000a31   Thumb Code   104  stm32f4xx_tim.o(i.TIM_TimeBaseInit)
    USART1_IRQHandler                        0x08000ab5   Thumb Code   132  usart1.o(i.USART1_IRQHandler)
    USART2_IRQHandler                        0x08000b55   Thumb Code   138  usart2.o(i.USART2_IRQHandler)
    USART3_IRQHandler                        0x08000bfd   Thumb Code   138  usart3.o(i.USART3_IRQHandler)
    USART6_IRQHandler                        0x08000ca5   Thumb Code   138  usart6.o(i.USART6_IRQHandler)
    USART_ClearITPendingBit                  0x08000d4d   Thumb Code    30  stm32f4xx_usart.o(i.USART_ClearITPendingBit)
    USART_Cmd                                0x08000d6b   Thumb Code    24  stm32f4xx_usart.o(i.USART_Cmd)
    USART_ITConfig                           0x08000d83   Thumb Code    74  stm32f4xx_usart.o(i.USART_ITConfig)
    USART_Init                               0x08000dcd   Thumb Code   204  stm32f4xx_usart.o(i.USART_Init)
    USART_StructInit                         0x08000ea1   Thumb Code    24  stm32f4xx_usart.o(i.USART_StructInit)
    omniplatform::move(float, float, float, float, float) 0x08000eb9   Thumb Code   494  omniplatform.o(i._ZN12omniplatform4moveEfffff)
    omniplatform::omniplatform(Motor&, Motor&, Motor&, Motor&) 0x080010c5   Thumb Code    68  omniplatform.o(i._ZN12omniplatformC1ER5MotorS1_S1_S1_)
    omniplatform::omniplatform__sub_object(Motor&, Motor&, Motor&, Motor&) 0x080010c5   Thumb Code     0  omniplatform.o(i._ZN12omniplatformC1ER5MotorS1_S1_S1_)
    time_service::init()                     0x08001109   Thumb Code    86  time_service.o(i._ZN12time_service4initEv)
    time_service::delay(unsigned)            0x08001169   Thumb Code    32  time_service.o(i._ZN12time_service5delayEj)
    time_service::millis()                   0x0800118d   Thumb Code     8  time_service.o(i._ZN12time_service6millisEv)
    time_service::startTime()                0x08001199   Thumb Code    18  time_service.o(i._ZN12time_service9startTimeEv)
    I2C::generateStop()                      0x080011ab   Thumb Code    56  i2c.o(i._ZN3I2C12generateStopEv)
    I2C::generateStart()                     0x080011e3   Thumb Code    74  i2c.o(i._ZN3I2C13generateStartEv)
    I2C::read()                              0x0800122d   Thumb Code    78  i2c.o(i._ZN3I2C4readEv)
    I2C::send(unsigned char)                 0x0800127b   Thumb Code    56  i2c.o(i._ZN3I2C4sendEh)
    I2C::delay()                             0x080012b3   Thumb Code    28  i2c.o(i._ZN3I2C5delayEv)
    I2C::sclLow()                            0x080012cf   Thumb Code    12  i2c.o(i._ZN3I2C6sclLowEv)
    I2C::sdaLow()                            0x080012db   Thumb Code    14  i2c.o(i._ZN3I2C6sdaLowEv)
    I2C::readAch()                           0x080012e9   Thumb Code    68  i2c.o(i._ZN3I2C7readAchEv)
    I2C::sclHigh()                           0x0800132d   Thumb Code    12  i2c.o(i._ZN3I2C7sclHighEv)
    I2C::sdaHigh()                           0x08001339   Thumb Code    14  i2c.o(i._ZN3I2C7sdaHighEv)
    I2C::sdaRead()                           0x08001347   Thumb Code    34  i2c.o(i._ZN3I2C7sdaReadEv)
    I2C::writeBit(bool)                      0x08001369   Thumb Code    60  i2c.o(i._ZN3I2C8writeBitEb)
    I2C::I2C(Pin&, Pin&)                     0x080013a5   Thumb Code    46  i2c.o(i._ZN3I2CC1ER3PinS1_)
    I2C::I2C__sub_object(Pin&, Pin&)         0x080013a5   Thumb Code     0  i2c.o(i._ZN3I2CC1ER3PinS1_)
    Pin::RCC_ClockCmd()                      0x080013d5   Thumb Code   256  pin.o(i._ZN3Pin12RCC_ClockCmdEv)
    Pin::setTimParams(unsigned short)        0x08001509   Thumb Code   198  pin.o(i._ZN3Pin12setTimParamsEt)
    Pin::setAFforUSART(unsigned short)       0x080015fd   Thumb Code    40  pin.o(i._ZN3Pin13setAFforUSARTEt)
    Pin::pwm(unsigned)                       0x08001625   Thumb Code    68  pin.o(i._ZN3Pin3pwmEj)
    Pin::getPin()                            0x08001669   Thumb Code     6  pin.o(i._ZN3Pin6getPinEv)
    Pin::setBit()                            0x0800166f   Thumb Code    16  pin.o(i._ZN3Pin6setBitEv)
    Pin::setPin(unsigned char)               0x0800167f   Thumb Code   204  pin.o(i._ZN3Pin6setPinEh)
    Pin::pwmInit(short, unsigned, unsigned char) 0x0800174d   Thumb Code   260  pin.o(i._ZN3Pin7pwmInitEsjh)
    Pin::setGPIO(char)                       0x08001855   Thumb Code    78  pin.o(i._ZN3Pin7setGPIOEc)
    Pin::getGPIOx()                          0x080018c9   Thumb Code     6  pin.o(i._ZN3Pin8getGPIOxEv)
    Pin::resetBit()                          0x080018cf   Thumb Code    16  pin.o(i._ZN3Pin8resetBitEv)
    Pin::getPeriod()                         0x080018df   Thumb Code     8  pin.o(i._ZN3Pin9getPeriodEv)
    Pin::Pin(char, unsigned char, unsigned short) 0x080018e9   Thumb Code   526  pin.o(i._ZN3PinC1Echt)
    Pin::Pin__sub_object(char, unsigned char, unsigned short) 0x080018e9   Thumb Code     0  pin.o(i._ZN3PinC1Echt)
    Motor::getMaxSpeed()                     0x08001b1d   Thumb Code    12  motor.o(i._ZN5Motor11getMaxSpeedEv)
    Motor::go(short)                         0x08001b29   Thumb Code   108  motor.o(i._ZN5Motor2goEs)
    Motor::Motor(Pin&, Pin&)                 0x08001b95   Thumb Code    34  motor.o(i._ZN5MotorC1ER3PinS1_)
    Motor::Motor__sub_object(Pin&, Pin&)     0x08001b95   Thumb Code     0  motor.o(i._ZN5MotorC1ER3PinS1_)
    uart1::usart1Init(unsigned, float, unsigned char) 0x08001bb9   Thumb Code   308  usart1.o(i._ZN5uart110usart1InitEjfh)
    uart1::read()                            0x08001d21   Thumb Code    62  usart1.o(i._ZN5uart14readEv)
    uart1::available()                       0x08001d69   Thumb Code    44  usart1.o(i._ZN5uart19availableEv)
    uart2::usart2Init(unsigned, float, unsigned char) 0x08001d9d   Thumb Code   308  usart2.o(i._ZN5uart210usart2InitEjfh)
    uart2::read()                            0x08001f05   Thumb Code    62  usart2.o(i._ZN5uart24readEv)
    uart2::available()                       0x08001f4d   Thumb Code    44  usart2.o(i._ZN5uart29availableEv)
    uart3::usart3Init(unsigned, float, unsigned char) 0x08001f81   Thumb Code   308  usart3.o(i._ZN5uart310usart3InitEjfh)
    uart3::read()                            0x080020e9   Thumb Code    62  usart3.o(i._ZN5uart34readEv)
    uart3::available()                       0x08002131   Thumb Code    44  usart3.o(i._ZN5uart39availableEv)
    uart6::usart6Init(unsigned, float, unsigned char) 0x08002165   Thumb Code   308  usart6.o(i._ZN5uart610usart6InitEjfh)
    uart6::read()                            0x080022cd   Thumb Code    62  usart6.o(i._ZN5uart64readEv)
    uart6::available()                       0x08002315   Thumb Code    44  usart6.o(i._ZN5uart69availableEv)
    gyro_imu::getRotation()                  0x08002349   Thumb Code     8  imu_usart.o(i._ZN8gyro_imu11getRotationEv)
    gyro_imu::setZeroAngle()                 0x08002351   Thumb Code     6  imu_usart.o(i._ZN8gyro_imu12setZeroAngleEv)
    gyro_imu::getMaxRotation()               0x08002357   Thumb Code     8  imu_usart.o(i._ZN8gyro_imu14getMaxRotationEv)
    gyro_imu::getCurrentAngle()              0x0800235f   Thumb Code     8  imu_usart.o(i._ZN8gyro_imu15getCurrentAngleEv)
    gyro_imu::setRotationForTarget()         0x08002367   Thumb Code    66  imu_usart.o(i._ZN8gyro_imu20setRotationForTargetEv)
    gyro_imu::read()                         0x080023a9   Thumb Code   268  imu_usart.o(i._ZN8gyro_imu4readEv)
    gyro_imu::adduct(short)                  0x080024b9   Thumb Code    32  imu_usart.o(i._ZN8gyro_imu6adductEs)
    gyro_imu::initUSART(unsigned char)       0x080024d9   Thumb Code    86  imu_usart.o(i._ZN8gyro_imu9initUSARTEh)
    gyro_imu::setTarget(short)               0x0800252f   Thumb Code     4  imu_usart.o(i._ZN8gyro_imu9setTargetEs)
    gyro_imu::gyro_imu(Pin&, Pin&, unsigned char) 0x08002533   Thumb Code    36  imu_usart.o(i._ZN8gyro_imuC1ER3PinS1_h)
    gyro_imu::gyro_imu__sub_object(Pin&, Pin&, unsigned char) 0x08002533   Thumb Code     0  imu_usart.o(i._ZN8gyro_imuC1ER3PinS1_h)
    IRLocator::angleOffset(float, float)     0x08002559   Thumb Code   342  ir_locator.o(i._ZN9IRLocator11angleOffsetEff)
    IRLocator::convertDist(double)           0x080026e1   Thumb Code   146  ir_locator.o(i._ZN9IRLocator11convertDistEd)
    IRLocator::adduct(short)                 0x0800278d   Thumb Code    32  ir_locator.o(i._ZN9IRLocator6adductEs)
    IRLocator::getDist()                     0x080027ad   Thumb Code     8  ir_locator.o(i._ZN9IRLocator7getDistEv)
    IRLocator::getAngle()                    0x080027b5   Thumb Code   102  ir_locator.o(i._ZN9IRLocator8getAngleEv)
    IRLocator::getValue(unsigned char)       0x0800281b   Thumb Code   106  ir_locator.o(i._ZN9IRLocator8getValueEh)
    IRLocator::IRLocator(I2C&, unsigned)     0x08002885   Thumb Code    26  ir_locator.o(i._ZN9IRLocatorC1ER3I2Cj)
    IRLocator::IRLocator__sub_object(I2C&, unsigned) 0x08002885   Thumb Code     0  ir_locator.o(i._ZN9IRLocatorC1ER3I2Cj)
    std::sin(float)                          0x0800289f   Thumb Code    24  omniplatform.o(i._ZSt3sinf)
    __ARM_fpclassify                         0x080028b7   Thumb Code    48  fpclassify.o(i.__ARM_fpclassify)
    __ARM_fpclassifyf                        0x080028e7   Thumb Code    38  fpclassifyf.o(i.__ARM_fpclassifyf)
    __hardfp_pow                             0x08002911   Thumb Code  3072  pow.o(i.__hardfp_pow)
    __hardfp_sinf                            0x08003561   Thumb Code   344  sinf.o(i.__hardfp_sinf)
    __kernel_poly                            0x080036f1   Thumb Code   248  poly.o(i.__kernel_poly)
    __mathlib_dbl_divzero                    0x080037e9   Thumb Code    28  dunder.o(i.__mathlib_dbl_divzero)
    __mathlib_dbl_infnan2                    0x08003819   Thumb Code    20  dunder.o(i.__mathlib_dbl_infnan2)
    __mathlib_dbl_invalid                    0x08003831   Thumb Code    24  dunder.o(i.__mathlib_dbl_invalid)
    __mathlib_dbl_overflow                   0x08003851   Thumb Code    24  dunder.o(i.__mathlib_dbl_overflow)
    __mathlib_dbl_underflow                  0x08003871   Thumb Code    24  dunder.o(i.__mathlib_dbl_underflow)
    __mathlib_flt_infnan                     0x08003891   Thumb Code     6  funder.o(i.__mathlib_flt_infnan)
    __mathlib_flt_invalid                    0x08003899   Thumb Code    10  funder.o(i.__mathlib_flt_invalid)
    __mathlib_flt_underflow                  0x080038a9   Thumb Code    10  funder.o(i.__mathlib_flt_underflow)
    __mathlib_rredf2                         0x080038b9   Thumb Code   316  rredf.o(i.__mathlib_rredf2)
    _sys_exit                                0x08003a0d   Thumb Code     4  retarget.o(i._sys_exit)
    fabs                                     0x08003a11   Thumb Code    24  fabs.o(i.fabs)
    main                                     0x08003a29   Thumb Code  1070  main.o(i.main)
    sqrt                                     0x08003e81   Thumb Code   110  sqrt.o(i.sqrt)
    __aeabi_dneg                             0x08003eef   Thumb Code     0  basic.o(x$fpl$basic)
    _dneg                                    0x08003eef   Thumb Code     6  basic.o(x$fpl$basic)
    __aeabi_fneg                             0x08003ef5   Thumb Code     0  basic.o(x$fpl$basic)
    _fneg                                    0x08003ef5   Thumb Code     6  basic.o(x$fpl$basic)
    _dabs                                    0x08003efb   Thumb Code     6  basic.o(x$fpl$basic)
    _fabs                                    0x08003f01   Thumb Code     6  basic.o(x$fpl$basic)
    __aeabi_d2f                              0x08003f09   Thumb Code     0  d2f.o(x$fpl$d2f)
    _d2f                                     0x08003f09   Thumb Code    98  d2f.o(x$fpl$d2f)
    __aeabi_dadd                             0x08003f6d   Thumb Code     0  daddsub_clz.o(x$fpl$dadd)
    _dadd                                    0x08003f6d   Thumb Code   332  daddsub_clz.o(x$fpl$dadd)
    __fpl_dcheck_NaN1                        0x080040bd   Thumb Code    10  dcheck1.o(x$fpl$dcheck1)
    __fpl_dcmp_Inf                           0x080040cd   Thumb Code    24  dcmpi.o(x$fpl$dcmpinf)
    __aeabi_ddiv                             0x080040e5   Thumb Code     0  ddiv.o(x$fpl$ddiv)
    _ddiv                                    0x080040e5   Thumb Code   552  ddiv.o(x$fpl$ddiv)
    __aeabi_cdcmpeq                          0x08004395   Thumb Code     0  deqf.o(x$fpl$deqf)
    _dcmpeq                                  0x08004395   Thumb Code   120  deqf.o(x$fpl$deqf)
    __aeabi_i2d                              0x0800440d   Thumb Code     0  dflt_clz.o(x$fpl$dflt)
    _dflt                                    0x0800440d   Thumb Code    46  dflt_clz.o(x$fpl$dflt)
    __aeabi_cdcmple                          0x0800443d   Thumb Code     0  dleqf.o(x$fpl$dleqf)
    _dcmple                                  0x0800443d   Thumb Code   120  dleqf.o(x$fpl$dleqf)
    __fpl_dcmple_InfNaN                      0x0800449f   Thumb Code     0  dleqf.o(x$fpl$dleqf)
    __aeabi_dmul                             0x080044b5   Thumb Code     0  dmul.o(x$fpl$dmul)
    _dmul                                    0x080044b5   Thumb Code   332  dmul.o(x$fpl$dmul)
    __fpl_dnaninf                            0x08004609   Thumb Code   156  dnaninf.o(x$fpl$dnaninf)
    __fpl_dretinf                            0x080046a5   Thumb Code    12  dretinf.o(x$fpl$dretinf)
    __aeabi_cdrcmple                         0x080046b1   Thumb Code     0  drleqf.o(x$fpl$drleqf)
    _drcmple                                 0x080046b1   Thumb Code   108  drleqf.o(x$fpl$drleqf)
    __aeabi_drsub                            0x0800471d   Thumb Code     0  daddsub_clz.o(x$fpl$drsb)
    _drsb                                    0x0800471d   Thumb Code    22  daddsub_clz.o(x$fpl$drsb)
    _dsqrt                                   0x08004735   Thumb Code   404  dsqrt_umaal.o(x$fpl$dsqrt)
    __aeabi_dsub                             0x080048cd   Thumb Code     0  daddsub_clz.o(x$fpl$dsub)
    _dsub                                    0x080048cd   Thumb Code   464  daddsub_clz.o(x$fpl$dsub)
    __aeabi_f2d                              0x08004aa1   Thumb Code     0  f2d.o(x$fpl$f2d)
    _f2d                                     0x08004aa1   Thumb Code    86  f2d.o(x$fpl$f2d)
    __fpl_fnaninf                            0x08004af7   Thumb Code   140  fnaninf.o(x$fpl$fnaninf)
    _fp_init                                 0x08004b83   Thumb Code    10  fpinit.o(x$fpl$fpinit)
    __fplib_config_fpu_vfp                   0x08004b8b   Thumb Code     0  fpinit.o(x$fpl$fpinit)
    __fplib_config_pureend_doubles           0x08004b8b   Thumb Code     0  fpinit.o(x$fpl$fpinit)
    __fpl_fretinf                            0x08004b8d   Thumb Code    10  fretinf.o(x$fpl$fretinf)
    __fpl_return_NaN                         0x08004b97   Thumb Code   100  retnan.o(x$fpl$retnan)
    __ARM_scalbn                             0x08004bfb   Thumb Code    92  scalbn.o(x$fpl$scalbn)
    __fpl_cmpreturn                          0x08004c57   Thumb Code    48  trapv.o(x$fpl$trapveneer)
    __I$use$fp                               0x08004c86   Number         0  usenofp.o(x$fpl$usenofp)
    __mathlib_zero                           0x08004d50   Data           8  qnan.o(.constdata)
    Region$$Table$$Base                      0x08004d78   Number         0  anon$$obj.o(Region$$Table)
    Region$$Table$$Limit                     0x08004d98   Number         0  anon$$obj.o(Region$$Table)
    time_service::tim                        0x20000000   Data           8  time_service.o(.data)
    SPI_1::_spi_mode                         0x20000008   Data           4  spi_1.o(.data)
    SPI_1::_spi_direction                    0x2000000c   Data           4  spi_1.o(.data)
    SPI_1::_baud_rate                        0x20000010   Data           4  spi_1.o(.data)
    SPI_1::_first_bit                        0x20000014   Data           4  spi_1.o(.data)
    SPI_1::_cur_rx_read                      0x20000018   Data           2  spi_1.o(.data)
    SPI_1::_cur_rx_write                     0x2000001a   Data           2  spi_1.o(.data)
    SPI_1::_buf_size                         0x2000001c   Data           2  spi_1.o(.data)
    uart1::rx                                0x2000001e   Data           8  usart1.o(.data)
    uart1::_rxCnt                            0x20000026   Data           2  usart1.o(.data)
    uart1::_txCnt                            0x20000028   Data           2  usart1.o(.data)
    uart1::tx                                0x2000002a   Data           8  usart1.o(.data)
    uart1::_sendCnt                          0x20000032   Data           2  usart1.o(.data)
    uart1::_readCnt                          0x20000034   Data           2  usart1.o(.data)
    uart1::flag                              0x20000036   Data           1  usart1.o(.data)
    uart2::rx                                0x20000038   Data           8  usart2.o(.data)
    uart2::_rxCnt                            0x20000040   Data           2  usart2.o(.data)
    uart2::_txCnt                            0x20000042   Data           2  usart2.o(.data)
    uart2::tx                                0x20000044   Data           8  usart2.o(.data)
    uart2::_sendCnt                          0x2000004c   Data           2  usart2.o(.data)
    uart2::_readCnt                          0x2000004e   Data           2  usart2.o(.data)
    uart2::flag                              0x20000050   Data           1  usart2.o(.data)
    uart3::rx                                0x20000052   Data           8  usart3.o(.data)
    uart3::_rxCnt                            0x2000005a   Data           2  usart3.o(.data)
    uart3::_txCnt                            0x2000005c   Data           2  usart3.o(.data)
    uart3::tx                                0x2000005e   Data           8  usart3.o(.data)
    uart3::_sendCnt                          0x20000066   Data           2  usart3.o(.data)
    uart3::_readCnt                          0x20000068   Data           2  usart3.o(.data)
    uart3::flag                              0x2000006a   Data           1  usart3.o(.data)
    uart6::rx                                0x2000006c   Data           8  usart6.o(.data)
    uart6::_rxCnt                            0x20000074   Data           2  usart6.o(.data)
    uart6::_txCnt                            0x20000076   Data           2  usart6.o(.data)
    uart6::tx                                0x20000078   Data           8  usart6.o(.data)
    uart6::_sendCnt                          0x20000080   Data           2  usart6.o(.data)
    uart6::_readCnt                          0x20000082   Data           2  usart6.o(.data)
    uart6::flag                              0x20000084   Data           1  usart6.o(.data)
    SPI_1::_rx_buffer                        0x20000098   Data          32  spi_1.o(.bss)
    __libspace_start                         0x200000b8   Data          96  libspace.o(.bss)
    __temporary_stack_top$libspace           0x20000118   Data           0  libspace.o(.bss)



==============================================================================

Memory Map of the image

  Image Entry point : 0x08000189

  Load Region LR_IROM1 (Base: 0x08000000, Size: 0x00004e30, Max: 0x00100000, ABSOLUTE)

    Execution Region ER_IROM1 (Exec base: 0x08000000, Load base: 0x08000000, Size: 0x00004d98, Max: 0x00100000, ABSOLUTE)

    Exec Addr    Load Addr    Size         Type   Attr      Idx    E Section Name        Object

    0x08000000   0x08000000   0x00000188   Data   RO         4086    RESET               startup_stm32f407xx.o
    0x08000188   0x08000188   0x00000008   Code   RO         4219  * !!!main             c_w.l(__main.o)
    0x08000190   0x08000190   0x00000034   Code   RO         4623    !!!scatter          c_w.l(__scatter.o)
    0x080001c4   0x080001c4   0x0000001a   Code   RO         4625    !!handler_copy      c_w.l(__scatter_copy.o)
    0x080001de   0x080001de   0x00000002   PAD
    0x080001e0   0x080001e0   0x0000001c   Code   RO         4627    !!handler_zi        c_w.l(__scatter_zi.o)
    0x080001fc   0x080001fc   0x00000002   Code   RO         4499    .ARM.Collect$$libinit$$00000000  c_w.l(libinit.o)
    0x080001fe   0x080001fe   0x00000004   Code   RO         4504    .ARM.Collect$$libinit$$00000001  c_w.l(libinit2.o)
    0x08000202   0x08000202   0x00000000   Code   RO         4507    .ARM.Collect$$libinit$$00000004  c_w.l(libinit2.o)
    0x08000202   0x08000202   0x00000000   Code   RO         4510    .ARM.Collect$$libinit$$0000000A  c_w.l(libinit2.o)
    0x08000202   0x08000202   0x00000000   Code   RO         4512    .ARM.Collect$$libinit$$0000000C  c_w.l(libinit2.o)
    0x08000202   0x08000202   0x00000000   Code   RO         4514    .ARM.Collect$$libinit$$0000000E  c_w.l(libinit2.o)
    0x08000202   0x08000202   0x00000000   Code   RO         4517    .ARM.Collect$$libinit$$00000011  c_w.l(libinit2.o)
    0x08000202   0x08000202   0x00000000   Code   RO         4519    .ARM.Collect$$libinit$$00000013  c_w.l(libinit2.o)
    0x08000202   0x08000202   0x00000000   Code   RO         4521    .ARM.Collect$$libinit$$00000015  c_w.l(libinit2.o)
    0x08000202   0x08000202   0x00000000   Code   RO         4523    .ARM.Collect$$libinit$$00000017  c_w.l(libinit2.o)
    0x08000202   0x08000202   0x00000000   Code   RO         4525    .ARM.Collect$$libinit$$00000019  c_w.l(libinit2.o)
    0x08000202   0x08000202   0x00000000   Code   RO         4527    .ARM.Collect$$libinit$$0000001B  c_w.l(libinit2.o)
    0x08000202   0x08000202   0x00000000   Code   RO         4529    .ARM.Collect$$libinit$$0000001D  c_w.l(libinit2.o)
    0x08000202   0x08000202   0x00000000   Code   RO         4531    .ARM.Collect$$libinit$$0000001F  c_w.l(libinit2.o)
    0x08000202   0x08000202   0x00000000   Code   RO         4533    .ARM.Collect$$libinit$$00000021  c_w.l(libinit2.o)
    0x08000202   0x08000202   0x00000000   Code   RO         4535    .ARM.Collect$$libinit$$00000023  c_w.l(libinit2.o)
    0x08000202   0x08000202   0x00000000   Code   RO         4537    .ARM.Collect$$libinit$$00000025  c_w.l(libinit2.o)
    0x08000202   0x08000202   0x00000000   Code   RO         4541    .ARM.Collect$$libinit$$0000002C  c_w.l(libinit2.o)
    0x08000202   0x08000202   0x00000000   Code   RO         4543    .ARM.Collect$$libinit$$0000002E  c_w.l(libinit2.o)
    0x08000202   0x08000202   0x00000000   Code   RO         4545    .ARM.Collect$$libinit$$00000030  c_w.l(libinit2.o)
    0x08000202   0x08000202   0x00000000   Code   RO         4547    .ARM.Collect$$libinit$$00000032  c_w.l(libinit2.o)
    0x08000202   0x08000202   0x00000002   Code   RO         4548    .ARM.Collect$$libinit$$00000033  c_w.l(libinit2.o)
    0x08000204   0x08000204   0x00000002   Code   RO         4568    .ARM.Collect$$libshutdown$$00000000  c_w.l(libshutdown.o)
    0x08000206   0x08000206   0x00000000   Code   RO         4576    .ARM.Collect$$libshutdown$$00000002  c_w.l(libshutdown2.o)
    0x08000206   0x08000206   0x00000000   Code   RO         4578    .ARM.Collect$$libshutdown$$00000004  c_w.l(libshutdown2.o)
    0x08000206   0x08000206   0x00000000   Code   RO         4580    .ARM.Collect$$libshutdown$$00000006  c_w.l(libshutdown2.o)
    0x08000206   0x08000206   0x00000000   Code   RO         4583    .ARM.Collect$$libshutdown$$00000009  c_w.l(libshutdown2.o)
    0x08000206   0x08000206   0x00000000   Code   RO         4586    .ARM.Collect$$libshutdown$$0000000C  c_w.l(libshutdown2.o)
    0x08000206   0x08000206   0x00000000   Code   RO         4588    .ARM.Collect$$libshutdown$$0000000E  c_w.l(libshutdown2.o)
    0x08000206   0x08000206   0x00000000   Code   RO         4591    .ARM.Collect$$libshutdown$$00000011  c_w.l(libshutdown2.o)
    0x08000206   0x08000206   0x00000002   Code   RO         4592    .ARM.Collect$$libshutdown$$00000012  c_w.l(libshutdown2.o)
    0x08000208   0x08000208   0x00000000   Code   RO         4359    .ARM.Collect$$rtentry$$00000000  c_w.l(__rtentry.o)
    0x08000208   0x08000208   0x00000000   Code   RO         4460    .ARM.Collect$$rtentry$$00000002  c_w.l(__rtentry2.o)
    0x08000208   0x08000208   0x00000006   Code   RO         4472    .ARM.Collect$$rtentry$$00000004  c_w.l(__rtentry4.o)
    0x0800020e   0x0800020e   0x00000000   Code   RO         4462    .ARM.Collect$$rtentry$$00000009  c_w.l(__rtentry2.o)
    0x0800020e   0x0800020e   0x00000004   Code   RO         4463    .ARM.Collect$$rtentry$$0000000A  c_w.l(__rtentry2.o)
    0x08000212   0x08000212   0x00000000   Code   RO         4465    .ARM.Collect$$rtentry$$0000000C  c_w.l(__rtentry2.o)
    0x08000212   0x08000212   0x00000008   Code   RO         4466    .ARM.Collect$$rtentry$$0000000D  c_w.l(__rtentry2.o)
    0x0800021a   0x0800021a   0x00000002   Code   RO         4502    .ARM.Collect$$rtexit$$00000000  c_w.l(rtexit.o)
    0x0800021c   0x0800021c   0x00000000   Code   RO         4552    .ARM.Collect$$rtexit$$00000002  c_w.l(rtexit2.o)
    0x0800021c   0x0800021c   0x00000004   Code   RO         4553    .ARM.Collect$$rtexit$$00000003  c_w.l(rtexit2.o)
    0x08000220   0x08000220   0x00000006   Code   RO         4554    .ARM.Collect$$rtexit$$00000004  c_w.l(rtexit2.o)
    0x08000226   0x08000226   0x00000002   PAD
    0x08000228   0x08000228   0x00000040   Code   RO         4087    .text               startup_stm32f407xx.o
    0x08000268   0x08000268   0x00000002   Code   RO         4213    .text               c_w.l(use_no_semi.o)
    0x0800026a   0x0800026a   0x00000064   Code   RO         4215    .text               c_w.l(rt_memcpy_w.o)
    0x080002ce   0x080002ce   0x00000006   Code   RO         4217    .text               c_w.l(heapauxi.o)
    0x080002d4   0x080002d4   0x00000016   Code   RO         4360    .text               c_w.l(_rserrno.o)
    0x080002ea   0x080002ea   0x00000002   PAD
    0x080002ec   0x080002ec   0x00000008   Code   RO         4477    .text               c_w.l(rt_errno_addr_intlibspace.o)
    0x080002f4   0x080002f4   0x00000008   Code   RO         4487    .text               c_w.l(libspace.o)
    0x080002fc   0x080002fc   0x0000004a   Code   RO         4490    .text               c_w.l(sys_stackheap_outer.o)
    0x08000346   0x08000346   0x00000012   Code   RO         4492    .text               c_w.l(exit.o)
    0x08000358   0x08000358   0x00000090   Code   RO         2386    i.GPIO_Init         stm32f4xx_gpio.o
    0x080003e8   0x080003e8   0x00000046   Code   RO         2387    i.GPIO_PinAFConfig  stm32f4xx_gpio.o
    0x0800042e   0x0800042e   0x00000004   Code   RO         2393    i.GPIO_ResetBits    stm32f4xx_gpio.o
    0x08000432   0x08000432   0x00000004   Code   RO         2394    i.GPIO_SetBits      stm32f4xx_gpio.o
    0x08000436   0x08000436   0x00000002   PAD
    0x08000438   0x08000438   0x00000020   Code   RO         2721    i.RCC_AHB1PeriphClockCmd  stm32f4xx_rcc.o
    0x08000458   0x08000458   0x00000020   Code   RO         2730    i.RCC_APB1PeriphClockCmd  stm32f4xx_rcc.o
    0x08000478   0x08000478   0x00000020   Code   RO         2733    i.RCC_APB2PeriphClockCmd  stm32f4xx_rcc.o
    0x08000498   0x08000498   0x000000e8   Code   RO         2742    i.RCC_GetClocksFreq  stm32f4xx_rcc.o
    0x08000580   0x08000580   0x0000006c   Code   RO          745    i.SPI1_IRQHandler   spi_1.o
    0x080005ec   0x080005ec   0x00000012   Code   RO         3076    i.SPI_I2S_GetFlagStatus  stm32f4xx_spi.o
    0x080005fe   0x080005fe   0x00000002   PAD
    0x08000600   0x08000600   0x00000110   Code   RO         4094    i.SetSysClock       system_stm32f4xx.o
    0x08000710   0x08000710   0x00000018   Code   RO            4    i.SysTick_Handler   time_service.o
    0x08000728   0x08000728   0x00000068   Code   RO         4096    i.SystemInit        system_stm32f4xx.o
    0x08000790   0x08000790   0x00000020   Code   RO         3238    i.TIM_BDTRConfig    stm32f4xx_tim.o
    0x080007b0   0x080007b0   0x00000018   Code   RO         3249    i.TIM_Cmd           stm32f4xx_tim.o
    0x080007c8   0x080007c8   0x0000001e   Code   RO         3251    i.TIM_CtrlPWMOutputs  stm32f4xx_tim.o
    0x080007e6   0x080007e6   0x00000002   PAD
    0x080007e8   0x080007e8   0x0000007c   Code   RO         3278    i.TIM_OC1Init       stm32f4xx_tim.o
    0x08000864   0x08000864   0x000000a4   Code   RO         3283    i.TIM_OC2Init       stm32f4xx_tim.o
    0x08000908   0x08000908   0x000000a0   Code   RO         3288    i.TIM_OC3Init       stm32f4xx_tim.o
    0x080009a8   0x080009a8   0x00000078   Code   RO         3293    i.TIM_OC4Init       stm32f4xx_tim.o
    0x08000a20   0x08000a20   0x00000004   Code   RO         3311    i.TIM_SetCompare1   stm32f4xx_tim.o
    0x08000a24   0x08000a24   0x00000004   Code   RO         3312    i.TIM_SetCompare2   stm32f4xx_tim.o
    0x08000a28   0x08000a28   0x00000004   Code   RO         3313    i.TIM_SetCompare3   stm32f4xx_tim.o
    0x08000a2c   0x08000a2c   0x00000004   Code   RO         3314    i.TIM_SetCompare4   stm32f4xx_tim.o
    0x08000a30   0x08000a30   0x00000084   Code   RO         3321    i.TIM_TimeBaseInit  stm32f4xx_tim.o
    0x08000ab4   0x08000ab4   0x000000a0   Code   RO         1147    i.USART1_IRQHandler  usart1.o
    0x08000b54   0x08000b54   0x000000a8   Code   RO         1205    i.USART2_IRQHandler  usart2.o
    0x08000bfc   0x08000bfc   0x000000a8   Code   RO         1259    i.USART3_IRQHandler  usart3.o
    0x08000ca4   0x08000ca4   0x000000a8   Code   RO         1313    i.USART6_IRQHandler  usart6.o
    0x08000d4c   0x08000d4c   0x0000001e   Code   RO         3803    i.USART_ClearITPendingBit  stm32f4xx_usart.o
    0x08000d6a   0x08000d6a   0x00000018   Code   RO         3806    i.USART_Cmd         stm32f4xx_usart.o
    0x08000d82   0x08000d82   0x0000004a   Code   RO         3812    i.USART_ITConfig    stm32f4xx_usart.o
    0x08000dcc   0x08000dcc   0x000000d4   Code   RO         3813    i.USART_Init        stm32f4xx_usart.o
    0x08000ea0   0x08000ea0   0x00000018   Code   RO         3829    i.USART_StructInit  stm32f4xx_usart.o
    0x08000eb8   0x08000eb8   0x0000020c   Code   RO          990    i._ZN12omniplatform4moveEfffff  omniplatform.o
    0x080010c4   0x080010c4   0x00000044   Code   RO          992    i._ZN12omniplatformC1ER5MotorS1_S1_S1_  omniplatform.o
    0x08001108   0x08001108   0x00000060   Code   RO            5    i._ZN12time_service4initEv  time_service.o
    0x08001168   0x08001168   0x00000024   Code   RO            6    i._ZN12time_service5delayEj  time_service.o
    0x0800118c   0x0800118c   0x0000000c   Code   RO            7    i._ZN12time_service6millisEv  time_service.o
    0x08001198   0x08001198   0x00000012   Code   RO            9    i._ZN12time_service9startTimeEv  time_service.o
    0x080011aa   0x080011aa   0x00000038   Code   RO          419    i._ZN3I2C12generateStopEv  i2c.o
    0x080011e2   0x080011e2   0x0000004a   Code   RO          420    i._ZN3I2C13generateStartEv  i2c.o
    0x0800122c   0x0800122c   0x0000004e   Code   RO          421    i._ZN3I2C4readEv    i2c.o
    0x0800127a   0x0800127a   0x00000038   Code   RO          422    i._ZN3I2C4sendEh    i2c.o
    0x080012b2   0x080012b2   0x0000001c   Code   RO          423    i._ZN3I2C5delayEv   i2c.o
    0x080012ce   0x080012ce   0x0000000c   Code   RO          424    i._ZN3I2C6sclLowEv  i2c.o
    0x080012da   0x080012da   0x0000000e   Code   RO          425    i._ZN3I2C6sdaLowEv  i2c.o
    0x080012e8   0x080012e8   0x00000044   Code   RO          426    i._ZN3I2C7readAchEv  i2c.o
    0x0800132c   0x0800132c   0x0000000c   Code   RO          427    i._ZN3I2C7sclHighEv  i2c.o
    0x08001338   0x08001338   0x0000000e   Code   RO          429    i._ZN3I2C7sdaHighEv  i2c.o
    0x08001346   0x08001346   0x00000022   Code   RO          430    i._ZN3I2C7sdaReadEv  i2c.o
    0x08001368   0x08001368   0x0000003c   Code   RO          433    i._ZN3I2C8writeBitEb  i2c.o
    0x080013a4   0x080013a4   0x0000002e   Code   RO          434    i._ZN3I2CC1ER3PinS1_  i2c.o
    0x080013d2   0x080013d2   0x00000002   PAD
    0x080013d4   0x080013d4   0x00000134   Code   RO          181    i._ZN3Pin12RCC_ClockCmdEv  pin.o
    0x08001508   0x08001508   0x000000f4   Code   RO          182    i._ZN3Pin12setTimParamsEt  pin.o
    0x080015fc   0x080015fc   0x00000028   Code   RO          183    i._ZN3Pin13setAFforUSARTEt  pin.o
    0x08001624   0x08001624   0x00000044   Code   RO          184    i._ZN3Pin3pwmEj     pin.o
    0x08001668   0x08001668   0x00000006   Code   RO          186    i._ZN3Pin6getPinEv  pin.o
    0x0800166e   0x0800166e   0x00000010   Code   RO          187    i._ZN3Pin6setBitEv  pin.o
    0x0800167e   0x0800167e   0x000000cc   Code   RO          188    i._ZN3Pin6setPinEh  pin.o
    0x0800174a   0x0800174a   0x00000002   PAD
    0x0800174c   0x0800174c   0x00000108   Code   RO          189    i._ZN3Pin7pwmInitEsjh  pin.o
    0x08001854   0x08001854   0x00000074   Code   RO          190    i._ZN3Pin7setGPIOEc  pin.o
    0x080018c8   0x080018c8   0x00000006   Code   RO          191    i._ZN3Pin8getGPIOxEv  pin.o
    0x080018ce   0x080018ce   0x00000010   Code   RO          192    i._ZN3Pin8resetBitEv  pin.o
    0x080018de   0x080018de   0x00000008   Code   RO          193    i._ZN3Pin9getPeriodEv  pin.o
    0x080018e6   0x080018e6   0x00000002   PAD
    0x080018e8   0x080018e8   0x00000234   Code   RO          194    i._ZN3PinC1Echt     pin.o
    0x08001b1c   0x08001b1c   0x0000000c   Code   RO          536    i._ZN5Motor11getMaxSpeedEv  motor.o
    0x08001b28   0x08001b28   0x0000006c   Code   RO          537    i._ZN5Motor2goEs    motor.o
    0x08001b94   0x08001b94   0x00000022   Code   RO          539    i._ZN5MotorC1ER3PinS1_  motor.o
    0x08001bb6   0x08001bb6   0x00000002   PAD
    0x08001bb8   0x08001bb8   0x00000168   Code   RO         1148    i._ZN5uart110usart1InitEjfh  usart1.o
    0x08001d20   0x08001d20   0x00000048   Code   RO         1149    i._ZN5uart14readEv  usart1.o
    0x08001d68   0x08001d68   0x00000034   Code   RO         1151    i._ZN5uart19availableEv  usart1.o
    0x08001d9c   0x08001d9c   0x00000168   Code   RO         1206    i._ZN5uart210usart2InitEjfh  usart2.o
    0x08001f04   0x08001f04   0x00000048   Code   RO         1207    i._ZN5uart24readEv  usart2.o
    0x08001f4c   0x08001f4c   0x00000034   Code   RO         1209    i._ZN5uart29availableEv  usart2.o
    0x08001f80   0x08001f80   0x00000168   Code   RO         1260    i._ZN5uart310usart3InitEjfh  usart3.o
    0x080020e8   0x080020e8   0x00000048   Code   RO         1261    i._ZN5uart34readEv  usart3.o
    0x08002130   0x08002130   0x00000034   Code   RO         1263    i._ZN5uart39availableEv  usart3.o
    0x08002164   0x08002164   0x00000168   Code   RO         1314    i._ZN5uart610usart6InitEjfh  usart6.o
    0x080022cc   0x080022cc   0x00000048   Code   RO         1315    i._ZN5uart64readEv  usart6.o
    0x08002314   0x08002314   0x00000034   Code   RO         1317    i._ZN5uart69availableEv  usart6.o
    0x08002348   0x08002348   0x00000008   Code   RO         1045    i._ZN8gyro_imu11getRotationEv  imu_usart.o
    0x08002350   0x08002350   0x00000006   Code   RO         1046    i._ZN8gyro_imu12setZeroAngleEv  imu_usart.o
    0x08002356   0x08002356   0x00000008   Code   RO         1047    i._ZN8gyro_imu14getMaxRotationEv  imu_usart.o
    0x0800235e   0x0800235e   0x00000008   Code   RO         1048    i._ZN8gyro_imu15getCurrentAngleEv  imu_usart.o
    0x08002366   0x08002366   0x00000042   Code   RO         1049    i._ZN8gyro_imu20setRotationForTargetEv  imu_usart.o
    0x080023a8   0x080023a8   0x00000110   Code   RO         1050    i._ZN8gyro_imu4readEv  imu_usart.o
    0x080024b8   0x080024b8   0x00000020   Code   RO         1051    i._ZN8gyro_imu6adductEs  imu_usart.o
    0x080024d8   0x080024d8   0x00000056   Code   RO         1053    i._ZN8gyro_imu9initUSARTEh  imu_usart.o
    0x0800252e   0x0800252e   0x00000004   Code   RO         1054    i._ZN8gyro_imu9setTargetEs  imu_usart.o
    0x08002532   0x08002532   0x00000024   Code   RO         1055    i._ZN8gyro_imuC1ER3PinS1_h  imu_usart.o
    0x08002556   0x08002556   0x00000002   PAD
    0x08002558   0x08002558   0x00000188   Code   RO         1505    i._ZN9IRLocator11angleOffsetEff  ir_locator.o
    0x080026e0   0x080026e0   0x000000ac   Code   RO         1506    i._ZN9IRLocator11convertDistEd  ir_locator.o
    0x0800278c   0x0800278c   0x00000020   Code   RO         1507    i._ZN9IRLocator6adductEs  ir_locator.o
    0x080027ac   0x080027ac   0x00000008   Code   RO         1508    i._ZN9IRLocator7getDistEv  ir_locator.o
    0x080027b4   0x080027b4   0x00000066   Code   RO         1509    i._ZN9IRLocator8getAngleEv  ir_locator.o
    0x0800281a   0x0800281a   0x0000006a   Code   RO         1510    i._ZN9IRLocator8getValueEh  ir_locator.o
    0x08002884   0x08002884   0x0000001a   Code   RO         1511    i._ZN9IRLocatorC1ER3I2Cj  ir_locator.o
    0x0800289e   0x0800289e   0x00000018   Code   RO         1020    i._ZSt3sinf         omniplatform.o
    0x080028b6   0x080028b6   0x00000030   Code   RO         4412    i.__ARM_fpclassify  m_wm.l(fpclassify.o)
    0x080028e6   0x080028e6   0x00000026   Code   RO         4414    i.__ARM_fpclassifyf  m_wm.l(fpclassifyf.o)
    0x0800290c   0x0800290c   0x00000004   PAD
    0x08002910   0x08002910   0x00000c50   Code   RO         4321    i.__hardfp_pow      m_wm.l(pow.o)
    0x08003560   0x08003560   0x00000190   Code   RO         4347    i.__hardfp_sinf     m_wm.l(sinf.o)
    0x080036f0   0x080036f0   0x000000f8   Code   RO         4430    i.__kernel_poly     m_wm.l(poly.o)
    0x080037e8   0x080037e8   0x00000030   Code   RO         4392    i.__mathlib_dbl_divzero  m_wm.l(dunder.o)
    0x08003818   0x08003818   0x00000014   Code   RO         4394    i.__mathlib_dbl_infnan2  m_wm.l(dunder.o)
    0x0800382c   0x0800382c   0x00000004   PAD
    0x08003830   0x08003830   0x00000020   Code   RO         4395    i.__mathlib_dbl_invalid  m_wm.l(dunder.o)
    0x08003850   0x08003850   0x00000020   Code   RO         4396    i.__mathlib_dbl_overflow  m_wm.l(dunder.o)
    0x08003870   0x08003870   0x00000020   Code   RO         4398    i.__mathlib_dbl_underflow  m_wm.l(dunder.o)
    0x08003890   0x08003890   0x00000006   Code   RO         4417    i.__mathlib_flt_infnan  m_wm.l(funder.o)
    0x08003896   0x08003896   0x00000002   PAD
    0x08003898   0x08003898   0x00000010   Code   RO         4419    i.__mathlib_flt_invalid  m_wm.l(funder.o)
    0x080038a8   0x080038a8   0x00000010   Code   RO         4422    i.__mathlib_flt_underflow  m_wm.l(funder.o)
    0x080038b8   0x080038b8   0x00000154   Code   RO         4438    i.__mathlib_rredf2  m_wm.l(rredf.o)
    0x08003a0c   0x08003a0c   0x00000004   Code   RO         4000    i._sys_exit         retarget.o
    0x08003a10   0x08003a10   0x00000018   Code   RO         4408    i.fabs              m_wm.l(fabs.o)
    0x08003a28   0x08003a28   0x00000458   Code   RO         1589    i.main              main.o
    0x08003e80   0x08003e80   0x0000006e   Code   RO         4449    i.sqrt              m_wm.l(sqrt.o)
    0x08003eee   0x08003eee   0x00000018   Code   RO         4221    x$fpl$basic         fz_wm.l(basic.o)
    0x08003f06   0x08003f06   0x00000002   PAD
    0x08003f08   0x08003f08   0x00000062   Code   RO         4223    x$fpl$d2f           fz_wm.l(d2f.o)
    0x08003f6a   0x08003f6a   0x00000002   PAD
    0x08003f6c   0x08003f6c   0x00000150   Code   RO         4225    x$fpl$dadd          fz_wm.l(daddsub_clz.o)
    0x080040bc   0x080040bc   0x00000010   Code   RO         4479    x$fpl$dcheck1       fz_wm.l(dcheck1.o)
    0x080040cc   0x080040cc   0x00000018   Code   RO         4362    x$fpl$dcmpinf       fz_wm.l(dcmpi.o)
    0x080040e4   0x080040e4   0x000002b0   Code   RO         4232    x$fpl$ddiv          fz_wm.l(ddiv.o)
    0x08004394   0x08004394   0x00000078   Code   RO         4235    x$fpl$deqf          fz_wm.l(deqf.o)
    0x0800440c   0x0800440c   0x0000002e   Code   RO         4242    x$fpl$dflt          fz_wm.l(dflt_clz.o)
    0x0800443a   0x0800443a   0x00000002   PAD
    0x0800443c   0x0800443c   0x00000078   Code   RO         4251    x$fpl$dleqf         fz_wm.l(dleqf.o)
    0x080044b4   0x080044b4   0x00000154   Code   RO         4253    x$fpl$dmul          fz_wm.l(dmul.o)
    0x08004608   0x08004608   0x0000009c   Code   RO         4364    x$fpl$dnaninf       fz_wm.l(dnaninf.o)
    0x080046a4   0x080046a4   0x0000000c   Code   RO         4366    x$fpl$dretinf       fz_wm.l(dretinf.o)
    0x080046b0   0x080046b0   0x0000006c   Code   RO         4255    x$fpl$drleqf        fz_wm.l(drleqf.o)
    0x0800471c   0x0800471c   0x00000016   Code   RO         4226    x$fpl$drsb          fz_wm.l(daddsub_clz.o)
    0x08004732   0x08004732   0x00000002   PAD
    0x08004734   0x08004734   0x00000198   Code   RO         4485    x$fpl$dsqrt         fz_wm.l(dsqrt_umaal.o)
    0x080048cc   0x080048cc   0x000001d4   Code   RO         4227    x$fpl$dsub          fz_wm.l(daddsub_clz.o)
    0x08004aa0   0x08004aa0   0x00000056   Code   RO         4257    x$fpl$f2d           fz_wm.l(f2d.o)
    0x08004af6   0x08004af6   0x0000008c   Code   RO         4368    x$fpl$fnaninf       fz_wm.l(fnaninf.o)
    0x08004b82   0x08004b82   0x0000000a   Code   RO         4560    x$fpl$fpinit        fz_wm.l(fpinit.o)
    0x08004b8c   0x08004b8c   0x0000000a   Code   RO         4370    x$fpl$fretinf       fz_wm.l(fretinf.o)
    0x08004b96   0x08004b96   0x00000064   Code   RO         4500    x$fpl$retnan        fz_wm.l(retnan.o)
    0x08004bfa   0x08004bfa   0x0000005c   Code   RO         4372    x$fpl$scalbn        fz_wm.l(scalbn.o)
    0x08004c56   0x08004c56   0x00000030   Code   RO         4549    x$fpl$trapveneer    fz_wm.l(trapv.o)
    0x08004c86   0x08004c86   0x00000000   Code   RO         4374    x$fpl$usenofp       fz_wm.l(usenofp.o)
    0x08004c86   0x08004c86   0x0000003d   Data   RO         4013    .constdata          retarget.o
    0x08004cc3   0x08004cc3   0x00000005   PAD
    0x08004cc8   0x08004cc8   0x00000088   Data   RO         4324    .constdata          m_wm.l(pow.o)
    0x08004d50   0x08004d50   0x00000008   Data   RO         4432    .constdata          m_wm.l(qnan.o)
    0x08004d58   0x08004d58   0x00000020   Data   RO         4439    .constdata          m_wm.l(rredf.o)
    0x08004d78   0x08004d78   0x00000020   Data   RO         4621    Region$$Table       anon$$obj.o


    Execution Region RW_IRAM1 (Exec base: 0x20000000, Load base: 0x08004d98, Size: 0x00002008, Max: 0x00020000, ABSOLUTE)

    Exec Addr    Load Addr    Size         Type   Attr      Idx    E Section Name        Object

    0x20000000   0x08004d98   0x00000008   Data   RW           16    .data               time_service.o
    0x20000008   0x08004da0   0x00000016   Data   RW          756    .data               spi_1.o
    0x2000001e   0x08004db6   0x00000019   Data   RW         1157    .data               usart1.o
    0x20000037   0x08004dcf   0x00000001   PAD
    0x20000038   0x08004dd0   0x00000019   Data   RW         1215    .data               usart2.o
    0x20000051   0x08004de9   0x00000001   PAD
    0x20000052   0x08004dea   0x00000019   Data   RW         1269    .data               usart3.o
    0x2000006b   0x08004e03   0x00000001   PAD
    0x2000006c   0x08004e04   0x00000019   Data   RW         1323    .data               usart6.o
    0x20000085   0x08004e1d   0x00000010   Data   RW         2774    .data               stm32f4xx_rcc.o
    0x20000095   0x08004e2d   0x00000003   PAD
    0x20000098        -       0x00000020   Zero   RW          755    .bss                spi_1.o
    0x200000b8        -       0x00000060   Zero   RW         4488    .bss                c_w.l(libspace.o)
    0x20000118        -       0x00000f00   Zero   RW         4085    HEAP                startup_stm32f407xx.o
    0x20001018        -       0x00000ff0   Zero   RW         4084    STACK               startup_stm32f407xx.o


==============================================================================

Image component sizes


      Code (inc. data)   RO Data    RW Data    ZI Data      Debug   Object Name

         0          0          0          0          0       1456   adc.o
       552          0          0          0          0       7948   i2c.o
       526          4          0          0          0       6628   imu_usart.o
       838         76          0          0          0       6866   ir_locator.o
      1112         42          0          0          0       5183   main.o
         0          0          0          0          0     256592   misc.o
       154          0          0          0          0       2408   motor.o
       616         30          0          0          0       3990   omniplatform.o
      1860        216          0          0          0       9416   pin.o
         4          0         61          0          0       2600   retarget.o
       108         16          0         22         32       5946   spi_1.o
        64         26        392          0       7920        860   startup_stm32f407xx.o
       222          0          0          0          0       9887   stm32f4xx_gpio.o
       328         36          0         16          0      19975   stm32f4xx_rcc.o
        18          0          0          0          0       9384   stm32f4xx_spi.o
       802         66          0          0          0      27591   stm32f4xx_tim.o
       364          8          0          0          0      10059   stm32f4xx_usart.o
       376         26          0          0          0       1285   system_stm32f4xx.o
       186         22          0          8          0     321985   time_service.o
       644         98          0         25          0      33099   usart1.o
       652        100          0         25          0       3484   usart2.o
       652        100          0         25          0       3484   usart3.o
       652        100          0         25          0       3484   usart6.o

    ----------------------------------------------------------------------
     10746        966        490        152       7952     753610   Object Totals
         0          0         32          0          0          0   (incl. Generated)
        16          0          5          6          0          0   (incl. Padding)

    ----------------------------------------------------------------------

      Code (inc. data)   RO Data    RW Data    ZI Data      Debug   Library Member Name

         8          0          0          0          0         68   __main.o
         0          0          0          0          0          0   __rtentry.o
        12          0          0          0          0          0   __rtentry2.o
         6          0          0          0          0          0   __rtentry4.o
        52          8          0          0          0          0   __scatter.o
        26          0          0          0          0          0   __scatter_copy.o
        28          0          0          0          0          0   __scatter_zi.o
        22          0          0          0          0        100   _rserrno.o
        18          0          0          0          0         80   exit.o
         6          0          0          0          0        152   heapauxi.o
         2          0          0          0          0          0   libinit.o
         6          0          0          0          0          0   libinit2.o
         2          0          0          0          0          0   libshutdown.o
         2          0          0          0          0          0   libshutdown2.o
         8          4          0          0         96         68   libspace.o
         8          4          0          0          0         68   rt_errno_addr_intlibspace.o
       100          0          0          0          0         80   rt_memcpy_w.o
         2          0          0          0          0          0   rtexit.o
        10          0          0          0          0          0   rtexit2.o
        74          0          0          0          0         80   sys_stackheap_outer.o
         2          0          0          0          0         68   use_no_semi.o
        24          0          0          0          0        164   basic.o
        98          4          0          0          0        140   d2f.o
       826         16          0          0          0        492   daddsub_clz.o
        16          4          0          0          0        116   dcheck1.o
        24          0          0          0          0        116   dcmpi.o
       688        140          0          0          0        256   ddiv.o
       120          4          0          0          0        140   deqf.o
        46          0          0          0          0        116   dflt_clz.o
       120          4          0          0          0        140   dleqf.o
       340         12          0          0          0        152   dmul.o
       156          4          0          0          0        140   dnaninf.o
        12          0          0          0          0        116   dretinf.o
       108          0          0          0          0        128   drleqf.o
       408         56          0          0          0        168   dsqrt_umaal.o
        86          4          0          0          0        132   f2d.o
       140          4          0          0          0        132   fnaninf.o
        10          0          0          0          0        116   fpinit.o
        10          0          0          0          0        116   fretinf.o
       100          0          0          0          0        116   retnan.o
        92          0          0          0          0        116   scalbn.o
        48          0          0          0          0        116   trapv.o
         0          0          0          0          0          0   usenofp.o
       164         44          0          0          0        620   dunder.o
        24          0          0          0          0        124   fabs.o
        48          0          0          0          0        124   fpclassify.o
        38          0          0          0          0        116   fpclassifyf.o
        38         12          0          0          0        348   funder.o
       248          0          0          0          0        152   poly.o
      3152        296        136          0          0        352   pow.o
         0          0          8          0          0          0   qnan.o
       340         24         32          0          0        160   rredf.o
       400         56          0          0          0        212   sinf.o
       110          0          0          0          0        148   sqrt.o

    ----------------------------------------------------------------------
      8452        700        176          0         96       6348   Library Totals
        24          0          0          0          0          0   (incl. Padding)

    ----------------------------------------------------------------------

      Code (inc. data)   RO Data    RW Data    ZI Data      Debug   Library Name

       394         16          0          0         96        764   c_w.l
      3472        252          0          0          0       3228   fz_wm.l
      4562        432        176          0          0       2356   m_wm.l

    ----------------------------------------------------------------------
      8452        700        176          0         96       6348   Library Totals

    ----------------------------------------------------------------------

==============================================================================


      Code (inc. data)   RO Data    RW Data    ZI Data      Debug   

     19198       1666        666        152       8048     746498   Grand Totals
     19198       1666        666        152       8048     746498   ELF Image Totals
     19198       1666        666        152          0          0   ROM Totals

==============================================================================

    Total RO  Size (Code + RO Data)                19864 (  19.40kB)
    Total RW  Size (RW Data + ZI Data)              8200 (   8.01kB)
    Total ROM Size (Code + RO Data + RW Data)      20016 (  19.55kB)

==============================================================================

