Component: ARM Compiler 5.06 update 7 (build 960) Tool: armlink [4d3601]

==============================================================================

Section Cross References

    main.o(i._Z10writeFLASHh) refers to stm32f4xx_flash.o(i.FLASH_Unlock) for FLASH_Unlock
    main.o(i._Z10writeFLASHh) refers to stm32f4xx_flash.o(i.FLASH_EraseSector) for FLASH_EraseSector
    main.o(i._Z10writeFLASHh) refers to stm32f4xx_flash.o(i.FLASH_ProgramWord) for FLASH_ProgramWord
    main.o(i._Z10writeFLASHh) refers to stm32f4xx_flash.o(i.FLASH_Lock) for FLASH_Lock
    main.o(i._Z9readFLASHv) refers to stm32f4xx_flash.o(i.FLASH_Unlock) for FLASH_Unlock
    main.o(i._ZN8Asterisk10calibratedEv) refers to main.o(.data) for Asterisk::imuCalibrated
    main.o(i._ZN8Asterisk15forwardStrategyEv) refers to processing_coord.o(i._ZN15ProcessingCoord15getTarget2EnemyEv) for ProcessingCoord::getTarget2Enemy()
    main.o(i._ZN8Asterisk15forwardStrategyEv) refers to imu_usart.o(i._ZN8gyro_imu9setTargetEf) for gyro_imu::setTarget(float)
    main.o(i._ZN8Asterisk15forwardStrategyEv) refers to imu_usart.o(i._ZN8gyro_imu20setRotationForTargetEv) for gyro_imu::setRotationForTarget()
    main.o(i._ZN8Asterisk15forwardStrategyEv) refers to imu_usart.o(i._ZN8gyro_imu11getRotationEv) for gyro_imu::getRotation()
    main.o(i._ZN8Asterisk15forwardStrategyEv) refers to pin.o(i._ZN3Pin7readPinEv) for Pin::readPin()
    main.o(i._ZN8Asterisk15forwardStrategyEv) refers to processing_coord.o(i._ZN15ProcessingCoord19suitableParams2KickEv) for ProcessingCoord::suitableParams2Kick()
    main.o(i._ZN8Asterisk15forwardStrategyEv) refers to processing_coord.o(i._ZN15ProcessingCoord8distanceEffff) for ProcessingCoord::distance(float, float, float, float)
    main.o(i._ZN8Asterisk15forwardStrategyEv) refers to f2d.o(x$fpl$f2d) for __aeabi_f2d
    main.o(i._ZN8Asterisk15forwardStrategyEv) refers to dleqf.o(x$fpl$dleqf) for __aeabi_cdcmple
    main.o(i._ZN8Asterisk15forwardStrategyEv) refers to kicker.o(i._ZN6Kicker15setKickerStatusEb) for Kicker::setKickerStatus(bool)
    main.o(i._ZN8Asterisk15forwardStrategyEv) refers to kicker.o(i._ZN6Kicker7canKickEv) for Kicker::canKick()
    main.o(i._ZN8Asterisk15forwardStrategyEv) refers to kicker.o(i._ZN6Kicker5closeEv) for Kicker::close()
    main.o(i._ZN8Asterisk15forwardStrategyEv) refers to kicker.o(i._ZN6Kicker4openEv) for Kicker::open()
    main.o(i._ZN8Asterisk15forwardStrategyEv) refers to pin.o(i._ZN3Pin3setEb) for Pin::set(bool)
    main.o(i._ZN8Asterisk15forwardStrategyEv) refers to imu_usart.o(i._ZN8gyro_imu9getTargetEv) for gyro_imu::getTarget()
    main.o(i._ZN8Asterisk15forwardStrategyEv) refers to main.o(i._ZSt3absf) for std::abs(float)
    main.o(i._ZN8Asterisk15forwardStrategyEv) refers to main.o(i._ZN8Asterisk20getVec2bToBallFollowEv) for Asterisk::getVec2bToBallFollow()
    main.o(i._ZN8Asterisk15forwardStrategyEv) refers to processing_coord.o(i._ZN15ProcessingCoord9adduct180Es) for ProcessingCoord::adduct180(short)
    main.o(i._ZN8Asterisk15forwardStrategyEv) refers to forward.o(i._ZN7Forward9checkOUTsEv) for Forward::checkOUTs()
    main.o(i._ZN8Asterisk15forwardStrategyEv) refers to main.o(i._ZN7OutPairaSERKS_) for OutPair::operator =(const OutPair&)
    main.o(i._ZN8Asterisk15forwardStrategyEv) refers to forward.o(i._ZN7Forward10robotInOUTEv) for Forward::robotInOUT()
    main.o(i._ZN8Asterisk15forwardStrategyEv) refers to forward.o(i._ZN7Forward15setResOUTVectorE7OutPair5Vec2b) for Forward::setResOUTVector(OutPair, Vec2b)
    main.o(i._ZN8Asterisk15forwardStrategyEv) refers to forward.o(i._ZN7Forward16robotInFreeFieldEv) for Forward::robotInFreeField()
    main.o(i._ZN8Asterisk15forwardStrategyEv) refers to time_service.o(i._ZN12time_service6millisEv) for time_service::millis()
    main.o(i._ZN8Asterisk15forwardStrategyEv) refers to forward.o(i._ZN7Forward11resetCountsEv) for Forward::resetCounts()
    main.o(i._ZN8Asterisk15forwardStrategyEv) refers to processing_coord.o(i._ZN15ProcessingCoord13getVecToPointEss) for ProcessingCoord::getVecToPoint(short, short)
    main.o(i._ZN8Asterisk15forwardStrategyEv) refers to forward.o(i._ZN7Forward12robotNearOUTEh) for Forward::robotNearOUT(unsigned char)
    main.o(i._ZN8Asterisk15forwardStrategyEv) refers to main.o(i._ZSt5atan2ff) for std::atan2(float, float)
    main.o(i._ZN8Asterisk15forwardStrategyEv) refers to dmul.o(x$fpl$dmul) for __aeabi_dmul
    main.o(i._ZN8Asterisk15forwardStrategyEv) refers to d2f.o(x$fpl$d2f) for __aeabi_d2f
    main.o(i._ZN8Asterisk15forwardStrategyEv) refers to vec2b.o(i._ZN5Vec2bC1Edd) for Vec2b::Vec2b(double, double)
    main.o(i._ZN8Asterisk15forwardStrategyEv) refers to forward.o(i._ZN7Forward10nearMyGoalEv) for Forward::nearMyGoal()
    main.o(i._ZN8Asterisk15forwardStrategyEv) refers to processing_coord.o(i._ZN15ProcessingCoord10ballInBackEfh) for ProcessingCoord::ballInBack(float, unsigned char)
    main.o(i._ZN8Asterisk15forwardStrategyEv) refers to vec2b.o(i._ZN5Vec2bmLERKf) for Vec2b::operator *=(const float&)
    main.o(i._ZN8Asterisk15forwardStrategyEv) refers to forward.o(i._ZN7Forward11inEnemyGoalEv) for Forward::inEnemyGoal()
    main.o(i._ZN8Asterisk15forwardStrategyEv) refers to main.o(.data) for Asterisk::doesntSeeGoals
    main.o(i._ZN8Asterisk15forwardStrategyEv) refers to main.o(.bss) for Asterisk::myForward
    main.o(i._ZN8Asterisk15forwardStrategyEv) refers to vec2b.o(i._ZN5Vec2bplERKS_) for Vec2b::operator +(const Vec2b&)
    main.o(i._ZN8Asterisk15forwardStrategyEv) refers to forward.o(i._ZN7Forward8inMyGoalEv) for Forward::inMyGoal()
    main.o(i._ZN8Asterisk15forwardStrategyEv) refers to forward.o(i._ZN7Forward11vec2bOnGoalEff) for Forward::vec2bOnGoal(float, float)
    main.o(i._ZN8Asterisk15forwardStrategyEv) refers to forward.o(i._ZN7Forward10myGoalLineEss) for Forward::myGoalLine(short, short)
    main.o(i._ZN8Asterisk15forwardStrategyEv) refers to forward.o(i._ZN7Forward9ballInOUTEf) for Forward::ballInOUT(float)
    main.o(i._ZN8Asterisk15forwardStrategyEv) refers to drleqf.o(x$fpl$drleqf) for __aeabi_cdrcmple
    main.o(i._ZN8Asterisk15forwardStrategyEv) refers to vec2b.o(i._ZN5Vec2b8changeToES_) for Vec2b::changeTo(Vec2b)
    main.o(i._ZN8Asterisk15forwardStrategyEv) refers to imu_usart.o(i._ZN8gyro_imu14getMaxRotationEv) for gyro_imu::getMaxRotation()
    main.o(i._ZN8Asterisk15forwardStrategyEv) refers to omniplatform.o(i._ZN12omniplatform4moveEfffff) for omniplatform::move(float, float, float, float, float)
    main.o(i._ZN8Asterisk18goalkeeperStrategyEv) refers to processing_coord.o(i._ZN15ProcessingCoord15getTarget2EnemyEv) for ProcessingCoord::getTarget2Enemy()
    main.o(i._ZN8Asterisk18goalkeeperStrategyEv) refers to goalkeeper.o(i._ZN10Goalkeeper19getTargetGoalkeeperEv) for Goalkeeper::getTargetGoalkeeper()
    main.o(i._ZN8Asterisk18goalkeeperStrategyEv) refers to pin.o(i._ZN3Pin7readPinEv) for Pin::readPin()
    main.o(i._ZN8Asterisk18goalkeeperStrategyEv) refers to ballsensor.o(i._ZN10BallSensor18ballLongTimeInGripEv) for BallSensor::ballLongTimeInGrip()
    main.o(i._ZN8Asterisk18goalkeeperStrategyEv) refers to processing_coord.o(i._ZN15ProcessingCoord19suitableParams2KickEv) for ProcessingCoord::suitableParams2Kick()
    main.o(i._ZN8Asterisk18goalkeeperStrategyEv) refers to kicker.o(i._ZN6Kicker15setKickerStatusEb) for Kicker::setKickerStatus(bool)
    main.o(i._ZN8Asterisk18goalkeeperStrategyEv) refers to kicker.o(i._ZN6Kicker7canKickEv) for Kicker::canKick()
    main.o(i._ZN8Asterisk18goalkeeperStrategyEv) refers to kicker.o(i._ZN6Kicker5closeEv) for Kicker::close()
    main.o(i._ZN8Asterisk18goalkeeperStrategyEv) refers to kicker.o(i._ZN6Kicker4openEv) for Kicker::open()
    main.o(i._ZN8Asterisk18goalkeeperStrategyEv) refers to imu_usart.o(i._ZN8gyro_imu9setTargetEf) for gyro_imu::setTarget(float)
    main.o(i._ZN8Asterisk18goalkeeperStrategyEv) refers to imu_usart.o(i._ZN8gyro_imu20setRotationForTargetEv) for gyro_imu::setRotationForTarget()
    main.o(i._ZN8Asterisk18goalkeeperStrategyEv) refers to imu_usart.o(i._ZN8gyro_imu11getRotationEv) for gyro_imu::getRotation()
    main.o(i._ZN8Asterisk18goalkeeperStrategyEv) refers to pin.o(i._ZN3Pin3setEb) for Pin::set(bool)
    main.o(i._ZN8Asterisk18goalkeeperStrategyEv) refers to imu_usart.o(i._ZN8gyro_imu9getTargetEv) for gyro_imu::getTarget()
    main.o(i._ZN8Asterisk18goalkeeperStrategyEv) refers to main.o(i._ZSt3absf) for std::abs(float)
    main.o(i._ZN8Asterisk18goalkeeperStrategyEv) refers to main.o(i._ZN8Asterisk9mustLeaveEv) for Asterisk::mustLeave()
    main.o(i._ZN8Asterisk18goalkeeperStrategyEv) refers to vec2b.o(i._ZN5Vec2bC1Ev) for Vec2b::Vec2b()
    main.o(i._ZN8Asterisk18goalkeeperStrategyEv) refers to main.o(i._ZSt5atan2ff) for std::atan2(float, float)
    main.o(i._ZN8Asterisk18goalkeeperStrategyEv) refers to f2d.o(x$fpl$f2d) for __aeabi_f2d
    main.o(i._ZN8Asterisk18goalkeeperStrategyEv) refers to dmul.o(x$fpl$dmul) for __aeabi_dmul
    main.o(i._ZN8Asterisk18goalkeeperStrategyEv) refers to dfix.o(x$fpl$dfix) for __aeabi_d2iz
    main.o(i._ZN8Asterisk18goalkeeperStrategyEv) refers to processing_coord.o(i._ZN15ProcessingCoord6adductEs) for ProcessingCoord::adduct(short)
    main.o(i._ZN8Asterisk18goalkeeperStrategyEv) refers to tsop.o(i._ZN4TSOP7distBadEs) for TSOP::distBad(short)
    main.o(i._ZN8Asterisk18goalkeeperStrategyEv) refers to goalkeeper.o(i._ZN10Goalkeeper20getVecToIntersectionEs) for Goalkeeper::getVecToIntersection(short)
    main.o(i._ZN8Asterisk18goalkeeperStrategyEv) refers to processing_coord.o(i._ZN15ProcessingCoord13getVecToPointEss) for ProcessingCoord::getVecToPoint(short, short)
    main.o(i._ZN8Asterisk18goalkeeperStrategyEv) refers to vec2b.o(i._ZN5Vec2bC1Edd) for Vec2b::Vec2b(double, double)
    main.o(i._ZN8Asterisk18goalkeeperStrategyEv) refers to goalkeeper.o(i._ZN10Goalkeeper18getVecToGoalCenterEv) for Goalkeeper::getVecToGoalCenter()
    main.o(i._ZN8Asterisk18goalkeeperStrategyEv) refers to vec2b.o(i._ZN5Vec2bplERKS_) for Vec2b::operator +(const Vec2b&)
    main.o(i._ZN8Asterisk18goalkeeperStrategyEv) refers to goalkeeper.o(i._ZN10Goalkeeper13dist2GoalLongEv) for Goalkeeper::dist2GoalLong()
    main.o(i._ZN8Asterisk18goalkeeperStrategyEv) refers to time_service.o(i._ZN12time_service6millisEv) for time_service::millis()
    main.o(i._ZN8Asterisk18goalkeeperStrategyEv) refers to goalkeeper.o(i._ZN10Goalkeeper19getCurrentLeaveTimeEs) for Goalkeeper::getCurrentLeaveTime(short)
    main.o(i._ZN8Asterisk18goalkeeperStrategyEv) refers to goalkeeper.o(i._ZN10Goalkeeper19setAngleLeaveStatusEv) for Goalkeeper::setAngleLeaveStatus()
    main.o(i._ZN8Asterisk18goalkeeperStrategyEv) refers to imu_usart.o(i._ZN8gyro_imu13calculateSoftEffh) for gyro_imu::calculateSoft(float, float, unsigned char)
    main.o(i._ZN8Asterisk18goalkeeperStrategyEv) refers to dflt_clz.o(x$fpl$dflt) for __aeabi_i2d
    main.o(i._ZN8Asterisk18goalkeeperStrategyEv) refers to main.o(.data) for Asterisk::doesntSeeGoals
    main.o(i._ZN8Asterisk18goalkeeperStrategyEv) refers to main.o(.bss) for Asterisk::myGoalkeeper
    main.o(i._ZN8Asterisk18goalkeeperStrategyEv) refers to processing_coord.o(i._ZN15ProcessingCoord8distanceEffff) for ProcessingCoord::distance(float, float, float, float)
    main.o(i._ZN8Asterisk18goalkeeperStrategyEv) refers to dleqf.o(x$fpl$dleqf) for __aeabi_cdcmple
    main.o(i._ZN8Asterisk18goalkeeperStrategyEv) refers to processing_coord.o(i._ZN15ProcessingCoord10checkXLeftEsh) for ProcessingCoord::checkXLeft(short, unsigned char)
    main.o(i._ZN8Asterisk18goalkeeperStrategyEv) refers to processing_coord.o(i._ZN15ProcessingCoord11checkXRightEsh) for ProcessingCoord::checkXRight(short, unsigned char)
    main.o(i._ZN8Asterisk18goalkeeperStrategyEv) refers to drleqf.o(x$fpl$drleqf) for __aeabi_cdrcmple
    main.o(i._ZN8Asterisk18goalkeeperStrategyEv) refers to goalkeeper.o(i._ZN10Goalkeeper16angleStopLeavingEf) for Goalkeeper::angleStopLeaving(float)
    main.o(i._ZN8Asterisk18goalkeeperStrategyEv) refers to processing_coord.o(i._ZN15ProcessingCoord9adduct180Es) for ProcessingCoord::adduct180(short)
    main.o(i._ZN8Asterisk18goalkeeperStrategyEv) refers to tsop.o(i._ZN4TSOP7ballFarEf) for TSOP::ballFar(float)
    main.o(i._ZN8Asterisk18goalkeeperStrategyEv) refers to main.o(i._ZN8Asterisk20getVec2bToBallFollowEv) for Asterisk::getVec2bToBallFollow()
    main.o(i._ZN8Asterisk18goalkeeperStrategyEv) refers to goalkeeper.o(i._ZN10Goalkeeper16changeFromReturnEv) for Goalkeeper::changeFromReturn()
    main.o(i._ZN8Asterisk18goalkeeperStrategyEv) refers to vec2b.o(i._ZN5Vec2b8changeToES_) for Vec2b::changeTo(Vec2b)
    main.o(i._ZN8Asterisk18goalkeeperStrategyEv) refers to imu_usart.o(i._ZN8gyro_imu14getMaxRotationEv) for gyro_imu::getMaxRotation()
    main.o(i._ZN8Asterisk18goalkeeperStrategyEv) refers to d2f.o(x$fpl$d2f) for __aeabi_d2f
    main.o(i._ZN8Asterisk18goalkeeperStrategyEv) refers to omniplatform.o(i._ZN12omniplatform4moveEfffff) for omniplatform::move(float, float, float, float, float)
    main.o(i._ZN8Asterisk20getVec2bToBallFollowEv) refers to f2d.o(x$fpl$f2d) for __aeabi_f2d
    main.o(i._ZN8Asterisk20getVec2bToBallFollowEv) refers to tsop.o(i._ZN4TSOP11angleOffsetEddd) for TSOP::angleOffset(double, double, double)
    main.o(i._ZN8Asterisk20getVec2bToBallFollowEv) refers to d2f.o(x$fpl$d2f) for __aeabi_d2f
    main.o(i._ZN8Asterisk20getVec2bToBallFollowEv) refers to tsop.o(i._ZN4TSOP7ballFarEf) for TSOP::ballFar(float)
    main.o(i._ZN8Asterisk20getVec2bToBallFollowEv) refers to dmul.o(x$fpl$dmul) for __aeabi_dmul
    main.o(i._ZN8Asterisk20getVec2bToBallFollowEv) refers to drleqf.o(x$fpl$drleqf) for __aeabi_cdrcmple
    main.o(i._ZN8Asterisk20getVec2bToBallFollowEv) refers to main.o(i._ZSt3absf) for std::abs(float)
    main.o(i._ZN8Asterisk20getVec2bToBallFollowEv) refers to imu_usart.o(i._ZN8gyro_imu13calculateSoftEffh) for gyro_imu::calculateSoft(float, float, unsigned char)
    main.o(i._ZN8Asterisk20getVec2bToBallFollowEv) refers to processing_coord.o(i._ZN15ProcessingCoord15getTarget2EnemyEv) for ProcessingCoord::getTarget2Enemy()
    main.o(i._ZN8Asterisk20getVec2bToBallFollowEv) refers to processing_coord.o(i._ZN15ProcessingCoord6adductEs) for ProcessingCoord::adduct(short)
    main.o(i._ZN8Asterisk20getVec2bToBallFollowEv) refers to dflt_clz.o(x$fpl$dflt) for __aeabi_i2d
    main.o(i._ZN8Asterisk20getVec2bToBallFollowEv) refers to vec2b.o(i._ZN5Vec2bC1Edd) for Vec2b::Vec2b(double, double)
    main.o(i._ZN8Asterisk20getVec2bToBallFollowEv) refers to main.o(.data) for Asterisk::speedForward
    main.o(i._ZN8Asterisk20getVec2bToBallFollowEv) refers to main.o(.bss) for Asterisk::tsops
    main.o(i._ZN8Asterisk4initEhhh) refers to time_service.o(i._ZN12time_service4initEv) for time_service::init()
    main.o(i._ZN8Asterisk4initEhhh) refers to time_service.o(i._ZN12time_service9startTimeEv) for time_service::startTime()
    main.o(i._ZN8Asterisk4initEhhh) refers to time_service.o(i._ZN12time_service5delayEj) for time_service::delay(unsigned)
    main.o(i._ZN8Asterisk4initEhhh) refers to time_service.o(i._ZN12time_service6millisEv) for time_service::millis()
    main.o(i._ZN8Asterisk4initEhhh) refers to vec2b.o(i._ZN5Vec2bC1Edd) for Vec2b::Vec2b(double, double)
    main.o(i._ZN8Asterisk4initEhhh) refers to processing_coord.o(i._ZN15ProcessingCoord7setGoalEh) for ProcessingCoord::setGoal(unsigned char)
    main.o(i._ZN8Asterisk4initEhhh) refers to processing_coord.o(i._ZN15ProcessingCoord9setMaxLenEf) for ProcessingCoord::setMaxLen(float)
    main.o(i._ZN8Asterisk4initEhhh) refers to goalkeeper.o(i._ZN10Goalkeeper12setLeaveTimeEs) for Goalkeeper::setLeaveTime(short)
    main.o(i._ZN8Asterisk4initEhhh) refers to main.o(.data) for Asterisk::myGoal
    main.o(i._ZN8Asterisk4initEhhh) refers to main.o(.bss) for Asterisk::currentVector
    main.o(i._ZN8Asterisk6updateEv) refers to ballsensor.o(i._ZN10BallSensor8getValueEv) for BallSensor::getValue()
    main.o(i._ZN8Asterisk6updateEv) refers to ballsensor.o(i._ZN10BallSensor10ballInGripEv) for BallSensor::ballInGrip()
    main.o(i._ZN8Asterisk6updateEv) refers to openmv.o(i._ZN6OpenMV4readEv) for OpenMV::read()
    main.o(i._ZN8Asterisk6updateEv) refers to tsop.o(i._ZN4TSOP11updateTSOPsEv) for TSOP::updateTSOPs()
    main.o(i._ZN8Asterisk6updateEv) refers to tsop.o(i._ZN4TSOP9calculateEv) for TSOP::calculate()
    main.o(i._ZN8Asterisk6updateEv) refers to tsop.o(i._ZN4TSOP8getAngleEv) for TSOP::getAngle()
    main.o(i._ZN8Asterisk6updateEv) refers to tsop.o(i._ZN4TSOP7getDistEv) for TSOP::getDist()
    main.o(i._ZN8Asterisk6updateEv) refers to time_service.o(i._ZN12time_service6millisEv) for time_service::millis()
    main.o(i._ZN8Asterisk6updateEv) refers to f2d.o(x$fpl$f2d) for __aeabi_f2d
    main.o(i._ZN8Asterisk6updateEv) refers to vec2b.o(i._ZN5Vec2bC1Edd) for Vec2b::Vec2b(double, double)
    main.o(i._ZN8Asterisk6updateEv) refers to queues_ball.o(i._ZN9BallVec2b4pushE5Vec2bx) for BallVec2b::push(Vec2b, long long)
    main.o(i._ZN8Asterisk6updateEv) refers to pin.o(i._ZN3Pin7readPinEv) for Pin::readPin()
    main.o(i._ZN8Asterisk6updateEv) refers to pin.o(i._ZN3Pin3setEb) for Pin::set(bool)
    main.o(i._ZN8Asterisk6updateEv) refers to button.o(i._ZN6Button7pressedEv) for Button::pressed()
    main.o(i._ZN8Asterisk6updateEv) refers to omniplatform.o(i._ZN12omniplatform7disableEv) for omniplatform::disable()
    main.o(i._ZN8Asterisk6updateEv) refers to imu_usart.o(i._ZN8gyro_imu12setZeroAngleEv) for gyro_imu::setZeroAngle()
    main.o(i._ZN8Asterisk6updateEv) refers to openmv.o(i._ZN6OpenMV10initCoordsEv) for OpenMV::initCoords()
    main.o(i._ZN8Asterisk6updateEv) refers to processing_coord.o(i._ZN15ProcessingCoord7setGoalEh) for ProcessingCoord::setGoal(unsigned char)
    main.o(i._ZN8Asterisk6updateEv) refers to tsop.o(i._ZN4TSOP7distBadEs) for TSOP::distBad(short)
    main.o(i._ZN8Asterisk6updateEv) refers to main.o(i._ZSt3absf) for std::abs(float)
    main.o(i._ZN8Asterisk6updateEv) refers to queues_ball.o(i._ZN9BallVec2b16getDerivativeAngEv) for BallVec2b::getDerivativeAng()
    main.o(i._ZN8Asterisk6updateEv) refers to queues_ball.o(i._ZN9BallVec2b17getDerivativeDistEv) for BallVec2b::getDerivativeDist()
    main.o(i._ZN8Asterisk6updateEv) refers to imu_usart.o(i._ZN8gyro_imu4readEv) for gyro_imu::read()
    main.o(i._ZN8Asterisk6updateEv) refers to imu_usart.o(i._ZN8gyro_imu15getCurrentAngleEv) for gyro_imu::getCurrentAngle()
    main.o(i._ZN8Asterisk6updateEv) refers to openmv.o(i._ZN6OpenMV9calculateEsbb) for OpenMV::calculate(short, bool, bool)
    main.o(i._ZN8Asterisk6updateEv) refers to openmv.o(i._ZN6OpenMV11getDistBlueEv) for OpenMV::getDistBlue()
    main.o(i._ZN8Asterisk6updateEv) refers to openmv.o(i._ZN6OpenMV13getDistYellowEv) for OpenMV::getDistYellow()
    main.o(i._ZN8Asterisk6updateEv) refers to openmv.o(i._ZN6OpenMV4getXEv) for OpenMV::getX()
    main.o(i._ZN8Asterisk6updateEv) refers to openmv.o(i._ZN6OpenMV4getYEv) for OpenMV::getY()
    main.o(i._ZN8Asterisk6updateEv) refers to processing_coord.o(i._ZN15ProcessingCoord9setParamsEsssss) for ProcessingCoord::setParams(short, short, short, short, short)
    main.o(i._ZN8Asterisk6updateEv) refers to openmv.o(i._ZN6OpenMV14getAngleYellowEv) for OpenMV::getAngleYellow()
    main.o(i._ZN8Asterisk6updateEv) refers to openmv.o(i._ZN6OpenMV12getAngleBlueEv) for OpenMV::getAngleBlue()
    main.o(i._ZN8Asterisk6updateEv) refers to voltage.o(i._ZN14VoltageDividor10getVoltageEv) for VoltageDividor::getVoltage()
    main.o(i._ZN8Asterisk6updateEv) refers to d2f.o(x$fpl$d2f) for __aeabi_d2f
    main.o(i._ZN8Asterisk6updateEv) refers to voltage.o(i._ZN14VoltageDividor10voltageLowEf) for VoltageDividor::voltageLow(float)
    main.o(i._ZN8Asterisk6updateEv) refers to main.o(.bss) for Asterisk::ballSens
    main.o(i._ZN8Asterisk6updateEv) refers to main.o(.data) for Asterisk::ballVal
    main.o(i._ZN8Asterisk6updateEv) refers to kicker.o(i._ZN6Kicker12getDMASignalEv) for Kicker::getDMASignal()
    main.o(i._ZN8Asterisk7getRoleEv) refers to main.o(.data) for Asterisk::myRole
    main.o(i._ZN8Asterisk9mustLeaveEv) refers to main.o(i._ZSt5atan2ff) for std::atan2(float, float)
    main.o(i._ZN8Asterisk9mustLeaveEv) refers to f2d.o(x$fpl$f2d) for __aeabi_f2d
    main.o(i._ZN8Asterisk9mustLeaveEv) refers to dmul.o(x$fpl$dmul) for __aeabi_dmul
    main.o(i._ZN8Asterisk9mustLeaveEv) refers to dfix.o(x$fpl$dfix) for __aeabi_d2iz
    main.o(i._ZN8Asterisk9mustLeaveEv) refers to time_service.o(i._ZN12time_service6millisEv) for time_service::millis()
    main.o(i._ZN8Asterisk9mustLeaveEv) refers to processing_coord.o(i._ZN15ProcessingCoord10ballInBackEfh) for ProcessingCoord::ballInBack(float, unsigned char)
    main.o(i._ZN8Asterisk9mustLeaveEv) refers to main.o(i._ZSt3absd) for std::abs(double)
    main.o(i._ZN8Asterisk9mustLeaveEv) refers to dleqf.o(x$fpl$dleqf) for __aeabi_cdcmple
    main.o(i._ZN8Asterisk9mustLeaveEv) refers to main.o(.data) for Asterisk::x
    main.o(i._ZN8Asterisk9mustLeaveEv) refers to main.o(.bss) for Asterisk::myGoalkeeper
    main.o(i.__sti___8_main_cpp_ab1d1ed5) refers to vec2b.o(i._ZN5Vec2bC1Ev) for Vec2b::Vec2b()
    main.o(i.__sti___8_main_cpp_ab1d1ed5) refers to main.o(i._ZN7OutPairC1Ev) for OutPair::OutPair()
    main.o(i.__sti___8_main_cpp_ab1d1ed5) refers to pin.o(i._ZN3PinC1Echt) for Pin::Pin(char, unsigned char, unsigned short)
    main.o(i.__sti___8_main_cpp_ab1d1ed5) refers to adc.o(i._ZN3AdcC1EP11ADC_TypeDefhh) for Adc::Adc(ADC_TypeDef*, unsigned char, unsigned char)
    main.o(i.__sti___8_main_cpp_ab1d1ed5) refers to dma.o(i._ZN3DmaC1EjR3AdcP18DMA_Stream_TypeDefjjh) for Dma::Dma(unsigned, Adc&, DMA_Stream_TypeDef*, unsigned, unsigned, unsigned char)
    main.o(i.__sti___8_main_cpp_ab1d1ed5) refers to voltage.o(i._ZN14VoltageDividorC1ER3Dma) for VoltageDividor::VoltageDividor(Dma&)
    main.o(i.__sti___8_main_cpp_ab1d1ed5) refers to ballsensor.o(i._ZN10BallSensorC1ER3Dma) for BallSensor::BallSensor(Dma&)
    main.o(i.__sti___8_main_cpp_ab1d1ed5) refers to tsop.o(i._ZN4TSOPC1ER3PinS1_S1_S1_S1_S1_) for TSOP::TSOP(Pin&, Pin&, Pin&, Pin&, Pin&, Pin&)
    main.o(i.__sti___8_main_cpp_ab1d1ed5) refers to openmv.o(i._ZN6OpenMVC1ER3PinS1_h) for OpenMV::OpenMV(Pin&, Pin&, unsigned char)
    main.o(i.__sti___8_main_cpp_ab1d1ed5) refers to imu_usart.o(i._ZN8gyro_imuC1ER3PinS1_h) for gyro_imu::gyro_imu(Pin&, Pin&, unsigned char)
    main.o(i.__sti___8_main_cpp_ab1d1ed5) refers to kicker.o(i._ZN6KickerC1ER3PinR3Dma) for Kicker::Kicker(Pin&, Dma&)
    main.o(i.__sti___8_main_cpp_ab1d1ed5) refers to rt_memcpy_w.o(.text) for __aeabi_memcpy4
    main.o(i.__sti___8_main_cpp_ab1d1ed5) refers to button.o(i._ZN6ButtonC1E3Pinb) for Button::Button(Pin, bool)
    main.o(i.__sti___8_main_cpp_ab1d1ed5) refers to motor.o(i._ZN5MotorC1ER3PinhS1_h) for Motor::Motor(Pin&, unsigned char, Pin&, unsigned char)
    main.o(i.__sti___8_main_cpp_ab1d1ed5) refers to omniplatform.o(i._ZN12omniplatformC1ER5MotorS1_S1_S1_) for omniplatform::omniplatform(Motor&, Motor&, Motor&, Motor&)
    main.o(i.__sti___8_main_cpp_ab1d1ed5) refers to queues_ball.o(i._ZN9BallVec2bC1Ev) for BallVec2b::BallVec2b()
    main.o(i.__sti___8_main_cpp_ab1d1ed5) refers to forward.o(i._ZN7ForwardC1Ev) for Forward::Forward()
    main.o(i.__sti___8_main_cpp_ab1d1ed5) refers to goalkeeper.o(i._ZN10GoalkeeperC1Ev) for Goalkeeper::Goalkeeper()
    main.o(i.__sti___8_main_cpp_ab1d1ed5) refers to main.o(.bss) for Asterisk::currentVector
    main.o(i.__sti___8_main_cpp_ab1d1ed5) refers to main.o(.data) for Asterisk::outStatus
    main.o(i.main) refers to main.o(i._ZN8Asterisk4initEhhh) for Asterisk::init(unsigned char, unsigned char, unsigned char)
    main.o(i.main) refers to vec2b.o(i._ZN5Vec2bC1Ev) for Vec2b::Vec2b()
    main.o(i.main) refers to pin.o(i._ZN3Pin7readPinEv) for Pin::readPin()
    main.o(i.main) refers to main.o(i._ZN8Asterisk6updateEv) for Asterisk::update()
    main.o(i.main) refers to processing_coord.o(i._ZN15ProcessingCoord9adduct180Es) for ProcessingCoord::adduct180(short)
    main.o(i.main) refers to d2f.o(x$fpl$d2f) for __aeabi_d2f
    main.o(i.main) refers to ballsensor.o(i._ZN10BallSensor8getValueEv) for BallSensor::getValue()
    main.o(i.main) refers to forward.o(i._ZN7Forward17isEnemyGoalCircleEssss) for Forward::isEnemyGoalCircle(short, short, short, short)
    main.o(i.main) refers to main.o(i._ZN8Asterisk10calibratedEv) for Asterisk::calibrated()
    main.o(i.main) refers to main.o(i._ZN8Asterisk7getRoleEv) for Asterisk::getRole()
    main.o(i.main) refers to main.o(i._ZN8Asterisk15forwardStrategyEv) for Asterisk::forwardStrategy()
    main.o(i.main) refers to main.o(i._ZN8Asterisk18goalkeeperStrategyEv) for Asterisk::goalkeeperStrategy()
    main.o(i.main) refers to main.o(.bss) for Asterisk::reset_imu_pin
    main.o(i.main) refers to main.o(.data) for Asterisk::NEED_TO_CALIBRATE
    main.o(.ARM.exidx) refers to main.o(i._Z13adduct180_360s) for i._Z13adduct180_360s
    main.o(.ARM.exidx) refers to main.o(i._Z13adduct360_180s) for i._Z13adduct360_180s
    main.o(.ARM.exidx) refers to main.o(i._Z6delay_i) for i._Z6delay_i
    main.o(.ARM.exidx) refers to main.o(i._Z4signf) for i._Z4signf
    main.o(.ARM.exidx) refers to main.o(i._Z10writeFLASHh) for i._Z10writeFLASHh
    main.o(.ARM.exidx) refers to main.o(i._Z9readFLASHv) for i._Z9readFLASHv
    main.o(.ARM.exidx) refers to main.o(i._ZN8Asterisk20getVec2bToBallFollowEv) for i._ZN8Asterisk20getVec2bToBallFollowEv
    main.o(.ARM.exidx) refers to main.o(i._ZN8Asterisk9mustLeaveEv) for i._ZN8Asterisk9mustLeaveEv
    main.o(.ARM.exidx) refers to main.o(i._ZN8Asterisk18goalkeeperStrategyEv) for i._ZN8Asterisk18goalkeeperStrategyEv
    main.o(.ARM.exidx) refers to main.o(i._ZN8Asterisk7getRoleEv) for i._ZN8Asterisk7getRoleEv
    main.o(.ARM.exidx) refers to main.o(i._ZN8Asterisk15forwardStrategyEv) for i._ZN8Asterisk15forwardStrategyEv
    main.o(.ARM.exidx) refers to main.o(i._ZN8Asterisk10calibratedEv) for i._ZN8Asterisk10calibratedEv
    main.o(.ARM.exidx) refers to main.o(i._ZN8Asterisk6updateEv) for i._ZN8Asterisk6updateEv
    main.o(.ARM.exidx) refers to main.o(i._ZN8Asterisk4initEhhh) for i._ZN8Asterisk4initEhhh
    main.o(.ARM.exidx) refers to main.o(i.main) for i.main
    main.o(.ARM.exidx) refers to main.o(i.__sti___8_main_cpp_ab1d1ed5) for i.__sti___8_main_cpp_ab1d1ed5
    main.o(.init_array) refers to main.o(i.__sti___8_main_cpp_ab1d1ed5) for __sti___8_main_cpp_ab1d1ed5
    main.o(.init_array) refers to init_aeabi.o(.text) for __cpp_initialize__aeabi_
    goalkeeper.o(i._ZN10Goalkeeper14getVecToReturnEv) refers to processing_coord.o(i._ZN15ProcessingCoord13getVecToPointEss) for ProcessingCoord::getVecToPoint(short, short)
    goalkeeper.o(i._ZN10Goalkeeper16angleStopLeavingEf) refers to time_service.o(i._ZN12time_service6millisEv) for time_service::millis()
    goalkeeper.o(i._ZN10Goalkeeper16angleStopLeavingEf) refers to main.o(i._ZSt3absf) for std::abs(float)
    goalkeeper.o(i._ZN10Goalkeeper16changeFromReturnEv) refers to dflt_clz.o(x$fpl$dflt) for __aeabi_i2d
    goalkeeper.o(i._ZN10Goalkeeper16changeFromReturnEv) refers to dleqf.o(x$fpl$dleqf) for __aeabi_cdcmple
    goalkeeper.o(i._ZN10Goalkeeper16getGoalkeeperPosEv) refers to main.o(i._ZSt5atan2ff) for std::atan2(float, float)
    goalkeeper.o(i._ZN10Goalkeeper16getGoalkeeperPosEv) refers to f2d.o(x$fpl$f2d) for __aeabi_f2d
    goalkeeper.o(i._ZN10Goalkeeper16getGoalkeeperPosEv) refers to dmul.o(x$fpl$dmul) for __aeabi_dmul
    goalkeeper.o(i._ZN10Goalkeeper16getGoalkeeperPosEv) refers to dfix.o(x$fpl$dfix) for __aeabi_d2iz
    goalkeeper.o(i._ZN10Goalkeeper17getTargetRadiusesEv) refers to main.o(i._ZSt5atan2ff) for std::atan2(float, float)
    goalkeeper.o(i._ZN10Goalkeeper17getTargetRadiusesEv) refers to f2d.o(x$fpl$f2d) for __aeabi_f2d
    goalkeeper.o(i._ZN10Goalkeeper17getTargetRadiusesEv) refers to dmul.o(x$fpl$dmul) for __aeabi_dmul
    goalkeeper.o(i._ZN10Goalkeeper17getTargetRadiusesEv) refers to daddsub_clz.o(x$fpl$dsub) for __aeabi_dsub
    goalkeeper.o(i._ZN10Goalkeeper17getTargetRadiusesEv) refers to dfix.o(x$fpl$dfix) for __aeabi_d2iz
    goalkeeper.o(i._ZN10Goalkeeper17getTargetRadiusesEv) refers to processing_coord.o(i._ZN15ProcessingCoord6adductEs) for ProcessingCoord::adduct(short)
    goalkeeper.o(i._ZN10Goalkeeper18getVecToGoalCenterEv) refers to vec2b.o(i._ZN5Vec2bC1Ev) for Vec2b::Vec2b()
    goalkeeper.o(i._ZN10Goalkeeper18getVecToGoalCenterEv) refers to goalkeeper.o(i._ZN10Goalkeeper16getGoalkeeperPosEv) for Goalkeeper::getGoalkeeperPos()
    goalkeeper.o(i._ZN10Goalkeeper18getVecToGoalCenterEv) refers to dflt_clz.o(x$fpl$dflt) for __aeabi_i2d
    goalkeeper.o(i._ZN10Goalkeeper18getVecToGoalCenterEv) refers to f2d.o(x$fpl$f2d) for __aeabi_f2d
    goalkeeper.o(i._ZN10Goalkeeper18getVecToGoalCenterEv) refers to vec2b.o(i._ZN5Vec2bC1Edd) for Vec2b::Vec2b(double, double)
    goalkeeper.o(i._ZN10Goalkeeper18getVecToGoalCenterEv) refers to goalkeeper.o(i._ZSt3powfi) for std::pow(float, int)
    goalkeeper.o(i._ZN10Goalkeeper18getVecToGoalCenterEv) refers to sqrtf.o(i.__hardfp_sqrtf) for __hardfp_sqrtf
    goalkeeper.o(i._ZN10Goalkeeper18getVecToGoalCenterEv) refers to goalkeeper.o(i._ZN10Goalkeeper17getTargetRadiusesEv) for Goalkeeper::getTargetRadiuses()
    goalkeeper.o(i._ZN10Goalkeeper18getVecToGoalCenterEv) refers to dleqf.o(x$fpl$dleqf) for __aeabi_cdcmple
    goalkeeper.o(i._ZN10Goalkeeper18getVecToGoalCenterEv) refers to goalkeeper.o(.data) for errOld
    goalkeeper.o(i._ZN10Goalkeeper19getCurrentLeaveTimeEs) refers to main.o(i._ZSt5atan2ff) for std::atan2(float, float)
    goalkeeper.o(i._ZN10Goalkeeper19getCurrentLeaveTimeEs) refers to f2d.o(x$fpl$f2d) for __aeabi_f2d
    goalkeeper.o(i._ZN10Goalkeeper19getCurrentLeaveTimeEs) refers to dmul.o(x$fpl$dmul) for __aeabi_dmul
    goalkeeper.o(i._ZN10Goalkeeper19getCurrentLeaveTimeEs) refers to dfix.o(x$fpl$dfix) for __aeabi_d2iz
    goalkeeper.o(i._ZN10Goalkeeper19getCurrentLeaveTimeEs) refers to goalkeeper.o(i._ZN10Goalkeeper16getGoalkeeperPosEv) for Goalkeeper::getGoalkeeperPos()
    goalkeeper.o(i._ZN10Goalkeeper19getCurrentLeaveTimeEs) refers to processing_coord.o(i._ZN15ProcessingCoord9adduct180Es) for ProcessingCoord::adduct180(short)
    goalkeeper.o(i._ZN10Goalkeeper19getTargetGoalkeeperEv) refers to main.o(i._ZSt5atan2ff) for std::atan2(float, float)
    goalkeeper.o(i._ZN10Goalkeeper19getTargetGoalkeeperEv) refers to f2d.o(x$fpl$f2d) for __aeabi_f2d
    goalkeeper.o(i._ZN10Goalkeeper19getTargetGoalkeeperEv) refers to dmul.o(x$fpl$dmul) for __aeabi_dmul
    goalkeeper.o(i._ZN10Goalkeeper19getTargetGoalkeeperEv) refers to daddsub_clz.o(x$fpl$dsub) for __aeabi_dsub
    goalkeeper.o(i._ZN10Goalkeeper19getTargetGoalkeeperEv) refers to dfix.o(x$fpl$dfix) for __aeabi_d2iz
    goalkeeper.o(i._ZN10Goalkeeper19getTargetGoalkeeperEv) refers to processing_coord.o(i._ZN15ProcessingCoord9adduct180Es) for ProcessingCoord::adduct180(short)
    goalkeeper.o(i._ZN10Goalkeeper20getCoeffToGoalCenterEf) refers to processing_coord.o(i._ZN15ProcessingCoord3mapEfffff) for ProcessingCoord::map(float, float, float, float, float)
    goalkeeper.o(i._ZN10Goalkeeper20getVecToIntersectionEs) refers to vec2b.o(i._ZN5Vec2bC1Ev) for Vec2b::Vec2b()
    goalkeeper.o(i._ZN10Goalkeeper20getVecToIntersectionEs) refers to main.o(i._ZSt5atan2ff) for std::atan2(float, float)
    goalkeeper.o(i._ZN10Goalkeeper20getVecToIntersectionEs) refers to f2d.o(x$fpl$f2d) for __aeabi_f2d
    goalkeeper.o(i._ZN10Goalkeeper20getVecToIntersectionEs) refers to dmul.o(x$fpl$dmul) for __aeabi_dmul
    goalkeeper.o(i._ZN10Goalkeeper20getVecToIntersectionEs) refers to dfix.o(x$fpl$dfix) for __aeabi_d2iz
    goalkeeper.o(i._ZN10Goalkeeper20getVecToIntersectionEs) refers to processing_coord.o(i._ZN15ProcessingCoord6adductEs) for ProcessingCoord::adduct(short)
    goalkeeper.o(i._ZN10Goalkeeper20getVecToIntersectionEs) refers to goalkeeper.o(i._ZN10Goalkeeper16getGoalkeeperPosEv) for Goalkeeper::getGoalkeeperPos()
    goalkeeper.o(i._ZN10Goalkeeper20getVecToIntersectionEs) refers to dflt_clz.o(x$fpl$dflt) for __aeabi_i2d
    goalkeeper.o(i._ZN10Goalkeeper20getVecToIntersectionEs) refers to vec2b.o(i._ZN5Vec2bC1Edd) for Vec2b::Vec2b(double, double)
    goalkeeper.o(i._ZN10Goalkeeper20getVecToIntersectionEs) refers to processing_coord.o(i._ZN15ProcessingCoord10ballInBackEfh) for ProcessingCoord::ballInBack(float, unsigned char)
    goalkeeper.o(i._ZN10Goalkeeper20getVecToIntersectionEs) refers to main.o(i._ZSt3absf) for std::abs(float)
    goalkeeper.o(i._ZN10Goalkeeper20getVecToIntersectionEs) refers to goalkeeper.o(i._ZSt3powff) for std::pow(float, float)
    goalkeeper.o(i._ZN10Goalkeeper20getVecToIntersectionEs) refers to daddsub_clz.o(x$fpl$dadd) for __aeabi_dadd
    goalkeeper.o(i._ZN10Goalkeeper20getVecToIntersectionEs) refers to dleqf.o(x$fpl$dleqf) for __aeabi_cdcmple
    goalkeeper.o(i._ZN10Goalkeeper20getVecToIntersectionEs) refers to drleqf.o(x$fpl$drleqf) for __aeabi_cdrcmple
    goalkeeper.o(i._ZN10Goalkeeper20getVecToIntersectionEs) refers to daddsub_clz.o(x$fpl$dsub) for __aeabi_dsub
    goalkeeper.o(i._ZN10GoalkeeperC1Ev) refers to processing_coord.o(i._ZN15ProcessingCoordC1Ev) for ProcessingCoord::ProcessingCoord()
    goalkeeper.o(.ARM.exidx) refers to goalkeeper.o(i._ZN10GoalkeeperC1Ev) for i._ZN10GoalkeeperC1Ev
    goalkeeper.o(.ARM.exidx) refers to goalkeeper.o(i._ZN10Goalkeeper12setLeaveTimeEs) for i._ZN10Goalkeeper12setLeaveTimeEs
    goalkeeper.o(.ARM.exidx) refers to goalkeeper.o(i._ZN10Goalkeeper16getGoalkeeperPosEv) for i._ZN10Goalkeeper16getGoalkeeperPosEv
    goalkeeper.o(.ARM.exidx) refers to goalkeeper.o(i._ZN10Goalkeeper20getVecToIntersectionEs) for i._ZN10Goalkeeper20getVecToIntersectionEs
    goalkeeper.o(.ARM.exidx) refers to goalkeeper.o(i._ZN10Goalkeeper20getCoeffToGoalCenterEf) for i._ZN10Goalkeeper20getCoeffToGoalCenterEf
    goalkeeper.o(.ARM.exidx) refers to goalkeeper.o(i._ZN10Goalkeeper17getTargetRadiusesEv) for i._ZN10Goalkeeper17getTargetRadiusesEv
    goalkeeper.o(.ARM.exidx) refers to goalkeeper.o(i._ZN10Goalkeeper18getVecToGoalCenterEv) for i._ZN10Goalkeeper18getVecToGoalCenterEv
    goalkeeper.o(.ARM.exidx) refers to goalkeeper.o(i._ZN10Goalkeeper19getTargetGoalkeeperEv) for i._ZN10Goalkeeper19getTargetGoalkeeperEv
    goalkeeper.o(.ARM.exidx) refers to goalkeeper.o(i._ZN10Goalkeeper19setAngleLeaveStatusEv) for i._ZN10Goalkeeper19setAngleLeaveStatusEv
    goalkeeper.o(.ARM.exidx) refers to goalkeeper.o(i._ZN10Goalkeeper14getVecToReturnEv) for i._ZN10Goalkeeper14getVecToReturnEv
    goalkeeper.o(.ARM.exidx) refers to goalkeeper.o(i._ZN10Goalkeeper19getCurrentLeaveTimeEs) for i._ZN10Goalkeeper19getCurrentLeaveTimeEs
    goalkeeper.o(.ARM.exidx) refers to goalkeeper.o(i._ZN10Goalkeeper16changeFromReturnEv) for i._ZN10Goalkeeper16changeFromReturnEv
    goalkeeper.o(.ARM.exidx) refers to goalkeeper.o(i._ZN10Goalkeeper16angleStopLeavingEf) for i._ZN10Goalkeeper16angleStopLeavingEf
    goalkeeper.o(.ARM.exidx) refers to goalkeeper.o(i._ZN10Goalkeeper13dist2GoalLongEv) for i._ZN10Goalkeeper13dist2GoalLongEv
    forward.o(i._ZN7Forward10myGoalLineEss) refers to main.o(i._ZSt5atan2ff) for std::atan2(float, float)
    forward.o(i._ZN7Forward10myGoalLineEss) refers to f2d.o(x$fpl$f2d) for __aeabi_f2d
    forward.o(i._ZN7Forward10myGoalLineEss) refers to dmul.o(x$fpl$dmul) for __aeabi_dmul
    forward.o(i._ZN7Forward10myGoalLineEss) refers to dfix.o(x$fpl$dfix) for __aeabi_d2iz
    forward.o(i._ZN7Forward10nearMyGoalEv) refers to main.o(i._ZSt5atan2ff) for std::atan2(float, float)
    forward.o(i._ZN7Forward10nearMyGoalEv) refers to f2d.o(x$fpl$f2d) for __aeabi_f2d
    forward.o(i._ZN7Forward10nearMyGoalEv) refers to dmul.o(x$fpl$dmul) for __aeabi_dmul
    forward.o(i._ZN7Forward10nearMyGoalEv) refers to dfix.o(x$fpl$dfix) for __aeabi_d2iz
    forward.o(i._ZN7Forward10nearMyGoalEv) refers to processing_coord.o(i._ZN15ProcessingCoord8distanceEffff) for ProcessingCoord::distance(float, float, float, float)
    forward.o(i._ZN7Forward10setVec2OutEh5Vec2b) refers to processing_coord.o(i._ZN15ProcessingCoord6adductEs) for ProcessingCoord::adduct(short)
    forward.o(i._ZN7Forward10setVec2OutEh5Vec2b) refers to dflt_clz.o(x$fpl$dflt) for __aeabi_i2d
    forward.o(i._ZN7Forward10setVec2OutEh5Vec2b) refers to f2d.o(x$fpl$f2d) for __aeabi_f2d
    forward.o(i._ZN7Forward10setVec2OutEh5Vec2b) refers to vec2b.o(i._ZN5Vec2bC1Edd) for Vec2b::Vec2b(double, double)
    forward.o(i._ZN7Forward10setVec2OutEh5Vec2b) refers to forward.o(i._ZN7Forward13projectionOnYE5Vec2b) for Forward::projectionOnY(Vec2b)
    forward.o(i._ZN7Forward10setVec2OutEh5Vec2b) refers to vec2b.o(i._ZN5Vec2bplERKS_) for Vec2b::operator +(const Vec2b&)
    forward.o(i._ZN7Forward10setVec2OutEh5Vec2b) refers to forward.o(i._ZN7Forward20getVecForEnemyCircleEss) for Forward::getVecForEnemyCircle(short, short)
    forward.o(i._ZN7Forward10setVec2OutEh5Vec2b) refers to forward.o(i._ZN7Forward17getVecForMyCircleEss) for Forward::getVecForMyCircle(short, short)
    forward.o(i._ZN7Forward11inEnemyGoalEv) refers to forward.o(i._ZN7Forward13enemyGoalLineEss) for Forward::enemyGoalLine(short, short)
    forward.o(i._ZN7Forward11inEnemyGoalEv) refers to forward.o(i._ZN7Forward17isEnemyGoalCircleEssss) for Forward::isEnemyGoalCircle(short, short, short, short)
    forward.o(i._ZN7Forward11vec2bOnGoalEff) refers to main.o(i._ZSt5atan2ff) for std::atan2(float, float)
    forward.o(i._ZN7Forward11vec2bOnGoalEff) refers to f2d.o(x$fpl$f2d) for __aeabi_f2d
    forward.o(i._ZN7Forward11vec2bOnGoalEff) refers to dmul.o(x$fpl$dmul) for __aeabi_dmul
    forward.o(i._ZN7Forward11vec2bOnGoalEff) refers to dfix.o(x$fpl$dfix) for __aeabi_d2iz
    forward.o(i._ZN7Forward11vec2bOnGoalEff) refers to processing_coord.o(i._ZN15ProcessingCoord9adduct180Es) for ProcessingCoord::adduct180(short)
    forward.o(i._ZN7Forward11vec2bOnGoalEff) refers to forward.o(i._ZN7Forward11getBallSideEf) for Forward::getBallSide(float)
    forward.o(i._ZN7Forward11vec2bOnGoalEff) refers to processing_coord.o(i._ZN15ProcessingCoord6adductEs) for ProcessingCoord::adduct(short)
    forward.o(i._ZN7Forward11vec2bOnGoalEff) refers to vec2b.o(i._ZN5Vec2bC1Edd) for Vec2b::Vec2b(double, double)
    forward.o(i._ZN7Forward12setNearSpeedEhf) refers to processing_coord.o(i._ZN15ProcessingCoord3mapEfffff) for ProcessingCoord::map(float, float, float, float, float)
    forward.o(i._ZN7Forward13enemyGoalLineEss) refers to main.o(i._ZSt5atan2ff) for std::atan2(float, float)
    forward.o(i._ZN7Forward13enemyGoalLineEss) refers to f2d.o(x$fpl$f2d) for __aeabi_f2d
    forward.o(i._ZN7Forward13enemyGoalLineEss) refers to dmul.o(x$fpl$dmul) for __aeabi_dmul
    forward.o(i._ZN7Forward13enemyGoalLineEss) refers to dfix.o(x$fpl$dfix) for __aeabi_d2iz
    forward.o(i._ZN7Forward13nearEnemyGoalEv) refers to main.o(i._ZSt5atan2ff) for std::atan2(float, float)
    forward.o(i._ZN7Forward13nearEnemyGoalEv) refers to f2d.o(x$fpl$f2d) for __aeabi_f2d
    forward.o(i._ZN7Forward13nearEnemyGoalEv) refers to dmul.o(x$fpl$dmul) for __aeabi_dmul
    forward.o(i._ZN7Forward13nearEnemyGoalEv) refers to dfix.o(x$fpl$dfix) for __aeabi_d2iz
    forward.o(i._ZN7Forward13nearEnemyGoalEv) refers to dflt_clz.o(x$fpl$dflt) for __aeabi_i2d
    forward.o(i._ZN7Forward13nearEnemyGoalEv) refers to dleqf.o(x$fpl$dleqf) for __aeabi_cdcmple
    forward.o(i._ZN7Forward13nearEnemyGoalEv) refers to processing_coord.o(i._ZN15ProcessingCoord8distanceEffff) for ProcessingCoord::distance(float, float, float, float)
    forward.o(i._ZN7Forward13projectionOnYE5Vec2b) refers to dmul.o(x$fpl$dmul) for __aeabi_dmul
    forward.o(i._ZN7Forward13projectionOnYE5Vec2b) refers to sin.o(i.__hardfp_sin) for __hardfp_sin
    forward.o(i._ZN7Forward13projectionOnYE5Vec2b) refers to d2f.o(x$fpl$d2f) for __aeabi_d2f
    forward.o(i._ZN7Forward13projectionOnYE5Vec2b) refers to f2d.o(x$fpl$f2d) for __aeabi_f2d
    forward.o(i._ZN7Forward13projectionOnYE5Vec2b) refers to vec2b.o(i._ZN5Vec2bC1Edd) for Vec2b::Vec2b(double, double)
    forward.o(i._ZN7Forward14isMyGoalCircleEssss) refers to main.o(i._ZSt5atan2ff) for std::atan2(float, float)
    forward.o(i._ZN7Forward14isMyGoalCircleEssss) refers to f2d.o(x$fpl$f2d) for __aeabi_f2d
    forward.o(i._ZN7Forward14isMyGoalCircleEssss) refers to dmul.o(x$fpl$dmul) for __aeabi_dmul
    forward.o(i._ZN7Forward14isMyGoalCircleEssss) refers to dfix.o(x$fpl$dfix) for __aeabi_d2iz
    forward.o(i._ZN7Forward14isMyGoalCircleEssss) refers to processing_coord.o(i._ZN15ProcessingCoord8distanceEffff) for ProcessingCoord::distance(float, float, float, float)
    forward.o(i._ZN7Forward15setResOUTVectorE7OutPair5Vec2b) refers to forward.o(i._ZN7Forward10setVec2OutEh5Vec2b) for Forward::setVec2Out(unsigned char, Vec2b)
    forward.o(i._ZN7Forward15setResOUTVectorE7OutPair5Vec2b) refers to deqf.o(x$fpl$deqf) for __aeabi_cdcmpeq
    forward.o(i._ZN7Forward15setResOUTVectorE7OutPair5Vec2b) refers to vec2b.o(i._ZN5Vec2bplERKS_) for Vec2b::operator +(const Vec2b&)
    forward.o(i._ZN7Forward15setResOUTVectorE7OutPair5Vec2b) refers to vec2b.o(i._ZN5Vec2bmLERKf) for Vec2b::operator *=(const float&)
    forward.o(i._ZN7Forward17getVecForMyCircleEss) refers to main.o(i._ZSt5atan2ff) for std::atan2(float, float)
    forward.o(i._ZN7Forward17getVecForMyCircleEss) refers to f2d.o(x$fpl$f2d) for __aeabi_f2d
    forward.o(i._ZN7Forward17getVecForMyCircleEss) refers to dmul.o(x$fpl$dmul) for __aeabi_dmul
    forward.o(i._ZN7Forward17getVecForMyCircleEss) refers to d2f.o(x$fpl$d2f) for __aeabi_d2f
    forward.o(i._ZN7Forward17getVecForMyCircleEss) refers to processing_coord.o(i._ZN15ProcessingCoord6adductEs) for ProcessingCoord::adduct(short)
    forward.o(i._ZN7Forward17getVecForMyCircleEss) refers to dflt_clz.o(x$fpl$dflt) for __aeabi_i2d
    forward.o(i._ZN7Forward17getVecForMyCircleEss) refers to vec2b.o(i._ZN5Vec2bC1Edd) for Vec2b::Vec2b(double, double)
    forward.o(i._ZN7Forward17isEnemyGoalCircleEssss) refers to main.o(i._ZSt5atan2ff) for std::atan2(float, float)
    forward.o(i._ZN7Forward17isEnemyGoalCircleEssss) refers to f2d.o(x$fpl$f2d) for __aeabi_f2d
    forward.o(i._ZN7Forward17isEnemyGoalCircleEssss) refers to dmul.o(x$fpl$dmul) for __aeabi_dmul
    forward.o(i._ZN7Forward17isEnemyGoalCircleEssss) refers to dfix.o(x$fpl$dfix) for __aeabi_d2iz
    forward.o(i._ZN7Forward17isEnemyGoalCircleEssss) refers to processing_coord.o(i._ZN15ProcessingCoord8distanceEffff) for ProcessingCoord::distance(float, float, float, float)
    forward.o(i._ZN7Forward17isEnemyGoalCircleEssss) refers to dleqf.o(x$fpl$dleqf) for __aeabi_cdcmple
    forward.o(i._ZN7Forward20getVecForEnemyCircleEss) refers to main.o(i._ZSt5atan2ff) for std::atan2(float, float)
    forward.o(i._ZN7Forward20getVecForEnemyCircleEss) refers to f2d.o(x$fpl$f2d) for __aeabi_f2d
    forward.o(i._ZN7Forward20getVecForEnemyCircleEss) refers to dmul.o(x$fpl$dmul) for __aeabi_dmul
    forward.o(i._ZN7Forward20getVecForEnemyCircleEss) refers to d2f.o(x$fpl$d2f) for __aeabi_d2f
    forward.o(i._ZN7Forward20getVecForEnemyCircleEss) refers to processing_coord.o(i._ZN15ProcessingCoord6adductEs) for ProcessingCoord::adduct(short)
    forward.o(i._ZN7Forward20getVecForEnemyCircleEss) refers to dflt_clz.o(x$fpl$dflt) for __aeabi_i2d
    forward.o(i._ZN7Forward20getVecForEnemyCircleEss) refers to vec2b.o(i._ZN5Vec2bC1Edd) for Vec2b::Vec2b(double, double)
    forward.o(i._ZN7Forward8inMyGoalEv) refers to forward.o(i._ZN7Forward10myGoalLineEss) for Forward::myGoalLine(short, short)
    forward.o(i._ZN7Forward8inMyGoalEv) refers to forward.o(i._ZN7Forward14isMyGoalCircleEssss) for Forward::isMyGoalCircle(short, short, short, short)
    forward.o(i._ZN7Forward9ballInOUTEf) refers to forward.o(i._ZN7Forward17isEnemyGoalCircleEssss) for Forward::isEnemyGoalCircle(short, short, short, short)
    forward.o(i._ZN7Forward9ballInOUTEf) refers to forward.o(i._ZN7Forward14isMyGoalCircleEssss) for Forward::isMyGoalCircle(short, short, short, short)
    forward.o(i._ZN7Forward9checkOUTsEv) refers to processing_coord.o(i._ZN15ProcessingCoord8checkYUpEs) for ProcessingCoord::checkYUp(short)
    forward.o(i._ZN7Forward9checkOUTsEv) refers to forward.o(i._ZN7OutPair6setOutEh) for OutPair::setOut(unsigned char)
    forward.o(i._ZN7Forward9checkOUTsEv) refers to processing_coord.o(i._ZN15ProcessingCoord10checkXLeftEsh) for ProcessingCoord::checkXLeft(short, unsigned char)
    forward.o(i._ZN7Forward9checkOUTsEv) refers to processing_coord.o(i._ZN15ProcessingCoord11checkXRightEsh) for ProcessingCoord::checkXRight(short, unsigned char)
    forward.o(i._ZN7Forward9checkOUTsEv) refers to processing_coord.o(i._ZN15ProcessingCoord10checkYDownEs) for ProcessingCoord::checkYDown(short)
    forward.o(i._ZN7Forward9checkOUTsEv) refers to forward.o(i._ZN7Forward10myGoalLineEss) for Forward::myGoalLine(short, short)
    forward.o(i._ZN7Forward9checkOUTsEv) refers to forward.o(i._ZN7Forward13enemyGoalLineEss) for Forward::enemyGoalLine(short, short)
    forward.o(i._ZN7Forward9checkOUTsEv) refers to forward.o(i._ZN7Forward14isMyGoalCircleEssss) for Forward::isMyGoalCircle(short, short, short, short)
    forward.o(i._ZN7Forward9checkOUTsEv) refers to forward.o(i._ZN7Forward17isEnemyGoalCircleEssss) for Forward::isEnemyGoalCircle(short, short, short, short)
    forward.o(i._ZN7ForwardC1Ev) refers to processing_coord.o(i._ZN15ProcessingCoordC1Ev) for ProcessingCoord::ProcessingCoord()
    forward.o(.ARM.exidx) refers to forward.o(i._ZN7ForwardC1Ev) for i._ZN7ForwardC1Ev
    forward.o(.ARM.exidx) refers to forward.o(i._ZN7Forward11resetCountsEv) for i._ZN7Forward11resetCountsEv
    forward.o(.ARM.exidx) refers to forward.o(i._ZN7Forward17getVecForMyCircleEss) for i._ZN7Forward17getVecForMyCircleEss
    forward.o(.ARM.exidx) refers to forward.o(i._ZN7Forward20getVecForEnemyCircleEss) for i._ZN7Forward20getVecForEnemyCircleEss
    forward.o(.ARM.exidx) refers to forward.o(i._ZN7Forward13projectionOnYE5Vec2b) for i._ZN7Forward13projectionOnYE5Vec2b
    forward.o(.ARM.exidx) refers to forward.o(i._ZN7Forward10setVec2OutEh5Vec2b) for i._ZN7Forward10setVec2OutEh5Vec2b
    forward.o(.ARM.exidx) refers to forward.o(i._ZN7Forward15setResOUTVectorE7OutPair5Vec2b) for i._ZN7Forward15setResOUTVectorE7OutPair5Vec2b
    forward.o(.ARM.exidx) refers to forward.o(i._ZN7Forward11getBallSideEf) for i._ZN7Forward11getBallSideEf
    forward.o(.ARM.exidx) refers to forward.o(i._ZN7Forward11vec2bOnGoalEff) for i._ZN7Forward11vec2bOnGoalEff
    forward.o(.ARM.exidx) refers to forward.o(i._ZN7Forward17isEnemyGoalCircleEssss) for i._ZN7Forward17isEnemyGoalCircleEssss
    forward.o(.ARM.exidx) refers to forward.o(i._ZN7Forward14isMyGoalCircleEssss) for i._ZN7Forward14isMyGoalCircleEssss
    forward.o(.ARM.exidx) refers to forward.o(i._ZN7Forward13enemyGoalLineEss) for i._ZN7Forward13enemyGoalLineEss
    forward.o(.ARM.exidx) refers to forward.o(i._ZN7Forward10myGoalLineEss) for i._ZN7Forward10myGoalLineEss
    forward.o(.ARM.exidx) refers to forward.o(i._ZN7Forward9checkOUTsEv) for i._ZN7Forward9checkOUTsEv
    forward.o(.ARM.exidx) refers to forward.o(i._ZN7Forward12setNearSpeedEhf) for i._ZN7Forward12setNearSpeedEhf
    forward.o(.ARM.exidx) refers to forward.o(i._ZN7Forward12robotNearOUTEh) for i._ZN7Forward12robotNearOUTEh
    forward.o(.ARM.exidx) refers to forward.o(i._ZN7Forward9ballInOUTEf) for i._ZN7Forward9ballInOUTEf
    forward.o(.ARM.exidx) refers to forward.o(i._ZN7Forward11inEnemyGoalEv) for i._ZN7Forward11inEnemyGoalEv
    forward.o(.ARM.exidx) refers to forward.o(i._ZN7Forward8inMyGoalEv) for i._ZN7Forward8inMyGoalEv
    forward.o(.ARM.exidx) refers to forward.o(i._ZN7Forward10nearMyGoalEv) for i._ZN7Forward10nearMyGoalEv
    forward.o(.ARM.exidx) refers to forward.o(i._ZN7Forward13nearEnemyGoalEv) for i._ZN7Forward13nearEnemyGoalEv
    forward.o(.ARM.exidx) refers to forward.o(i._ZN7Forward10robotInOUTEv) for i._ZN7Forward10robotInOUTEv
    forward.o(.ARM.exidx) refers to forward.o(i._ZN7Forward16robotInFreeFieldEv) for i._ZN7Forward16robotInFreeFieldEv
    processing_coord.o(i._ZN15ProcessingCoord10ballInBackEfh) refers to main.o(i._ZSt5atan2ff) for std::atan2(float, float)
    processing_coord.o(i._ZN15ProcessingCoord10ballInBackEfh) refers to f2d.o(x$fpl$f2d) for __aeabi_f2d
    processing_coord.o(i._ZN15ProcessingCoord10ballInBackEfh) refers to dmul.o(x$fpl$dmul) for __aeabi_dmul
    processing_coord.o(i._ZN15ProcessingCoord10ballInBackEfh) refers to dfix.o(x$fpl$dfix) for __aeabi_d2iz
    processing_coord.o(i._ZN15ProcessingCoord10ballInBackEfh) refers to processing_coord.o(i._ZN15ProcessingCoord9adduct180Es) for ProcessingCoord::adduct180(short)
    processing_coord.o(i._ZN15ProcessingCoord10ballInBackEfh) refers to processing_coord.o(i._ZN15ProcessingCoord6adductEs) for ProcessingCoord::adduct(short)
    processing_coord.o(i._ZN15ProcessingCoord13getVecToPointEss) refers to goalkeeper.o(i._ZSt3powfi) for std::pow(float, int)
    processing_coord.o(i._ZN15ProcessingCoord13getVecToPointEss) refers to processing_coord.o(i._ZSt4sqrtf) for std::sqrt(float)
    processing_coord.o(i._ZN15ProcessingCoord13getVecToPointEss) refers to main.o(i._ZSt5atan2ff) for std::atan2(float, float)
    processing_coord.o(i._ZN15ProcessingCoord13getVecToPointEss) refers to f2d.o(x$fpl$f2d) for __aeabi_f2d
    processing_coord.o(i._ZN15ProcessingCoord13getVecToPointEss) refers to dmul.o(x$fpl$dmul) for __aeabi_dmul
    processing_coord.o(i._ZN15ProcessingCoord13getVecToPointEss) refers to dfix.o(x$fpl$dfix) for __aeabi_d2iz
    processing_coord.o(i._ZN15ProcessingCoord13getVecToPointEss) refers to processing_coord.o(i._ZN15ProcessingCoord6adductEs) for ProcessingCoord::adduct(short)
    processing_coord.o(i._ZN15ProcessingCoord13getVecToPointEss) refers to dflt_clz.o(x$fpl$dflt) for __aeabi_i2d
    processing_coord.o(i._ZN15ProcessingCoord13getVecToPointEss) refers to vec2b.o(i._ZN5Vec2bC1Edd) for Vec2b::Vec2b(double, double)
    processing_coord.o(i._ZN15ProcessingCoord15getAngleBetweenEff) refers to main.o(i._ZSt3absf) for std::abs(float)
    processing_coord.o(i._ZN15ProcessingCoord15getTarget2EnemyEv) refers to main.o(i._ZSt5atan2ff) for std::atan2(float, float)
    processing_coord.o(i._ZN15ProcessingCoord15getTarget2EnemyEv) refers to f2d.o(x$fpl$f2d) for __aeabi_f2d
    processing_coord.o(i._ZN15ProcessingCoord15getTarget2EnemyEv) refers to dmul.o(x$fpl$dmul) for __aeabi_dmul
    processing_coord.o(i._ZN15ProcessingCoord15getTarget2EnemyEv) refers to daddsub_clz.o(x$fpl$dsub) for __aeabi_dsub
    processing_coord.o(i._ZN15ProcessingCoord15getTarget2EnemyEv) refers to dfix.o(x$fpl$dfix) for __aeabi_d2iz
    processing_coord.o(i._ZN15ProcessingCoord15getTarget2EnemyEv) refers to processing_coord.o(i._ZN15ProcessingCoord9adduct180Es) for ProcessingCoord::adduct180(short)
    processing_coord.o(i._ZN15ProcessingCoord19suitableParams2KickEv) refers to main.o(i._ZSt5atan2ff) for std::atan2(float, float)
    processing_coord.o(i._ZN15ProcessingCoord19suitableParams2KickEv) refers to f2d.o(x$fpl$f2d) for __aeabi_f2d
    processing_coord.o(i._ZN15ProcessingCoord19suitableParams2KickEv) refers to dmul.o(x$fpl$dmul) for __aeabi_dmul
    processing_coord.o(i._ZN15ProcessingCoord19suitableParams2KickEv) refers to d2f.o(x$fpl$d2f) for __aeabi_d2f
    processing_coord.o(i._ZN15ProcessingCoord8distanceEffff) refers to goalkeeper.o(i._ZSt3powfi) for std::pow(float, int)
    processing_coord.o(i._ZN15ProcessingCoord8distanceEffff) refers to processing_coord.o(i._ZSt4sqrtf) for std::sqrt(float)
    processing_coord.o(.ARM.exidx) refers to processing_coord.o(i._ZN15ProcessingCoordC1Ev) for i._ZN15ProcessingCoordC1Ev
    processing_coord.o(.ARM.exidx) refers to processing_coord.o(i._ZN15ProcessingCoord7setGoalEh) for i._ZN15ProcessingCoord7setGoalEh
    processing_coord.o(.ARM.exidx) refers to processing_coord.o(i._ZN15ProcessingCoord9setParamsEsssss) for i._ZN15ProcessingCoord9setParamsEsssss
    processing_coord.o(.ARM.exidx) refers to processing_coord.o(i._ZN15ProcessingCoord9setMaxLenEf) for i._ZN15ProcessingCoord9setMaxLenEf
    processing_coord.o(.ARM.exidx) refers to processing_coord.o(i._ZN15ProcessingCoord6adductEs) for i._ZN15ProcessingCoord6adductEs
    processing_coord.o(.ARM.exidx) refers to processing_coord.o(i._ZN15ProcessingCoord13getVecToPointEss) for i._ZN15ProcessingCoord13getVecToPointEss
    processing_coord.o(.ARM.exidx) refers to processing_coord.o(i._ZN15ProcessingCoord8distanceEffff) for i._ZN15ProcessingCoord8distanceEffff
    processing_coord.o(.ARM.exidx) refers to processing_coord.o(i._ZN15ProcessingCoord3mapEfffff) for i._ZN15ProcessingCoord3mapEfffff
    processing_coord.o(.ARM.exidx) refers to processing_coord.o(i._ZN15ProcessingCoord15getAngleBetweenEff) for i._ZN15ProcessingCoord15getAngleBetweenEff
    processing_coord.o(.ARM.exidx) refers to processing_coord.o(i._ZN15ProcessingCoord9adduct180Es) for i._ZN15ProcessingCoord9adduct180Es
    processing_coord.o(.ARM.exidx) refers to processing_coord.o(i._ZN15ProcessingCoord15getTarget2EnemyEv) for i._ZN15ProcessingCoord15getTarget2EnemyEv
    processing_coord.o(.ARM.exidx) refers to processing_coord.o(i._ZN15ProcessingCoord8checkYUpEs) for i._ZN15ProcessingCoord8checkYUpEs
    processing_coord.o(.ARM.exidx) refers to processing_coord.o(i._ZN15ProcessingCoord10checkYDownEs) for i._ZN15ProcessingCoord10checkYDownEs
    processing_coord.o(.ARM.exidx) refers to processing_coord.o(i._ZN15ProcessingCoord10checkXLeftEsh) for i._ZN15ProcessingCoord10checkXLeftEsh
    processing_coord.o(.ARM.exidx) refers to processing_coord.o(i._ZN15ProcessingCoord11checkXRightEsh) for i._ZN15ProcessingCoord11checkXRightEsh
    processing_coord.o(.ARM.exidx) refers to processing_coord.o(i._ZN15ProcessingCoord10ballInBackEfh) for i._ZN15ProcessingCoord10ballInBackEfh
    processing_coord.o(.ARM.exidx) refers to processing_coord.o(i._ZN15ProcessingCoord19suitableParams2KickEv) for i._ZN15ProcessingCoord19suitableParams2KickEv
    queues_ball.o(i._ZN9BallVec2b12changeValuesEb) refers to queues_ball.o(i._ZN9Vec2bTime6getLenEv) for Vec2bTime::getLen()
    queues_ball.o(i._ZN9BallVec2b12changeValuesEb) refers to dflt_clz.o(x$fpl$dflt) for __aeabi_i2d
    queues_ball.o(i._ZN9BallVec2b12changeValuesEb) refers to dmul.o(x$fpl$dmul) for __aeabi_dmul
    queues_ball.o(i._ZN9BallVec2b12changeValuesEb) refers to daddsub_clz.o(x$fpl$dadd) for __aeabi_dadd
    queues_ball.o(i._ZN9BallVec2b12changeValuesEb) refers to queues_ball.o(i._ZSt3powdi) for std::pow(double, int)
    queues_ball.o(i._ZN9BallVec2b12changeValuesEb) refers to queues_ball.o(i._ZN9Vec2bTime7getTimeEv) for Vec2bTime::getTime()
    queues_ball.o(i._ZN9BallVec2b12changeValuesEb) refers to queues_ball.o(i._ZN9Vec2bTime8getAngleEv) for Vec2bTime::getAngle()
    queues_ball.o(i._ZN9BallVec2b15getCurrentVec2bEv) refers to vec2b.o(i._ZN5Vec2bC1Edd) for Vec2b::Vec2b(double, double)
    queues_ball.o(i._ZN9BallVec2b18setTransitionBy360Ev) refers to queues_ball.o(i._ZN9Vec2bTime7correctEv) for Vec2bTime::correct()
    queues_ball.o(i._ZN9BallVec2b18setTransitionBy360Ev) refers to queues_ball.o(i._ZN9Vec2bTime8getAngleEv) for Vec2bTime::getAngle()
    queues_ball.o(i._ZN9BallVec2b18setTransitionBy360Ev) refers to daddsub_clz.o(x$fpl$dsub) for __aeabi_dsub
    queues_ball.o(i._ZN9BallVec2b18setTransitionBy360Ev) refers to drleqf.o(x$fpl$drleqf) for __aeabi_cdrcmple
    queues_ball.o(i._ZN9BallVec2b18setTransitionBy360Ev) refers to dleqf.o(x$fpl$dleqf) for __aeabi_cdcmple
    queues_ball.o(i._ZN9BallVec2b18setTransitionBy360Ev) refers to daddsub_clz.o(x$fpl$dadd) for __aeabi_dadd
    queues_ball.o(i._ZN9BallVec2b4pushE5Vec2bx) refers to queues_ball.o(i._ZN9Vec2bTime7getTimeEv) for Vec2bTime::getTime()
    queues_ball.o(i._ZN9BallVec2b4pushE5Vec2bx) refers to queues_ball.o(i._ZN9Vec2bTime7correctEv) for Vec2bTime::correct()
    queues_ball.o(i._ZN9BallVec2b4pushE5Vec2bx) refers to dfltll_clz.o(x$fpl$dfltll) for __aeabi_l2d
    queues_ball.o(i._ZN9BallVec2b4pushE5Vec2bx) refers to queues_ball.o(i._ZN9Vec2bTime6getLenEv) for Vec2bTime::getLen()
    queues_ball.o(i._ZN9BallVec2b4pushE5Vec2bx) refers to daddsub_clz.o(x$fpl$dsub) for __aeabi_dsub
    queues_ball.o(i._ZN9BallVec2b4pushE5Vec2bx) refers to ddiv.o(x$fpl$ddiv) for __aeabi_ddiv
    queues_ball.o(i._ZN9BallVec2b4pushE5Vec2bx) refers to queues_ball.o(i._ZN9Vec2bTime8getAngleEv) for Vec2bTime::getAngle()
    queues_ball.o(i._ZN9BallVec2b4pushE5Vec2bx) refers to queues_ball.o(i._ZN9BallVec2b12changeValuesEb) for BallVec2b::changeValues(bool)
    queues_ball.o(i._ZN9BallVec2b4pushE5Vec2bx) refers to dflt_clz.o(x$fpl$dflt) for __aeabi_i2d
    queues_ball.o(i._ZN9BallVec2b4pushE5Vec2bx) refers to daddsub_clz.o(x$fpl$drsb) for __aeabi_drsub
    queues_ball.o(i._ZN9BallVec2b4pushE5Vec2bx) refers to queues_ball.o(i._ZN9Vec2bTime3setEddjs) for Vec2bTime::set(double, double, unsigned, short)
    queues_ball.o(i._ZN9BallVec2b4pushE5Vec2bx) refers to queues_ball.o(i._ZN9BallVec2b18setTransitionBy360Ev) for BallVec2b::setTransitionBy360()
    queues_ball.o(i._ZN9BallVec2b4pushE5Vec2bx) refers to dfix.o(x$fpl$dfix) for __aeabi_d2iz
    queues_ball.o(i._ZN9BallVec2b4pushE5Vec2bx) refers to queues_ball.o(i._ZN9BallVec2b9calculateEv) for BallVec2b::calculate()
    queues_ball.o(i._ZN9BallVec2b4pushE5Vec2bx) refers to daddsub_clz.o(x$fpl$dadd) for __aeabi_dadd
    queues_ball.o(i._ZN9BallVec2b6adductEd) refers to daddsub_clz.o(x$fpl$dadd) for __aeabi_dadd
    queues_ball.o(i._ZN9BallVec2b6adductEd) refers to dleqf.o(x$fpl$dleqf) for __aeabi_cdcmple
    queues_ball.o(i._ZN9BallVec2b6adductEd) refers to daddsub_clz.o(x$fpl$dsub) for __aeabi_dsub
    queues_ball.o(i._ZN9BallVec2b6adductEd) refers to drleqf.o(x$fpl$drleqf) for __aeabi_cdrcmple
    queues_ball.o(i._ZN9BallVec2b9calculateEv) refers to ddiv.o(x$fpl$ddiv) for __aeabi_ddiv
    queues_ball.o(i._ZN9BallVec2b9calculateEv) refers to queues_ball.o(i._ZSt3powdi) for std::pow(double, int)
    queues_ball.o(i._ZN9BallVec2b9calculateEv) refers to daddsub_clz.o(x$fpl$dsub) for __aeabi_dsub
    queues_ball.o(i._ZN9BallVec2b9calculateEv) refers to deqf.o(x$fpl$deqf) for __aeabi_cdcmpeq
    queues_ball.o(i._ZN9BallVec2b9calculateEv) refers to queues_ball.o(i._ZN9Vec2bTime6getLenEv) for Vec2bTime::getLen()
    queues_ball.o(i._ZN9BallVec2b9calculateEv) refers to dmul.o(x$fpl$dmul) for __aeabi_dmul
    queues_ball.o(i._ZN9BallVec2b9calculateEv) refers to queues_ball.o(i._ZN9Vec2bTime7getTimeEv) for Vec2bTime::getTime()
    queues_ball.o(i._ZN9BallVec2b9calculateEv) refers to dfltll_clz.o(x$fpl$dfltull) for __aeabi_ul2d
    queues_ball.o(i._ZN9BallVec2b9calculateEv) refers to queues_ball.o(i._ZN9Vec2bTime8getAngleEv) for Vec2bTime::getAngle()
    queues_ball.o(i._ZN9BallVec2b9calculateEv) refers to queues_ball.o(i._ZN9BallVec2b6adductEd) for BallVec2b::adduct(double)
    queues_ball.o(i._ZN9BallVec2bC1Ev) refers to aeabi_vec_ctor_nocookie_nodtor.o(i.__aeabi_vec_ctor_nocookie_nodtor) for __aeabi_vec_ctor_nocookie_nodtor
    queues_ball.o(i._ZN9BallVec2bC1Ev) refers to queues_ball.o(i._ZN9Vec2bTime3setEddjs) for Vec2bTime::set(double, double, unsigned, short)
    queues_ball.o(i._ZN9BallVec2bC1Ev) refers to queues_ball.o(i._ZN9Vec2bTimeC1Ev) for Vec2bTime::Vec2bTime()
    queues_ball.o(.ARM.exidx) refers to queues_ball.o(i._ZN9BallVec2bC1Ev) for i._ZN9BallVec2bC1Ev
    queues_ball.o(.ARM.exidx) refers to queues_ball.o(i._ZN9BallVec2b6adductEd) for i._ZN9BallVec2b6adductEd
    queues_ball.o(.ARM.exidx) refers to queues_ball.o(i._ZN9BallVec2b9calculateEv) for i._ZN9BallVec2b9calculateEv
    queues_ball.o(.ARM.exidx) refers to queues_ball.o(i._ZN9BallVec2b12changeValuesEb) for i._ZN9BallVec2b12changeValuesEb
    queues_ball.o(.ARM.exidx) refers to queues_ball.o(i._ZN9BallVec2b18setTransitionBy360Ev) for i._ZN9BallVec2b18setTransitionBy360Ev
    queues_ball.o(.ARM.exidx) refers to queues_ball.o(i._ZN9BallVec2b4pushE5Vec2bx) for i._ZN9BallVec2b4pushE5Vec2bx
    queues_ball.o(.ARM.exidx) refers to queues_ball.o(i._ZN9BallVec2b15getCurrentVec2bEv) for i._ZN9BallVec2b15getCurrentVec2bEv
    queues_ball.o(.ARM.exidx) refers to queues_ball.o(i._ZN9BallVec2b16getDerivativeAngEv) for i._ZN9BallVec2b16getDerivativeAngEv
    queues_ball.o(.ARM.exidx) refers to queues_ball.o(i._ZN9BallVec2b17getDerivativeDistEv) for i._ZN9BallVec2b17getDerivativeDistEv
    kicker.o(i._ZN6Kicker15setKickerStatusEb) refers to dma.o(i._ZN3Dma10dataReturnEh) for Dma::dataReturn(unsigned char)
    kicker.o(i._ZN6Kicker15setKickerStatusEb) refers to time_service.o(i._ZN12time_service6millisEv) for time_service::millis()
    kicker.o(i._ZN6Kicker4openEv) refers to pin.o(i._ZN3Pin6setBitEv) for Pin::setBit()
    kicker.o(i._ZN6Kicker5closeEv) refers to pin.o(i._ZN3Pin8resetBitEv) for Pin::resetBit()
    kicker.o(.ARM.exidx) refers to kicker.o(i._ZN6KickerC1ER3PinR3Dma) for i._ZN6KickerC1ER3PinR3Dma
    kicker.o(.ARM.exidx) refers to kicker.o(i._ZN6Kicker15setKickerStatusEb) for i._ZN6Kicker15setKickerStatusEb
    kicker.o(.ARM.exidx) refers to kicker.o(i._ZN6Kicker4openEv) for i._ZN6Kicker4openEv
    kicker.o(.ARM.exidx) refers to kicker.o(i._ZN6Kicker5closeEv) for i._ZN6Kicker5closeEv
    kicker.o(.ARM.exidx) refers to kicker.o(i._ZN6Kicker12getDMASignalEv) for i._ZN6Kicker12getDMASignalEv
    kicker.o(.ARM.exidx) refers to kicker.o(i._ZN6Kicker7canKickEv) for i._ZN6Kicker7canKickEv
    tsop.o(i._ZN4TSOP11angleOffsetEddd) refers to main.o(i._ZSt3absd) for std::abs(double)
    tsop.o(i._ZN4TSOP11angleOffsetEddd) refers to dmul.o(x$fpl$dmul) for __aeabi_dmul
    tsop.o(i._ZN4TSOP11angleOffsetEddd) refers to pow.o(i.__hardfp_pow) for __hardfp_pow
    tsop.o(i._ZN4TSOP11angleOffsetEddd) refers to drleqf.o(x$fpl$drleqf) for __aeabi_cdrcmple
    tsop.o(i._ZN4TSOP11angleOffsetEddd) refers to tsop.o(i._ZN4TSOP11convertDistEd) for TSOP::convertDist(double)
    tsop.o(i._ZN4TSOP11angleOffsetEddd) refers to dfix.o(x$fpl$dfix) for __aeabi_d2iz
    tsop.o(i._ZN4TSOP11angleOffsetEddd) refers to tsop.o(i._ZN4TSOP6adductEs) for TSOP::adduct(short)
    tsop.o(i._ZN4TSOP11angleOffsetEddd) refers to basic.o(x$fpl$basic) for __aeabi_dneg
    tsop.o(i._ZN4TSOP11convertDistEd) refers to daddsub_clz.o(x$fpl$dsub) for __aeabi_dsub
    tsop.o(i._ZN4TSOP11convertDistEd) refers to ddiv.o(x$fpl$ddiv) for __aeabi_ddiv
    tsop.o(i._ZN4TSOP11convertDistEd) refers to daddsub_clz.o(x$fpl$dadd) for __aeabi_dadd
    tsop.o(i._ZN4TSOP11convertDistEd) refers to drleqf.o(x$fpl$drleqf) for __aeabi_cdrcmple
    tsop.o(i._ZN4TSOP11convertDistEd) refers to dleqf.o(x$fpl$dleqf) for __aeabi_cdcmple
    tsop.o(i._ZN4TSOP11updateTSOPsEv) refers to pin.o(i._ZN3Pin3setEb) for Pin::set(bool)
    tsop.o(i._ZN4TSOP11updateTSOPsEv) refers to pin.o(i._ZN3Pin8getGPIOxEv) for Pin::getGPIOx()
    tsop.o(i._ZN4TSOP11updateTSOPsEv) refers to pin.o(i._ZN3Pin6getPinEv) for Pin::getPin()
    tsop.o(i._ZN4TSOP7ballFarEf) refers to f2d.o(x$fpl$f2d) for __aeabi_f2d
    tsop.o(i._ZN4TSOP7ballFarEf) refers to dleqf.o(x$fpl$dleqf) for __aeabi_cdcmple
    tsop.o(i._ZN4TSOP9calculateEv) refers to cosf.o(i.__hardfp_cosf) for __hardfp_cosf
    tsop.o(i._ZN4TSOP9calculateEv) refers to sinf.o(i.__hardfp_sinf) for __hardfp_sinf
    tsop.o(i._ZN4TSOP9calculateEv) refers to atan2f.o(i.__hardfp_atan2f) for __hardfp_atan2f
    tsop.o(i._ZN4TSOP9calculateEv) refers to tsop.o(i._ZN4TSOP6adductEs) for TSOP::adduct(short)
    tsop.o(i._ZN4TSOP9calculateEv) refers to sqrtf.o(i.__hardfp_sqrtf) for __hardfp_sqrtf
    tsop.o(i._ZN4TSOPC1ER3PinS1_S1_S1_S1_S1_) refers to rt_memcpy_w.o(.text) for __aeabi_memcpy4
    tsop.o(i._ZN4TSOPC1Ev) refers to pin.o(i._ZN3PinC1Ev) for Pin::Pin()
    tsop.o(.ARM.exidx) refers to tsop.o(i._ZN4TSOPC1ER3PinS1_S1_S1_S1_S1_) for i._ZN4TSOPC1ER3PinS1_S1_S1_S1_S1_
    tsop.o(.ARM.exidx) refers to tsop.o(i._ZN4TSOPC1Ev) for i._ZN4TSOPC1Ev
    tsop.o(.ARM.exidx) refers to tsop.o(i._ZN4TSOP6adductEs) for i._ZN4TSOP6adductEs
    tsop.o(.ARM.exidx) refers to tsop.o(i._ZN4TSOP9calculateEv) for i._ZN4TSOP9calculateEv
    tsop.o(.ARM.exidx) refers to tsop.o(i._ZN4TSOP11updateTSOPsEv) for i._ZN4TSOP11updateTSOPsEv
    tsop.o(.ARM.exidx) refers to tsop.o(i._ZN4TSOP8getAngleEv) for i._ZN4TSOP8getAngleEv
    tsop.o(.ARM.exidx) refers to tsop.o(i._ZN4TSOP7getDistEv) for i._ZN4TSOP7getDistEv
    tsop.o(.ARM.exidx) refers to tsop.o(i._ZN4TSOP11convertDistEd) for i._ZN4TSOP11convertDistEd
    tsop.o(.ARM.exidx) refers to tsop.o(i._ZN4TSOP11angleOffsetEddd) for i._ZN4TSOP11angleOffsetEddd
    tsop.o(.ARM.exidx) refers to tsop.o(i._ZN4TSOP7distBadEs) for i._ZN4TSOP7distBadEs
    tsop.o(.ARM.exidx) refers to tsop.o(i._ZN4TSOP7ballFarEf) for i._ZN4TSOP7ballFarEf
    openmv.o(i._ZN6OpenMV4readEv) refers to usart1.o(i._ZN5uart19availableEv) for uart1::available()
    openmv.o(i._ZN6OpenMV4readEv) refers to usart1.o(i._ZN5uart14readEv) for uart1::read()
    openmv.o(i._ZN6OpenMV4readEv) refers to usart2.o(i._ZN5uart29availableEv) for uart2::available()
    openmv.o(i._ZN6OpenMV4readEv) refers to usart2.o(i._ZN5uart24readEv) for uart2::read()
    openmv.o(i._ZN6OpenMV4readEv) refers to usart3.o(i._ZN5uart39availableEv) for uart3::available()
    openmv.o(i._ZN6OpenMV4readEv) refers to usart3.o(i._ZN5uart34readEv) for uart3::read()
    openmv.o(i._ZN6OpenMV4readEv) refers to usart6.o(i._ZN5uart69availableEv) for uart6::available()
    openmv.o(i._ZN6OpenMV4readEv) refers to usart6.o(i._ZN5uart64readEv) for uart6::read()
    openmv.o(i._ZN6OpenMV4readEv) refers to openmv.o(i._ZN6OpenMV4crc8EPVhh) for OpenMV::crc8(volatile unsigned char*, unsigned char)
    openmv.o(i._ZN6OpenMV9calculateEsbb) refers to openmv.o(i._ZN6OpenMV11adductionMVEs) for OpenMV::adductionMV(short)
    openmv.o(i._ZN6OpenMV9calculateEsbb) refers to openmv.o(i._ZSt3sinf) for std::sin(float)
    openmv.o(i._ZN6OpenMV9calculateEsbb) refers to openmv.o(i._ZSt3cosf) for std::cos(float)
    openmv.o(i._ZN6OpenMV9initUSARTEh) refers to usart1.o(i._ZN5uart110usart1InitEjfh) for uart1::usart1Init(unsigned, float, unsigned char)
    openmv.o(i._ZN6OpenMV9initUSARTEh) refers to usart2.o(i._ZN5uart210usart2InitEjfh) for uart2::usart2Init(unsigned, float, unsigned char)
    openmv.o(i._ZN6OpenMV9initUSARTEh) refers to usart3.o(i._ZN5uart310usart3InitEjfh) for uart3::usart3Init(unsigned, float, unsigned char)
    openmv.o(i._ZN6OpenMV9initUSARTEh) refers to usart6.o(i._ZN5uart610usart6InitEjfh) for uart6::usart6Init(unsigned, float, unsigned char)
    openmv.o(i._ZN6OpenMVC1ER3PinS1_h) refers to openmv.o(i._ZN6OpenMV9initUSARTEh) for OpenMV::initUSART(unsigned char)
    openmv.o(.ARM.exidx) refers to openmv.o(i._ZN6OpenMV9initUSARTEh) for i._ZN6OpenMV9initUSARTEh
    openmv.o(.ARM.exidx) refers to openmv.o(i._ZN6OpenMVC1ER3PinS1_h) for i._ZN6OpenMVC1ER3PinS1_h
    openmv.o(.ARM.exidx) refers to openmv.o(i._ZN6OpenMV4crc8EPVhh) for i._ZN6OpenMV4crc8EPVhh
    openmv.o(.ARM.exidx) refers to openmv.o(i._ZN6OpenMV4readEv) for i._ZN6OpenMV4readEv
    openmv.o(.ARM.exidx) refers to openmv.o(i._ZN6OpenMV11adductionMVEs) for i._ZN6OpenMV11adductionMVEs
    openmv.o(.ARM.exidx) refers to openmv.o(i._ZN6OpenMV9calculateEsbb) for i._ZN6OpenMV9calculateEsbb
    openmv.o(.ARM.exidx) refers to openmv.o(i._ZN6OpenMV10initCoordsEv) for i._ZN6OpenMV10initCoordsEv
    openmv.o(.ARM.exidx) refers to openmv.o(i._ZN6OpenMV4getXEv) for i._ZN6OpenMV4getXEv
    openmv.o(.ARM.exidx) refers to openmv.o(i._ZN6OpenMV4getYEv) for i._ZN6OpenMV4getYEv
    openmv.o(.ARM.exidx) refers to openmv.o(i._ZN6OpenMV13getDistYellowEv) for i._ZN6OpenMV13getDistYellowEv
    openmv.o(.ARM.exidx) refers to openmv.o(i._ZN6OpenMV11getDistBlueEv) for i._ZN6OpenMV11getDistBlueEv
    openmv.o(.ARM.exidx) refers to openmv.o(i._ZN6OpenMV14getAngleYellowEv) for i._ZN6OpenMV14getAngleYellowEv
    openmv.o(.ARM.exidx) refers to openmv.o(i._ZN6OpenMV12getAngleBlueEv) for i._ZN6OpenMV12getAngleBlueEv
    ir_locator.o(i._ZN9IRLocator8getAngleEv) refers to ir_locator.o(i._ZN9IRLocator8getValueEh) for IRLocator::getValue(unsigned char)
    ir_locator.o(i._ZN9IRLocator8getAngleEv) refers to tsop.o(i._ZN4TSOP6adductEs) for TSOP::adduct(short)
    ir_locator.o(i._ZN9IRLocator8getValueEh) refers to i2c.o(i._ZN3I2C13generateStartEv) for I2C::generateStart()
    ir_locator.o(i._ZN9IRLocator8getValueEh) refers to i2c.o(i._ZN3I2C4sendEh) for I2C::send(unsigned char)
    ir_locator.o(i._ZN9IRLocator8getValueEh) refers to i2c.o(i._ZN3I2C7readAchEv) for I2C::readAch()
    ir_locator.o(i._ZN9IRLocator8getValueEh) refers to i2c.o(i._ZN3I2C12generateStopEv) for I2C::generateStop()
    ir_locator.o(i._ZN9IRLocator8getValueEh) refers to i2c.o(i._ZN3I2C4readEv) for I2C::read()
    ir_locator.o(i._ZN9IRLocatorC1ER3I2Cj) refers to tsop.o(i._ZN4TSOPC1Ev) for TSOP::TSOP()
    ir_locator.o(i._ZN9IRLocatorC1ER3I2Cj) refers to rt_memcpy_w.o(.text) for __aeabi_memcpy4
    ir_locator.o(.ARM.exidx) refers to ir_locator.o(i._ZN9IRLocatorC1ER3I2Cj) for i._ZN9IRLocatorC1ER3I2Cj
    ir_locator.o(.ARM.exidx) refers to ir_locator.o(i._ZN9IRLocator8getValueEh) for i._ZN9IRLocator8getValueEh
    ir_locator.o(.ARM.exidx) refers to ir_locator.o(i._ZN9IRLocator8getAngleEv) for i._ZN9IRLocator8getAngleEv
    ir_locator.o(.ARM.exidx) refers to ir_locator.o(i._ZN9IRLocator7getDistEv) for i._ZN9IRLocator7getDistEv
    omniplatform.o(i._ZN12omniplatform4moveEfffff) refers to motor.o(i._ZN5Motor11getMaxSpeedEv) for Motor::getMaxSpeed()
    omniplatform.o(i._ZN12omniplatform4moveEfffff) refers to omniplatform.o(i._ZN12omniplatform11adduct0_360Ef) for omniplatform::adduct0_360(float)
    omniplatform.o(i._ZN12omniplatform4moveEfffff) refers to f2d.o(x$fpl$f2d) for __aeabi_f2d
    omniplatform.o(i._ZN12omniplatform4moveEfffff) refers to dmul.o(x$fpl$dmul) for __aeabi_dmul
    omniplatform.o(i._ZN12omniplatform4moveEfffff) refers to d2f.o(x$fpl$d2f) for __aeabi_d2f
    omniplatform.o(i._ZN12omniplatform4moveEfffff) refers to openmv.o(i._ZSt3sinf) for std::sin(float)
    omniplatform.o(i._ZN12omniplatform4moveEfffff) refers to motor.o(i._ZN5Motor2goEs) for Motor::go(short)
    omniplatform.o(i._ZN12omniplatform7disableEv) refers to motor.o(i._ZN5Motor7disableEv) for Motor::disable()
    omniplatform.o(i._ZN12omniplatformC1ER5MotorS1_S1_S1_) refers to rt_memcpy_w.o(.text) for __aeabi_memcpy4
    omniplatform.o(.ARM.exidx) refers to omniplatform.o(i._ZN12omniplatformC1ER5MotorS1_S1_S1_) for i._ZN12omniplatformC1ER5MotorS1_S1_S1_
    omniplatform.o(.ARM.exidx) refers to omniplatform.o(i._ZN12omniplatform7disableEv) for i._ZN12omniplatform7disableEv
    omniplatform.o(.ARM.exidx) refers to omniplatform.o(i._ZN12omniplatform11adduct0_360Ef) for i._ZN12omniplatform11adduct0_360Ef
    omniplatform.o(.ARM.exidx) refers to omniplatform.o(i._ZN12omniplatform4moveEfffff) for i._ZN12omniplatform4moveEfffff
    imu_usart.o(i._ZN8gyro_imu12setZeroAngleEv) refers to usart1.o(i._ZN5uart19availableEv) for uart1::available()
    imu_usart.o(i._ZN8gyro_imu12setZeroAngleEv) refers to usart1.o(i._ZN5uart14readEv) for uart1::read()
    imu_usart.o(i._ZN8gyro_imu12setZeroAngleEv) refers to imu_usart.o(i._ZN8gyro_imu6adductEs) for gyro_imu::adduct(short)
    imu_usart.o(i._ZN8gyro_imu12setZeroAngleEv) refers to usart2.o(i._ZN5uart29availableEv) for uart2::available()
    imu_usart.o(i._ZN8gyro_imu12setZeroAngleEv) refers to usart2.o(i._ZN5uart24readEv) for uart2::read()
    imu_usart.o(i._ZN8gyro_imu12setZeroAngleEv) refers to usart3.o(i._ZN5uart39availableEv) for uart3::available()
    imu_usart.o(i._ZN8gyro_imu12setZeroAngleEv) refers to usart3.o(i._ZN5uart34readEv) for uart3::read()
    imu_usart.o(i._ZN8gyro_imu12setZeroAngleEv) refers to usart6.o(i._ZN5uart69availableEv) for uart6::available()
    imu_usart.o(i._ZN8gyro_imu12setZeroAngleEv) refers to usart6.o(i._ZN5uart64readEv) for uart6::read()
    imu_usart.o(i._ZN8gyro_imu13calculateSoftEffh) refers to imu_usart.o(i._ZN8gyro_imu11adduct0_360Ef) for gyro_imu::adduct0_360(float)
    imu_usart.o(i._ZN8gyro_imu20setRotationForTargetEv) refers to imu_usart.o(i._ZN8gyro_imu6adductEs) for gyro_imu::adduct(short)
    imu_usart.o(i._ZN8gyro_imu4readEv) refers to usart1.o(i._ZN5uart19availableEv) for uart1::available()
    imu_usart.o(i._ZN8gyro_imu4readEv) refers to usart1.o(i._ZN5uart14readEv) for uart1::read()
    imu_usart.o(i._ZN8gyro_imu4readEv) refers to imu_usart.o(i._ZN8gyro_imu6adductEs) for gyro_imu::adduct(short)
    imu_usart.o(i._ZN8gyro_imu4readEv) refers to usart2.o(i._ZN5uart29availableEv) for uart2::available()
    imu_usart.o(i._ZN8gyro_imu4readEv) refers to usart2.o(i._ZN5uart24readEv) for uart2::read()
    imu_usart.o(i._ZN8gyro_imu4readEv) refers to usart3.o(i._ZN5uart39availableEv) for uart3::available()
    imu_usart.o(i._ZN8gyro_imu4readEv) refers to usart3.o(i._ZN5uart34readEv) for uart3::read()
    imu_usart.o(i._ZN8gyro_imu4readEv) refers to usart6.o(i._ZN5uart69availableEv) for uart6::available()
    imu_usart.o(i._ZN8gyro_imu4readEv) refers to usart6.o(i._ZN5uart64readEv) for uart6::read()
    imu_usart.o(i._ZN8gyro_imu9initUSARTEh) refers to usart1.o(i._ZN5uart110usart1InitEjfh) for uart1::usart1Init(unsigned, float, unsigned char)
    imu_usart.o(i._ZN8gyro_imu9initUSARTEh) refers to usart2.o(i._ZN5uart210usart2InitEjfh) for uart2::usart2Init(unsigned, float, unsigned char)
    imu_usart.o(i._ZN8gyro_imu9initUSARTEh) refers to usart3.o(i._ZN5uart310usart3InitEjfh) for uart3::usart3Init(unsigned, float, unsigned char)
    imu_usart.o(i._ZN8gyro_imu9initUSARTEh) refers to usart6.o(i._ZN5uart610usart6InitEjfh) for uart6::usart6Init(unsigned, float, unsigned char)
    imu_usart.o(i._ZN8gyro_imuC1ER3PinS1_h) refers to imu_usart.o(i._ZN8gyro_imu9initUSARTEh) for gyro_imu::initUSART(unsigned char)
    imu_usart.o(.ARM.exidx) refers to imu_usart.o(i._ZN8gyro_imu9initUSARTEh) for i._ZN8gyro_imu9initUSARTEh
    imu_usart.o(.ARM.exidx) refers to imu_usart.o(i._ZN8gyro_imuC1ER3PinS1_h) for i._ZN8gyro_imuC1ER3PinS1_h
    imu_usart.o(.ARM.exidx) refers to imu_usart.o(i._ZN8gyro_imu6adductEs) for i._ZN8gyro_imu6adductEs
    imu_usart.o(.ARM.exidx) refers to imu_usart.o(i._ZN8gyro_imu4readEv) for i._ZN8gyro_imu4readEv
    imu_usart.o(.ARM.exidx) refers to imu_usart.o(i._ZN8gyro_imu20setRotationForTargetEv) for i._ZN8gyro_imu20setRotationForTargetEv
    imu_usart.o(.ARM.exidx) refers to imu_usart.o(i._ZN8gyro_imu9setTargetEf) for i._ZN8gyro_imu9setTargetEf
    imu_usart.o(.ARM.exidx) refers to imu_usart.o(i._ZN8gyro_imu12setZeroAngleEv) for i._ZN8gyro_imu12setZeroAngleEv
    imu_usart.o(.ARM.exidx) refers to imu_usart.o(i._ZN8gyro_imu11adduct0_360Ef) for i._ZN8gyro_imu11adduct0_360Ef
    imu_usart.o(.ARM.exidx) refers to imu_usart.o(i._ZN8gyro_imu13calculateSoftEffh) for i._ZN8gyro_imu13calculateSoftEffh
    imu_usart.o(.ARM.exidx) refers to imu_usart.o(i._ZN8gyro_imu15getCurrentAngleEv) for i._ZN8gyro_imu15getCurrentAngleEv
    imu_usart.o(.ARM.exidx) refers to imu_usart.o(i._ZN8gyro_imu11getRotationEv) for i._ZN8gyro_imu11getRotationEv
    imu_usart.o(.ARM.exidx) refers to imu_usart.o(i._ZN8gyro_imu14getMaxRotationEv) for i._ZN8gyro_imu14getMaxRotationEv
    imu_usart.o(.ARM.exidx) refers to imu_usart.o(i._ZN8gyro_imu9getTargetEv) for i._ZN8gyro_imu9getTargetEv
    vec2b.o(i._ZN5Vec2b8changeToES_) refers to dmul.o(x$fpl$dmul) for __aeabi_dmul
    vec2b.o(i._ZN5Vec2b8changeToES_) refers to cos.o(i.__hardfp_cos) for __hardfp_cos
    vec2b.o(i._ZN5Vec2b8changeToES_) refers to sin.o(i.__hardfp_sin) for __hardfp_sin
    vec2b.o(i._ZN5Vec2b8changeToES_) refers to daddsub_clz.o(x$fpl$dsub) for __aeabi_dsub
    vec2b.o(i._ZN5Vec2b8changeToES_) refers to daddsub_clz.o(x$fpl$dadd) for __aeabi_dadd
    vec2b.o(i._ZN5Vec2b8changeToES_) refers to sqrt.o(i.__hardfp_sqrt) for __hardfp_sqrt
    vec2b.o(i._ZN5Vec2b8changeToES_) refers to drleqf.o(x$fpl$drleqf) for __aeabi_cdrcmple
    vec2b.o(i._ZN5Vec2b8changeToES_) refers to ddiv.o(x$fpl$ddiv) for __aeabi_ddiv
    vec2b.o(i._ZN5Vec2b8changeToES_) refers to atan2.o(i.__hardfp_atan2) for __hardfp_atan2
    vec2b.o(i._ZN5Vec2b8changeToES_) refers to dleqf.o(x$fpl$dleqf) for __aeabi_cdcmple
    vec2b.o(i._ZN5Vec2bmLERKf) refers to f2d.o(x$fpl$f2d) for __aeabi_f2d
    vec2b.o(i._ZN5Vec2bmLERKf) refers to dmul.o(x$fpl$dmul) for __aeabi_dmul
    vec2b.o(i._ZN5Vec2bmlERKf) refers to f2d.o(x$fpl$f2d) for __aeabi_f2d
    vec2b.o(i._ZN5Vec2bmlERKf) refers to dmul.o(x$fpl$dmul) for __aeabi_dmul
    vec2b.o(i._ZN5Vec2bplERKS_) refers to dmul.o(x$fpl$dmul) for __aeabi_dmul
    vec2b.o(i._ZN5Vec2bplERKS_) refers to cos.o(i.__hardfp_cos) for __hardfp_cos
    vec2b.o(i._ZN5Vec2bplERKS_) refers to daddsub_clz.o(x$fpl$dadd) for __aeabi_dadd
    vec2b.o(i._ZN5Vec2bplERKS_) refers to sin.o(i.__hardfp_sin) for __hardfp_sin
    vec2b.o(i._ZN5Vec2bplERKS_) refers to atan2.o(i.__hardfp_atan2) for __hardfp_atan2
    vec2b.o(i._ZN5Vec2bplERKS_) refers to dfix.o(x$fpl$dfix) for __aeabi_d2iz
    vec2b.o(i._ZN5Vec2bplERKS_) refers to dflt_clz.o(x$fpl$dflt) for __aeabi_i2d
    vec2b.o(i._ZN5Vec2bplERKS_) refers to sqrt.o(i.__hardfp_sqrt) for __hardfp_sqrt
    vec2b.o(i._ZN5Vec2bplERKS_) refers to vec2b.o(i._ZN5Vec2bC1Edd) for Vec2b::Vec2b(double, double)
    vec2b.o(.ARM.exidx) refers to vec2b.o(i._ZN5Vec2bC1Ev) for i._ZN5Vec2bC1Ev
    vec2b.o(.ARM.exidx) refers to vec2b.o(i._ZN5Vec2bC1Edd) for i._ZN5Vec2bC1Edd
    vec2b.o(.ARM.exidx) refers to vec2b.o(i._ZN5Vec2b3setEdd) for i._ZN5Vec2b3setEdd
    vec2b.o(.ARM.exidx) refers to vec2b.o(i._ZN5Vec2b8changeToES_) for i._ZN5Vec2b8changeToES_
    vec2b.o(.ARM.exidx) refers to vec2b.o(i._ZN5Vec2bplERKS_) for i._ZN5Vec2bplERKS_
    vec2b.o(.ARM.exidx) refers to vec2b.o(i._ZN5Vec2bmLERKf) for i._ZN5Vec2bmLERKf
    vec2b.o(.ARM.exidx) refers to vec2b.o(i._ZN5Vec2bmlERKf) for i._ZN5Vec2bmlERKf
    ballsensor.o(i._ZN10BallSensor10ballInGripEv) refers to ballsensor.o(i._ZN10BallSensor8getValueEv) for BallSensor::getValue()
    ballsensor.o(i._ZN10BallSensor10ballInGripEv) refers to f2d.o(x$fpl$f2d) for __aeabi_f2d
    ballsensor.o(i._ZN10BallSensor10ballInGripEv) refers to dmul.o(x$fpl$dmul) for __aeabi_dmul
    ballsensor.o(i._ZN10BallSensor10ballInGripEv) refers to daddsub_clz.o(x$fpl$dadd) for __aeabi_dadd
    ballsensor.o(i._ZN10BallSensor10ballInGripEv) refers to d2f.o(x$fpl$d2f) for __aeabi_d2f
    ballsensor.o(i._ZN10BallSensor10ballInGripEv) refers to time_service.o(i._ZN12time_service6millisEv) for time_service::millis()
    ballsensor.o(i._ZN10BallSensor18ballLongTimeInGripEv) refers to time_service.o(i._ZN12time_service6millisEv) for time_service::millis()
    ballsensor.o(i._ZN10BallSensor8getValueEv) refers to dma.o(i._ZN3Dma10dataReturnEh) for Dma::dataReturn(unsigned char)
    ballsensor.o(i._ZN10BallSensorC1ER3Dma) refers to time_service.o(i._ZN12time_service6millisEv) for time_service::millis()
    ballsensor.o(.ARM.exidx) refers to ballsensor.o(i._ZN10BallSensorC1ER3Dma) for i._ZN10BallSensorC1ER3Dma
    ballsensor.o(.ARM.exidx) refers to ballsensor.o(i._ZN10BallSensor8getValueEv) for i._ZN10BallSensor8getValueEv
    ballsensor.o(.ARM.exidx) refers to ballsensor.o(i._ZN10BallSensor10ballInGripEv) for i._ZN10BallSensor10ballInGripEv
    ballsensor.o(.ARM.exidx) refers to ballsensor.o(i._ZN10BallSensor18ballLongTimeInGripEv) for i._ZN10BallSensor18ballLongTimeInGripEv
    voltage.o(i._ZN14VoltageDividor10getVoltageEv) refers to dma.o(i._ZN3Dma10dataReturnEh) for Dma::dataReturn(unsigned char)
    voltage.o(.ARM.exidx) refers to voltage.o(i._ZN14VoltageDividorC1ER3Dma) for i._ZN14VoltageDividorC1ER3Dma
    voltage.o(.ARM.exidx) refers to voltage.o(i._ZN14VoltageDividor10getVoltageEv) for i._ZN14VoltageDividor10getVoltageEv
    voltage.o(.ARM.exidx) refers to voltage.o(i._ZN14VoltageDividor10voltageLowEf) for i._ZN14VoltageDividor10voltageLowEf
    button.o(i._ZN6Button7pressedEv) refers to pin.o(i._ZN3Pin7readPinEv) for Pin::readPin()
    button.o(i._ZN6Button7pressedEv) refers to time_service.o(i._ZN12time_service6millisEv) for time_service::millis()
    button.o(i._ZN6ButtonC1E3Pinb) refers to rt_memcpy_w.o(.text) for __aeabi_memcpy4
    button.o(.ARM.exidx) refers to button.o(i._ZN6ButtonC1E3Pinb) for i._ZN6ButtonC1E3Pinb
    button.o(.ARM.exidx) refers to button.o(i._ZN6Button7pressedEv) for i._ZN6Button7pressedEv
    pin.o(i._ZN3Pin12RCC_ClockCmdEv) refers to stm32f4xx_rcc.o(i.RCC_APB2PeriphClockCmd) for RCC_APB2PeriphClockCmd
    pin.o(i._ZN3Pin12RCC_ClockCmdEv) refers to stm32f4xx_rcc.o(i.RCC_APB1PeriphClockCmd) for RCC_APB1PeriphClockCmd
    pin.o(i._ZN3Pin3pwmEj) refers to stm32f4xx_tim.o(i.TIM_SetCompare1) for TIM_SetCompare1
    pin.o(i._ZN3Pin3pwmEj) refers to stm32f4xx_tim.o(i.TIM_SetCompare2) for TIM_SetCompare2
    pin.o(i._ZN3Pin3pwmEj) refers to stm32f4xx_tim.o(i.TIM_SetCompare3) for TIM_SetCompare3
    pin.o(i._ZN3Pin3pwmEj) refers to stm32f4xx_tim.o(i.TIM_SetCompare4) for TIM_SetCompare4
    pin.o(i._ZN3Pin3setEb) refers to stm32f4xx_gpio.o(i.GPIO_SetBits) for GPIO_SetBits
    pin.o(i._ZN3Pin3setEb) refers to stm32f4xx_gpio.o(i.GPIO_ResetBits) for GPIO_ResetBits
    pin.o(i._ZN3Pin6setBitEv) refers to stm32f4xx_gpio.o(i.GPIO_SetBits) for GPIO_SetBits
    pin.o(i._ZN3Pin7pwmInitEsjh) refers to pin.o(i._ZN3Pin12RCC_ClockCmdEv) for Pin::RCC_ClockCmd()
    pin.o(i._ZN3Pin7pwmInitEsjh) refers to stm32f4xx_tim.o(i.TIM_TimeBaseInit) for TIM_TimeBaseInit
    pin.o(i._ZN3Pin7pwmInitEsjh) refers to stm32f4xx_tim.o(i.TIM_Cmd) for TIM_Cmd
    pin.o(i._ZN3Pin7pwmInitEsjh) refers to stm32f4xx_tim.o(i.TIM_BDTRConfig) for TIM_BDTRConfig
    pin.o(i._ZN3Pin7pwmInitEsjh) refers to stm32f4xx_tim.o(i.TIM_OC1Init) for TIM_OC1Init
    pin.o(i._ZN3Pin7pwmInitEsjh) refers to stm32f4xx_tim.o(i.TIM_OC2Init) for TIM_OC2Init
    pin.o(i._ZN3Pin7pwmInitEsjh) refers to stm32f4xx_tim.o(i.TIM_OC3Init) for TIM_OC3Init
    pin.o(i._ZN3Pin7pwmInitEsjh) refers to stm32f4xx_tim.o(i.TIM_OC4Init) for TIM_OC4Init
    pin.o(i._ZN3Pin7pwmInitEsjh) refers to stm32f4xx_tim.o(i.TIM_CtrlPWMOutputs) for TIM_CtrlPWMOutputs
    pin.o(i._ZN3Pin7readPinEv) refers to stm32f4xx_gpio.o(i.GPIO_ReadInputData) for GPIO_ReadInputData
    pin.o(i._ZN3Pin8resetBitEv) refers to stm32f4xx_gpio.o(i.GPIO_ResetBits) for GPIO_ResetBits
    pin.o(i._ZN3PinC1Echt) refers to pin.o(i._ZN3Pin6setPinEh) for Pin::setPin(unsigned char)
    pin.o(i._ZN3PinC1Echt) refers to pin.o(i._ZN3Pin7setGPIOEc) for Pin::setGPIO(char)
    pin.o(i._ZN3PinC1Echt) refers to pin.o(i._ZN3Pin12setTimParamsEt) for Pin::setTimParams(unsigned short)
    pin.o(i._ZN3PinC1Echt) refers to pin.o(i._ZN3Pin13setAFforUSARTEt) for Pin::setAFforUSART(unsigned short)
    pin.o(i._ZN3PinC1Echt) refers to stm32f4xx_rcc.o(i.RCC_AHB1PeriphClockCmd) for RCC_AHB1PeriphClockCmd
    pin.o(i._ZN3PinC1Echt) refers to stm32f4xx_gpio.o(i.GPIO_Init) for GPIO_Init
    pin.o(i._ZN3PinC1Echt) refers to stm32f4xx_gpio.o(i.GPIO_PinAFConfig) for GPIO_PinAFConfig
    pin.o(.ARM.exidx) refers to pin.o(i._ZN3Pin13setAFforUSARTEt) for i._ZN3Pin13setAFforUSARTEt
    pin.o(.ARM.exidx) refers to pin.o(i._ZN3Pin12setTimParamsEt) for i._ZN3Pin12setTimParamsEt
    pin.o(.ARM.exidx) refers to pin.o(i._ZN3Pin7setGPIOEc) for i._ZN3Pin7setGPIOEc
    pin.o(.ARM.exidx) refers to pin.o(i._ZN3Pin6setPinEh) for i._ZN3Pin6setPinEh
    pin.o(.ARM.exidx) refers to pin.o(i._ZN3PinC1Echt) for i._ZN3PinC1Echt
    pin.o(.ARM.exidx) refers to pin.o(i._ZN3PinC1Ev) for i._ZN3PinC1Ev
    pin.o(.ARM.exidx) refers to pin.o(i._ZN3Pin12RCC_ClockCmdEv) for i._ZN3Pin12RCC_ClockCmdEv
    pin.o(.ARM.exidx) refers to pin.o(i._ZN3Pin7pwmInitEsjh) for i._ZN3Pin7pwmInitEsjh
    pin.o(.ARM.exidx) refers to pin.o(i._ZN3Pin3pwmEj) for i._ZN3Pin3pwmEj
    pin.o(.ARM.exidx) refers to pin.o(i._ZN3Pin3setEb) for i._ZN3Pin3setEb
    pin.o(.ARM.exidx) refers to pin.o(i._ZN3Pin6setBitEv) for i._ZN3Pin6setBitEv
    pin.o(.ARM.exidx) refers to pin.o(i._ZN3Pin8resetBitEv) for i._ZN3Pin8resetBitEv
    pin.o(.ARM.exidx) refers to pin.o(i._ZN3Pin7readPinEv) for i._ZN3Pin7readPinEv
    pin.o(.ARM.exidx) refers to pin.o(i._ZN3Pin9getPeriodEv) for i._ZN3Pin9getPeriodEv
    pin.o(.ARM.exidx) refers to pin.o(i._ZN3Pin6getPinEv) for i._ZN3Pin6getPinEv
    pin.o(.ARM.exidx) refers to pin.o(i._ZN3Pin8getGPIOxEv) for i._ZN3Pin8getGPIOxEv
    time_service.o(i.SysTick_Handler) refers to time_service.o(.data) for time_service::tim
    time_service.o(i._ZN12time_service4initEv) refers to stm32f4xx_rcc.o(i.RCC_GetClocksFreq) for RCC_GetClocksFreq
    time_service.o(i._ZN12time_service5delayEj) refers to time_service.o(.data) for time_service::tim
    time_service.o(i._ZN12time_service6millisEv) refers to time_service.o(.data) for time_service::tim
    time_service.o(.ARM.exidx) refers to time_service.o(i.SysTick_Handler) for i.SysTick_Handler
    time_service.o(.ARM.exidx) refers to time_service.o(i._ZN12time_service6millisEv) for i._ZN12time_service6millisEv
    time_service.o(.ARM.exidx) refers to time_service.o(i._ZN12time_service9startTimeEv) for i._ZN12time_service9startTimeEv
    time_service.o(.ARM.exidx) refers to time_service.o(i._ZN12time_service8stopTimeEv) for i._ZN12time_service8stopTimeEv
    time_service.o(.ARM.exidx) refers to time_service.o(i._ZN12time_service4initEv) for i._ZN12time_service4initEv
    time_service.o(.ARM.exidx) refers to time_service.o(i._ZN12time_service5delayEj) for i._ZN12time_service5delayEj
    mpu9250_spi.o(i._ZN11mpu9250_spi12readFIFOsizeEv) refers to mpu9250_spi.o(i._ZN11mpu9250_spi7readRegEiPii) for mpu9250_spi::readReg(int, int*, int)
    mpu9250_spi.o(i._ZN11mpu9250_spi12readFIFOsizeEv) refers to mpu9250_spi.o(i._ZN11mpu9250_spi7convertEth) for mpu9250_spi::convert(unsigned short, unsigned char)
    mpu9250_spi.o(i._ZN11mpu9250_spi12setAccOffsetEiii) refers to mpu9250_spi.o(i._ZN11mpu9250_spi8writeRegEih) for mpu9250_spi::writeReg(int, unsigned char)
    mpu9250_spi.o(i._ZN11mpu9250_spi12updateAnglesEdb) refers to deqf.o(x$fpl$deqf) for __aeabi_cdcmpeq
    mpu9250_spi.o(i._ZN11mpu9250_spi12updateAnglesEdb) refers to time_service.o(i._ZN12time_service6millisEv) for time_service::millis()
    mpu9250_spi.o(i._ZN11mpu9250_spi12updateAnglesEdb) refers to dfltll_clz.o(x$fpl$dfltull) for __aeabi_ul2d
    mpu9250_spi.o(i._ZN11mpu9250_spi12updateAnglesEdb) refers to ddiv.o(x$fpl$ddiv) for __aeabi_ddiv
    mpu9250_spi.o(i._ZN11mpu9250_spi12updateAnglesEdb) refers to dfixu.o(x$fpl$dfixu) for __aeabi_d2uiz
    mpu9250_spi.o(i._ZN11mpu9250_spi12updateAnglesEdb) refers to drleqf.o(x$fpl$drleqf) for __aeabi_cdrcmple
    mpu9250_spi.o(i._ZN11mpu9250_spi12updateAnglesEdb) refers to mpu9250_spi.o(i._ZN11mpu9250_spi7readAccEv) for mpu9250_spi::readAcc()
    mpu9250_spi.o(i._ZN11mpu9250_spi12updateAnglesEdb) refers to mpu9250_spi.o(i._ZN11mpu9250_spi8readGyroEv) for mpu9250_spi::readGyro()
    mpu9250_spi.o(i._ZN11mpu9250_spi12updateAnglesEdb) refers to mpu9250_spi.o(i._ZN11mpu9250_spi21MadgwickAHRSupdateIMUEd) for mpu9250_spi::MadgwickAHRSupdateIMU(double)
    mpu9250_spi.o(i._ZN11mpu9250_spi12updateAnglesEdb) refers to dmul.o(x$fpl$dmul) for __aeabi_dmul
    mpu9250_spi.o(i._ZN11mpu9250_spi12updateAnglesEdb) refers to daddsub_clz.o(x$fpl$dsub) for __aeabi_dsub
    mpu9250_spi.o(i._ZN11mpu9250_spi12updateAnglesEdb) refers to asin.o(i.__hardfp_asin) for __hardfp_asin
    mpu9250_spi.o(i._ZN11mpu9250_spi12updateAnglesEdb) refers to daddsub_clz.o(x$fpl$dadd) for __aeabi_dadd
    mpu9250_spi.o(i._ZN11mpu9250_spi12updateAnglesEdb) refers to daddsub_clz.o(x$fpl$drsb) for __aeabi_drsub
    mpu9250_spi.o(i._ZN11mpu9250_spi12updateAnglesEdb) refers to atan2.o(i.__hardfp_atan2) for __hardfp_atan2
    mpu9250_spi.o(i._ZN11mpu9250_spi12updateAnglesEdb) refers to d2f.o(x$fpl$d2f) for __aeabi_d2f
    mpu9250_spi.o(i._ZN11mpu9250_spi13setGyroOffsetEiii) refers to mpu9250_spi.o(i._ZN11mpu9250_spi8writeRegEih) for mpu9250_spi::writeReg(int, unsigned char)
    mpu9250_spi.o(i._ZN11mpu9250_spi15read_acc_fs_selEv) refers to mpu9250_spi.o(i._ZN11mpu9250_spi7readRegEiPii) for mpu9250_spi::readReg(int, int*, int)
    mpu9250_spi.o(i._ZN11mpu9250_spi16read_gyro_fs_selEv) refers to mpu9250_spi.o(i._ZN11mpu9250_spi7readRegEiPii) for mpu9250_spi::readReg(int, int*, int)
    mpu9250_spi.o(i._ZN11mpu9250_spi20updateAnglesFromFIFOEv) refers to mpu9250_spi.o(i._ZN11mpu9250_spi12readFIFOsizeEv) for mpu9250_spi::readFIFOsize()
    mpu9250_spi.o(i._ZN11mpu9250_spi20updateAnglesFromFIFOEv) refers to mpu9250_spi.o(i._ZN11mpu9250_spi12updateAnglesEdb) for mpu9250_spi::updateAngles(double, bool)
    mpu9250_spi.o(i._ZN11mpu9250_spi21MadgwickAHRSupdateIMUEd) refers to dmul.o(x$fpl$dmul) for __aeabi_dmul
    mpu9250_spi.o(i._ZN11mpu9250_spi21MadgwickAHRSupdateIMUEd) refers to basic.o(x$fpl$basic) for __aeabi_dneg
    mpu9250_spi.o(i._ZN11mpu9250_spi21MadgwickAHRSupdateIMUEd) refers to daddsub_clz.o(x$fpl$dsub) for __aeabi_dsub
    mpu9250_spi.o(i._ZN11mpu9250_spi21MadgwickAHRSupdateIMUEd) refers to d2f.o(x$fpl$d2f) for __aeabi_d2f
    mpu9250_spi.o(i._ZN11mpu9250_spi21MadgwickAHRSupdateIMUEd) refers to daddsub_clz.o(x$fpl$dadd) for __aeabi_dadd
    mpu9250_spi.o(i._ZN11mpu9250_spi21MadgwickAHRSupdateIMUEd) refers to deqf.o(x$fpl$deqf) for __aeabi_cdcmpeq
    mpu9250_spi.o(i._ZN11mpu9250_spi21MadgwickAHRSupdateIMUEd) refers to mpu9250_spi.o(i._ZN11mpu9250_spi7invSqrtEf) for mpu9250_spi::invSqrt(float)
    mpu9250_spi.o(i._ZN11mpu9250_spi21MadgwickAHRSupdateIMUEd) refers to f2d.o(x$fpl$f2d) for __aeabi_f2d
    mpu9250_spi.o(i._ZN11mpu9250_spi7correctEv) refers to time_service.o(i._ZN12time_service6millisEv) for time_service::millis()
    mpu9250_spi.o(i._ZN11mpu9250_spi7correctEv) refers to dfltll_clz.o(x$fpl$dfltull) for __aeabi_ul2d
    mpu9250_spi.o(i._ZN11mpu9250_spi7correctEv) refers to ddiv.o(x$fpl$ddiv) for __aeabi_ddiv
    mpu9250_spi.o(i._ZN11mpu9250_spi7correctEv) refers to daddsub_clz.o(x$fpl$drsb) for __aeabi_drsub
    mpu9250_spi.o(i._ZN11mpu9250_spi7initIMUEv) refers to time_service.o(i._ZN12time_service5delayEj) for time_service::delay(unsigned)
    mpu9250_spi.o(i._ZN11mpu9250_spi7initIMUEv) refers to spi_dot.o(i._Z8initSPI2bht) for initSPI2(bool, unsigned char, unsigned short)
    mpu9250_spi.o(i._ZN11mpu9250_spi7initIMUEv) refers to pin.o(i._ZN3Pin6setBitEv) for Pin::setBit()
    mpu9250_spi.o(i._ZN11mpu9250_spi7initIMUEv) refers to mpu9250_spi.o(i._ZN11mpu9250_spi8writeRegEih) for mpu9250_spi::writeReg(int, unsigned char)
    mpu9250_spi.o(i._ZN11mpu9250_spi7initIMUEv) refers to mpu9250_spi.o(i._ZN11mpu9250_spi13setGyroOffsetEiii) for mpu9250_spi::setGyroOffset(int, int, int)
    mpu9250_spi.o(i._ZN11mpu9250_spi7initIMUEv) refers to mpu9250_spi.o(i._ZN11mpu9250_spi12setAccOffsetEiii) for mpu9250_spi::setAccOffset(int, int, int)
    mpu9250_spi.o(i._ZN11mpu9250_spi7initIMUEv) refers to time_service.o(i._ZN12time_service6millisEv) for time_service::millis()
    mpu9250_spi.o(i._ZN11mpu9250_spi7readAccEv) refers to mpu9250_spi.o(i._ZN11mpu9250_spi7readRegEiPii) for mpu9250_spi::readReg(int, int*, int)
    mpu9250_spi.o(i._ZN11mpu9250_spi7readAccEv) refers to mpu9250_spi.o(i._ZN11mpu9250_spi7convertEth) for mpu9250_spi::convert(unsigned short, unsigned char)
    mpu9250_spi.o(i._ZN11mpu9250_spi7readAccEv) refers to dflt_clz.o(x$fpl$dflt) for __aeabi_i2d
    mpu9250_spi.o(i._ZN11mpu9250_spi7readAccEv) refers to ddiv.o(x$fpl$ddiv) for __aeabi_ddiv
    mpu9250_spi.o(i._ZN11mpu9250_spi7readAccEv) refers to daddsub_clz.o(x$fpl$dsub) for __aeabi_dsub
    mpu9250_spi.o(i._ZN11mpu9250_spi7readRegEiPii) refers to pin.o(i._ZN3Pin8resetBitEv) for Pin::resetBit()
    mpu9250_spi.o(i._ZN11mpu9250_spi7readRegEiPii) refers to spi_dot.o(i._Z8writeSPIt) for writeSPI(unsigned short)
    mpu9250_spi.o(i._ZN11mpu9250_spi7readRegEiPii) refers to pin.o(i._ZN3Pin6setBitEv) for Pin::setBit()
    mpu9250_spi.o(i._ZN11mpu9250_spi8readFIFOEv) refers to mpu9250_spi.o(i._ZN11mpu9250_spi7readRegEiPii) for mpu9250_spi::readReg(int, int*, int)
    mpu9250_spi.o(i._ZN11mpu9250_spi8readFIFOEv) refers to mpu9250_spi.o(i._ZN11mpu9250_spi7convertEth) for mpu9250_spi::convert(unsigned short, unsigned char)
    mpu9250_spi.o(i._ZN11mpu9250_spi8readFIFOEv) refers to dflt_clz.o(x$fpl$dflt) for __aeabi_i2d
    mpu9250_spi.o(i._ZN11mpu9250_spi8readFIFOEv) refers to daddsub_clz.o(x$fpl$dsub) for __aeabi_dsub
    mpu9250_spi.o(i._ZN11mpu9250_spi8readFIFOEv) refers to ddiv.o(x$fpl$ddiv) for __aeabi_ddiv
    mpu9250_spi.o(i._ZN11mpu9250_spi8readGyroEv) refers to mpu9250_spi.o(i._ZN11mpu9250_spi7readRegEiPii) for mpu9250_spi::readReg(int, int*, int)
    mpu9250_spi.o(i._ZN11mpu9250_spi8readGyroEv) refers to mpu9250_spi.o(i._ZN11mpu9250_spi7convertEth) for mpu9250_spi::convert(unsigned short, unsigned char)
    mpu9250_spi.o(i._ZN11mpu9250_spi8readGyroEv) refers to dflt_clz.o(x$fpl$dflt) for __aeabi_i2d
    mpu9250_spi.o(i._ZN11mpu9250_spi8readGyroEv) refers to ddiv.o(x$fpl$ddiv) for __aeabi_ddiv
    mpu9250_spi.o(i._ZN11mpu9250_spi8readGyroEv) refers to daddsub_clz.o(x$fpl$dsub) for __aeabi_dsub
    mpu9250_spi.o(i._ZN11mpu9250_spi8readTempEv) refers to mpu9250_spi.o(i._ZN11mpu9250_spi7readRegEiPii) for mpu9250_spi::readReg(int, int*, int)
    mpu9250_spi.o(i._ZN11mpu9250_spi8readTempEv) refers to mpu9250_spi.o(i._ZN11mpu9250_spi7convertEth) for mpu9250_spi::convert(unsigned short, unsigned char)
    mpu9250_spi.o(i._ZN11mpu9250_spi8readTempEv) refers to dflt_clz.o(x$fpl$dflt) for __aeabi_i2d
    mpu9250_spi.o(i._ZN11mpu9250_spi8readTempEv) refers to daddsub_clz.o(x$fpl$dsub) for __aeabi_dsub
    mpu9250_spi.o(i._ZN11mpu9250_spi8readTempEv) refers to ddiv.o(x$fpl$ddiv) for __aeabi_ddiv
    mpu9250_spi.o(i._ZN11mpu9250_spi8readTempEv) refers to daddsub_clz.o(x$fpl$dadd) for __aeabi_dadd
    mpu9250_spi.o(i._ZN11mpu9250_spi8writeRegEih) refers to pin.o(i._ZN3Pin8resetBitEv) for Pin::resetBit()
    mpu9250_spi.o(i._ZN11mpu9250_spi8writeRegEih) refers to spi_dot.o(i._Z8writeSPIt) for writeSPI(unsigned short)
    mpu9250_spi.o(i._ZN11mpu9250_spi8writeRegEih) refers to pin.o(i._ZN3Pin6setBitEv) for Pin::setBit()
    mpu9250_spi.o(i._ZN11mpu9250_spi9calibrateEi) refers to time_service.o(i._ZN12time_service5delayEj) for time_service::delay(unsigned)
    mpu9250_spi.o(i._ZN11mpu9250_spi9calibrateEi) refers to mpu9250_spi.o(i._ZN11mpu9250_spi8readGyroEv) for mpu9250_spi::readGyro()
    mpu9250_spi.o(i._ZN11mpu9250_spi9calibrateEi) refers to daddsub_clz.o(x$fpl$dadd) for __aeabi_dadd
    mpu9250_spi.o(i._ZN11mpu9250_spi9calibrateEi) refers to dflt_clz.o(x$fpl$dflt) for __aeabi_i2d
    mpu9250_spi.o(i._ZN11mpu9250_spi9calibrateEi) refers to ddiv.o(x$fpl$ddiv) for __aeabi_ddiv
    mpu9250_spi.o(i._ZN11mpu9250_spiC1ER3Pin) refers to rt_memcpy_w.o(.text) for __aeabi_memcpy4
    mpu9250_spi.o(.ARM.exidx) refers to mpu9250_spi.o(i._ZN11mpu9250_spiC1ER3Pin) for i._ZN11mpu9250_spiC1ER3Pin
    mpu9250_spi.o(.ARM.exidx) refers to mpu9250_spi.o(i._ZN11mpu9250_spi8writeRegEih) for i._ZN11mpu9250_spi8writeRegEih
    mpu9250_spi.o(.ARM.exidx) refers to mpu9250_spi.o(i._ZN11mpu9250_spi12setAccOffsetEiii) for i._ZN11mpu9250_spi12setAccOffsetEiii
    mpu9250_spi.o(.ARM.exidx) refers to mpu9250_spi.o(i._ZN11mpu9250_spi13setGyroOffsetEiii) for i._ZN11mpu9250_spi13setGyroOffsetEiii
    mpu9250_spi.o(.ARM.exidx) refers to mpu9250_spi.o(i._ZN11mpu9250_spi7initIMUEv) for i._ZN11mpu9250_spi7initIMUEv
    mpu9250_spi.o(.ARM.exidx) refers to mpu9250_spi.o(i._ZN11mpu9250_spi7readRegEiPii) for i._ZN11mpu9250_spi7readRegEiPii
    mpu9250_spi.o(.ARM.exidx) refers to mpu9250_spi.o(i._ZN11mpu9250_spi7readAccEv) for i._ZN11mpu9250_spi7readAccEv
    mpu9250_spi.o(.ARM.exidx) refers to mpu9250_spi.o(i._ZN11mpu9250_spi8readGyroEv) for i._ZN11mpu9250_spi8readGyroEv
    mpu9250_spi.o(.ARM.exidx) refers to mpu9250_spi.o(i._ZN11mpu9250_spi8readTempEv) for i._ZN11mpu9250_spi8readTempEv
    mpu9250_spi.o(.ARM.exidx) refers to mpu9250_spi.o(i._ZN11mpu9250_spi12readFIFOsizeEv) for i._ZN11mpu9250_spi12readFIFOsizeEv
    mpu9250_spi.o(.ARM.exidx) refers to mpu9250_spi.o(i._ZN11mpu9250_spi8readFIFOEv) for i._ZN11mpu9250_spi8readFIFOEv
    mpu9250_spi.o(.ARM.exidx) refers to mpu9250_spi.o(i._ZN11mpu9250_spi9calibrateEi) for i._ZN11mpu9250_spi9calibrateEi
    mpu9250_spi.o(.ARM.exidx) refers to mpu9250_spi.o(i._ZN11mpu9250_spi7correctEv) for i._ZN11mpu9250_spi7correctEv
    mpu9250_spi.o(.ARM.exidx) refers to mpu9250_spi.o(i._ZN11mpu9250_spi7invSqrtEf) for i._ZN11mpu9250_spi7invSqrtEf
    mpu9250_spi.o(.ARM.exidx) refers to mpu9250_spi.o(i._ZN11mpu9250_spi21MadgwickAHRSupdateIMUEd) for i._ZN11mpu9250_spi21MadgwickAHRSupdateIMUEd
    mpu9250_spi.o(.ARM.exidx) refers to mpu9250_spi.o(i._ZN11mpu9250_spi12updateAnglesEdb) for i._ZN11mpu9250_spi12updateAnglesEdb
    mpu9250_spi.o(.ARM.exidx) refers to mpu9250_spi.o(i._ZN11mpu9250_spi20updateAnglesFromFIFOEv) for i._ZN11mpu9250_spi20updateAnglesFromFIFOEv
    mpu9250_spi.o(.ARM.exidx) refers to mpu9250_spi.o(i._ZN11mpu9250_spi5getXaEv) for i._ZN11mpu9250_spi5getXaEv
    mpu9250_spi.o(.ARM.exidx) refers to mpu9250_spi.o(i._ZN11mpu9250_spi5getYaEv) for i._ZN11mpu9250_spi5getYaEv
    mpu9250_spi.o(.ARM.exidx) refers to mpu9250_spi.o(i._ZN11mpu9250_spi5getZaEv) for i._ZN11mpu9250_spi5getZaEv
    mpu9250_spi.o(.ARM.exidx) refers to mpu9250_spi.o(i._ZN11mpu9250_spi5getXgEv) for i._ZN11mpu9250_spi5getXgEv
    mpu9250_spi.o(.ARM.exidx) refers to mpu9250_spi.o(i._ZN11mpu9250_spi5getYgEv) for i._ZN11mpu9250_spi5getYgEv
    mpu9250_spi.o(.ARM.exidx) refers to mpu9250_spi.o(i._ZN11mpu9250_spi5getZgEv) for i._ZN11mpu9250_spi5getZgEv
    mpu9250_spi.o(.ARM.exidx) refers to mpu9250_spi.o(i._ZN11mpu9250_spi16read_gyro_fs_selEv) for i._ZN11mpu9250_spi16read_gyro_fs_selEv
    mpu9250_spi.o(.ARM.exidx) refers to mpu9250_spi.o(i._ZN11mpu9250_spi15read_acc_fs_selEv) for i._ZN11mpu9250_spi15read_acc_fs_selEv
    imu_spi.o(i._ZN3IMU12setZeroAngleEv) refers to imu_spi.o(i._ZN3IMU6updateEv) for IMU::update()
    imu_spi.o(i._ZN3IMU20updateAnglesFromFIFOEv) refers to mpu9250_spi.o(i._ZN11mpu9250_spi20updateAnglesFromFIFOEv) for mpu9250_spi::updateAnglesFromFIFO()
    imu_spi.o(i._ZN3IMU4initEv) refers to mpu9250_spi.o(i._ZN11mpu9250_spi7initIMUEv) for mpu9250_spi::initIMU()
    imu_spi.o(i._ZN3IMU4initEv) refers to time_service.o(i._ZN12time_service5delayEj) for time_service::delay(unsigned)
    imu_spi.o(i._ZN3IMU4initEv) refers to imu_spi.o(i._ZN3IMU12setZeroAngleEv) for IMU::setZeroAngle()
    imu_spi.o(i._ZN3IMU4initEv) refers to time_service.o(i._ZN12time_service6millisEv) for time_service::millis()
    imu_spi.o(i._ZN3IMU5getXaEv) refers to mpu9250_spi.o(i._ZN11mpu9250_spi5getXaEv) for mpu9250_spi::getXa()
    imu_spi.o(i._ZN3IMU5getXgEv) refers to mpu9250_spi.o(i._ZN11mpu9250_spi5getXgEv) for mpu9250_spi::getXg()
    imu_spi.o(i._ZN3IMU5getYaEv) refers to mpu9250_spi.o(i._ZN11mpu9250_spi5getYaEv) for mpu9250_spi::getYa()
    imu_spi.o(i._ZN3IMU5getYgEv) refers to mpu9250_spi.o(i._ZN11mpu9250_spi5getYgEv) for mpu9250_spi::getYg()
    imu_spi.o(i._ZN3IMU5getZaEv) refers to mpu9250_spi.o(i._ZN11mpu9250_spi5getZaEv) for mpu9250_spi::getZa()
    imu_spi.o(i._ZN3IMU5getZgEv) refers to mpu9250_spi.o(i._ZN11mpu9250_spi5getZgEv) for mpu9250_spi::getZg()
    imu_spi.o(i._ZN3IMU6updateEv) refers to imu_spi.o(i._ZN3IMU20updateAnglesFromFIFOEv) for IMU::updateAnglesFromFIFO()
    imu_spi.o(i._ZN3IMU6updateEv) refers to daddsub_clz.o(x$fpl$dsub) for __aeabi_dsub
    imu_spi.o(i._ZN3IMU6updateEv) refers to drleqf.o(x$fpl$drleqf) for __aeabi_cdrcmple
    imu_spi.o(i._ZN3IMU6updateEv) refers to daddsub_clz.o(x$fpl$dadd) for __aeabi_dadd
    imu_spi.o(i._ZN3IMU6updateEv) refers to dleqf.o(x$fpl$dleqf) for __aeabi_cdcmple
    imu_spi.o(i._ZN3IMU7acc_selEv) refers to mpu9250_spi.o(i._ZN11mpu9250_spi15read_acc_fs_selEv) for mpu9250_spi::read_acc_fs_sel()
    imu_spi.o(i._ZN3IMU8getAngleEv) refers to daddsub_clz.o(x$fpl$dsub) for __aeabi_dsub
    imu_spi.o(i._ZN3IMU8getAngleEv) refers to drleqf.o(x$fpl$drleqf) for __aeabi_cdrcmple
    imu_spi.o(i._ZN3IMU8getAngleEv) refers to daddsub_clz.o(x$fpl$dadd) for __aeabi_dadd
    imu_spi.o(i._ZN3IMU8getAngleEv) refers to dleqf.o(x$fpl$dleqf) for __aeabi_cdcmple
    imu_spi.o(i._ZN3IMU8getAngleEv) refers to basic.o(x$fpl$basic) for __aeabi_dneg
    imu_spi.o(i._ZN3IMU8gyro_selEv) refers to mpu9250_spi.o(i._ZN11mpu9250_spi16read_gyro_fs_selEv) for mpu9250_spi::read_gyro_fs_sel()
    imu_spi.o(i._ZN3IMU9calibrateEj) refers to mpu9250_spi.o(i._ZN11mpu9250_spi9calibrateEi) for mpu9250_spi::calibrate(int)
    imu_spi.o(.ARM.exidx) refers to imu_spi.o(i._ZN3IMU20updateAnglesFromFIFOEv) for i._ZN3IMU20updateAnglesFromFIFOEv
    imu_spi.o(.ARM.exidx) refers to imu_spi.o(i._ZN3IMU6updateEv) for i._ZN3IMU6updateEv
    imu_spi.o(.ARM.exidx) refers to imu_spi.o(i._ZN3IMU12setZeroAngleEv) for i._ZN3IMU12setZeroAngleEv
    imu_spi.o(.ARM.exidx) refers to imu_spi.o(i._ZN3IMU4initEv) for i._ZN3IMU4initEv
    imu_spi.o(.ARM.exidx) refers to imu_spi.o(i._ZN3IMU9calibrateEj) for i._ZN3IMU9calibrateEj
    imu_spi.o(.ARM.exidx) refers to imu_spi.o(i._ZN3IMU8getAngleEv) for i._ZN3IMU8getAngleEv
    imu_spi.o(.ARM.exidx) refers to imu_spi.o(i._ZN3IMU5getXaEv) for i._ZN3IMU5getXaEv
    imu_spi.o(.ARM.exidx) refers to imu_spi.o(i._ZN3IMU5getYaEv) for i._ZN3IMU5getYaEv
    imu_spi.o(.ARM.exidx) refers to imu_spi.o(i._ZN3IMU5getZaEv) for i._ZN3IMU5getZaEv
    imu_spi.o(.ARM.exidx) refers to imu_spi.o(i._ZN3IMU5getXgEv) for i._ZN3IMU5getXgEv
    imu_spi.o(.ARM.exidx) refers to imu_spi.o(i._ZN3IMU5getYgEv) for i._ZN3IMU5getYgEv
    imu_spi.o(.ARM.exidx) refers to imu_spi.o(i._ZN3IMU5getZgEv) for i._ZN3IMU5getZgEv
    imu_spi.o(.ARM.exidx) refers to imu_spi.o(i._ZN3IMU8gyro_selEv) for i._ZN3IMU8gyro_selEv
    imu_spi.o(.ARM.exidx) refers to imu_spi.o(i._ZN3IMU7acc_selEv) for i._ZN3IMU7acc_selEv
    imu_spi.o(.ARM.exidx) refers to imu_spi.o(i._ZN3IMU16get_accelerationEv) for i._ZN3IMU16get_accelerationEv
    motor.o(i._ZN5Motor11getMaxSpeedEv) refers to pin.o(i._ZN3Pin9getPeriodEv) for Pin::getPeriod()
    motor.o(i._ZN5Motor2goEs) refers to pin.o(i._ZN3Pin9getPeriodEv) for Pin::getPeriod()
    motor.o(i._ZN5Motor2goEs) refers to pin.o(i._ZN3Pin3pwmEj) for Pin::pwm(unsigned)
    motor.o(i._ZN5Motor7disableEv) refers to pin.o(i._ZN3Pin3pwmEj) for Pin::pwm(unsigned)
    motor.o(i._ZN5MotorC1ER3PinS1_) refers to rt_memcpy_w.o(.text) for __aeabi_memcpy4
    motor.o(i._ZN5MotorC1ER3PinhS1_h) refers to rt_memcpy_w.o(.text) for __aeabi_memcpy4
    motor.o(i._ZN5MotorC1ER3PinhS1_h) refers to pin.o(i._ZN3Pin7pwmInitEsjh) for Pin::pwmInit(short, unsigned, unsigned char)
    motor.o(.ARM.exidx) refers to motor.o(i._ZN5MotorC1ER3PinhS1_h) for i._ZN5MotorC1ER3PinhS1_h
    motor.o(.ARM.exidx) refers to motor.o(i._ZN5MotorC1ER3PinS1_) for i._ZN5MotorC1ER3PinS1_
    motor.o(.ARM.exidx) refers to motor.o(i._ZN5Motor2goEs) for i._ZN5Motor2goEs
    motor.o(.ARM.exidx) refers to motor.o(i._ZN5Motor7disableEv) for i._ZN5Motor7disableEv
    motor.o(.ARM.exidx) refers to motor.o(i._ZN5Motor11getMaxSpeedEv) for i._ZN5Motor11getMaxSpeedEv
    usart1.o(i.USART1_IRQHandler) refers to stm32f4xx_usart.o(i.USART_ClearITPendingBit) for USART_ClearITPendingBit
    usart1.o(i.USART1_IRQHandler) refers to usart1.o(.data) for uart1::rx
    usart1.o(i._ZN5uart110usart1InitEjfh) refers to stm32f4xx_rcc.o(i.RCC_APB2PeriphClockCmd) for RCC_APB2PeriphClockCmd
    usart1.o(i._ZN5uart110usart1InitEjfh) refers to stm32f4xx_usart.o(i.USART_StructInit) for USART_StructInit
    usart1.o(i._ZN5uart110usart1InitEjfh) refers to f2d.o(x$fpl$f2d) for __aeabi_f2d
    usart1.o(i._ZN5uart110usart1InitEjfh) refers to deqf.o(x$fpl$deqf) for __aeabi_cdcmpeq
    usart1.o(i._ZN5uart110usart1InitEjfh) refers to stm32f4xx_usart.o(i.USART_Init) for USART_Init
    usart1.o(i._ZN5uart110usart1InitEjfh) refers to stm32f4xx_usart.o(i.USART_ITConfig) for USART_ITConfig
    usart1.o(i._ZN5uart110usart1InitEjfh) refers to stm32f4xx_usart.o(i.USART_Cmd) for USART_Cmd
    usart1.o(i._ZN5uart110usart1InitEjfh) refers to usart1.o(.data) for uart1::_txCnt
    usart1.o(i._ZN5uart14readEv) refers to usart1.o(.data) for uart1::rx
    usart1.o(i._ZN5uart15writeEh) refers to usart1.o(.data) for uart1::flag
    usart1.o(i._ZN5uart19availableEv) refers to usart1.o(.data) for uart1::_rxCnt
    usart1.o(.ARM.exidx) refers to usart1.o(i.USART1_IRQHandler) for i.USART1_IRQHandler
    usart1.o(.ARM.exidx) refers to usart1.o(i._ZN5uart110usart1InitEjfh) for i._ZN5uart110usart1InitEjfh
    usart1.o(.ARM.exidx) refers to usart1.o(i._ZN5uart14readEv) for i._ZN5uart14readEv
    usart1.o(.ARM.exidx) refers to usart1.o(i._ZN5uart15writeEh) for i._ZN5uart15writeEh
    usart1.o(.ARM.exidx) refers to usart1.o(i._ZN5uart19availableEv) for i._ZN5uart19availableEv
    usart2.o(i.USART2_IRQHandler) refers to stm32f4xx_usart.o(i.USART_ClearITPendingBit) for USART_ClearITPendingBit
    usart2.o(i.USART2_IRQHandler) refers to usart2.o(.data) for uart2::rx
    usart2.o(i._ZN5uart210usart2InitEjfh) refers to stm32f4xx_rcc.o(i.RCC_APB1PeriphClockCmd) for RCC_APB1PeriphClockCmd
    usart2.o(i._ZN5uart210usart2InitEjfh) refers to stm32f4xx_usart.o(i.USART_StructInit) for USART_StructInit
    usart2.o(i._ZN5uart210usart2InitEjfh) refers to f2d.o(x$fpl$f2d) for __aeabi_f2d
    usart2.o(i._ZN5uart210usart2InitEjfh) refers to deqf.o(x$fpl$deqf) for __aeabi_cdcmpeq
    usart2.o(i._ZN5uart210usart2InitEjfh) refers to stm32f4xx_usart.o(i.USART_Init) for USART_Init
    usart2.o(i._ZN5uart210usart2InitEjfh) refers to stm32f4xx_usart.o(i.USART_ITConfig) for USART_ITConfig
    usart2.o(i._ZN5uart210usart2InitEjfh) refers to stm32f4xx_usart.o(i.USART_Cmd) for USART_Cmd
    usart2.o(i._ZN5uart210usart2InitEjfh) refers to usart2.o(.data) for uart2::_txCnt
    usart2.o(i._ZN5uart24readEv) refers to usart2.o(.data) for uart2::rx
    usart2.o(i._ZN5uart25writeEh) refers to usart2.o(.data) for uart2::flag
    usart2.o(i._ZN5uart29availableEv) refers to usart2.o(.data) for uart2::_rxCnt
    usart2.o(.ARM.exidx) refers to usart2.o(i.USART2_IRQHandler) for i.USART2_IRQHandler
    usart2.o(.ARM.exidx) refers to usart2.o(i._ZN5uart210usart2InitEjfh) for i._ZN5uart210usart2InitEjfh
    usart2.o(.ARM.exidx) refers to usart2.o(i._ZN5uart24readEv) for i._ZN5uart24readEv
    usart2.o(.ARM.exidx) refers to usart2.o(i._ZN5uart25writeEh) for i._ZN5uart25writeEh
    usart2.o(.ARM.exidx) refers to usart2.o(i._ZN5uart29availableEv) for i._ZN5uart29availableEv
    usart3.o(i.USART3_IRQHandler) refers to stm32f4xx_usart.o(i.USART_ClearITPendingBit) for USART_ClearITPendingBit
    usart3.o(i.USART3_IRQHandler) refers to usart3.o(.data) for uart3::rx
    usart3.o(i._ZN5uart310usart3InitEjfh) refers to stm32f4xx_rcc.o(i.RCC_APB1PeriphClockCmd) for RCC_APB1PeriphClockCmd
    usart3.o(i._ZN5uart310usart3InitEjfh) refers to stm32f4xx_usart.o(i.USART_StructInit) for USART_StructInit
    usart3.o(i._ZN5uart310usart3InitEjfh) refers to f2d.o(x$fpl$f2d) for __aeabi_f2d
    usart3.o(i._ZN5uart310usart3InitEjfh) refers to deqf.o(x$fpl$deqf) for __aeabi_cdcmpeq
    usart3.o(i._ZN5uart310usart3InitEjfh) refers to stm32f4xx_usart.o(i.USART_Init) for USART_Init
    usart3.o(i._ZN5uart310usart3InitEjfh) refers to stm32f4xx_usart.o(i.USART_ITConfig) for USART_ITConfig
    usart3.o(i._ZN5uart310usart3InitEjfh) refers to stm32f4xx_usart.o(i.USART_Cmd) for USART_Cmd
    usart3.o(i._ZN5uart310usart3InitEjfh) refers to usart3.o(.data) for uart3::_txCnt
    usart3.o(i._ZN5uart34readEv) refers to usart3.o(.data) for uart3::rx
    usart3.o(i._ZN5uart35writeEh) refers to usart3.o(.data) for uart3::flag
    usart3.o(i._ZN5uart39availableEv) refers to usart3.o(.data) for uart3::_rxCnt
    usart3.o(.ARM.exidx) refers to usart3.o(i.USART3_IRQHandler) for i.USART3_IRQHandler
    usart3.o(.ARM.exidx) refers to usart3.o(i._ZN5uart310usart3InitEjfh) for i._ZN5uart310usart3InitEjfh
    usart3.o(.ARM.exidx) refers to usart3.o(i._ZN5uart34readEv) for i._ZN5uart34readEv
    usart3.o(.ARM.exidx) refers to usart3.o(i._ZN5uart35writeEh) for i._ZN5uart35writeEh
    usart3.o(.ARM.exidx) refers to usart3.o(i._ZN5uart39availableEv) for i._ZN5uart39availableEv
    usart6.o(i.USART6_IRQHandler) refers to stm32f4xx_usart.o(i.USART_ClearITPendingBit) for USART_ClearITPendingBit
    usart6.o(i.USART6_IRQHandler) refers to usart6.o(.data) for uart6::rx
    usart6.o(i._ZN5uart610usart6InitEjfh) refers to stm32f4xx_rcc.o(i.RCC_APB2PeriphClockCmd) for RCC_APB2PeriphClockCmd
    usart6.o(i._ZN5uart610usart6InitEjfh) refers to stm32f4xx_usart.o(i.USART_StructInit) for USART_StructInit
    usart6.o(i._ZN5uart610usart6InitEjfh) refers to f2d.o(x$fpl$f2d) for __aeabi_f2d
    usart6.o(i._ZN5uart610usart6InitEjfh) refers to deqf.o(x$fpl$deqf) for __aeabi_cdcmpeq
    usart6.o(i._ZN5uart610usart6InitEjfh) refers to stm32f4xx_usart.o(i.USART_Init) for USART_Init
    usart6.o(i._ZN5uart610usart6InitEjfh) refers to stm32f4xx_usart.o(i.USART_ITConfig) for USART_ITConfig
    usart6.o(i._ZN5uart610usart6InitEjfh) refers to stm32f4xx_usart.o(i.USART_Cmd) for USART_Cmd
    usart6.o(i._ZN5uart610usart6InitEjfh) refers to usart6.o(.data) for uart6::_txCnt
    usart6.o(i._ZN5uart64readEv) refers to usart6.o(.data) for uart6::rx
    usart6.o(i._ZN5uart65writeEh) refers to usart6.o(.data) for uart6::flag
    usart6.o(i._ZN5uart69availableEv) refers to usart6.o(.data) for uart6::_rxCnt
    usart6.o(.ARM.exidx) refers to usart6.o(i.USART6_IRQHandler) for i.USART6_IRQHandler
    usart6.o(.ARM.exidx) refers to usart6.o(i._ZN5uart610usart6InitEjfh) for i._ZN5uart610usart6InitEjfh
    usart6.o(.ARM.exidx) refers to usart6.o(i._ZN5uart64readEv) for i._ZN5uart64readEv
    usart6.o(.ARM.exidx) refers to usart6.o(i._ZN5uart65writeEh) for i._ZN5uart65writeEh
    usart6.o(.ARM.exidx) refers to usart6.o(i._ZN5uart69availableEv) for i._ZN5uart69availableEv
    adc.o(i._ZN3Adc10adcDmaInitEv) refers to stm32f4xx_adc.o(i.ADC_DMARequestAfterLastTransferCmd) for ADC_DMARequestAfterLastTransferCmd
    adc.o(i._ZN3Adc10adcDmaInitEv) refers to stm32f4xx_adc.o(i.ADC_EOCOnEachRegularChannelCmd) for ADC_EOCOnEachRegularChannelCmd
    adc.o(i._ZN3Adc10adcDmaInitEv) refers to stm32f4xx_adc.o(i.ADC_DMACmd) for ADC_DMACmd
    adc.o(i._ZN3Adc10adcDmaInitEv) refers to stm32f4xx_adc.o(i.ADC_SoftwareStartConv) for ADC_SoftwareStartConv
    adc.o(i._ZN3Adc10setChannelEv) refers to stm32f4xx_adc.o(i.ADC_RegularChannelConfig) for ADC_RegularChannelConfig
    adc.o(i._ZN3Adc4readEv) refers to stm32f4xx_adc.o(i.ADC_RegularChannelConfig) for ADC_RegularChannelConfig
    adc.o(i._ZN3Adc4readEv) refers to stm32f4xx_adc.o(i.ADC_SoftwareStartConv) for ADC_SoftwareStartConv
    adc.o(i._ZN3Adc4readEv) refers to stm32f4xx_adc.o(i.ADC_GetFlagStatus) for ADC_GetFlagStatus
    adc.o(i._ZN3Adc4readEv) refers to stm32f4xx_adc.o(i.ADC_GetConversionValue) for ADC_GetConversionValue
    adc.o(i._ZN3Adc7adcInitEh) refers to stm32f4xx_rcc.o(i.RCC_APB2PeriphClockCmd) for RCC_APB2PeriphClockCmd
    adc.o(i._ZN3Adc7adcInitEh) refers to adc.o(i._ZN3Adc9getCyclesEh) for Adc::getCycles(unsigned char)
    adc.o(i._ZN3Adc7adcInitEh) refers to stm32f4xx_adc.o(i.ADC_CommonInit) for ADC_CommonInit
    adc.o(i._ZN3Adc8startADCEv) refers to stm32f4xx_adc.o(i.ADC_Init) for ADC_Init
    adc.o(i._ZN3Adc8startADCEv) refers to stm32f4xx_adc.o(i.ADC_Cmd) for ADC_Cmd
    adc.o(i._ZN3AdcC1EP11ADC_TypeDefhh) refers to adc.o(i._ZN3Adc12getRCCPeriphEP11ADC_TypeDef) for Adc::getRCCPeriph(ADC_TypeDef*)
    adc.o(.ARM.exidx) refers to adc.o(i._ZN3AdcC1Ev) for i._ZN3AdcC1Ev
    adc.o(.ARM.exidx) refers to adc.o(i._ZN3Adc12getRCCPeriphEP11ADC_TypeDef) for i._ZN3Adc12getRCCPeriphEP11ADC_TypeDef
    adc.o(.ARM.exidx) refers to adc.o(i._ZN3AdcC1EP11ADC_TypeDefhh) for i._ZN3AdcC1EP11ADC_TypeDefhh
    adc.o(.ARM.exidx) refers to adc.o(i._ZN3Adc8sendMeChEh) for i._ZN3Adc8sendMeChEh
    adc.o(.ARM.exidx) refers to adc.o(i._ZN3Adc9getCyclesEh) for i._ZN3Adc9getCyclesEh
    adc.o(.ARM.exidx) refers to adc.o(i._ZN3Adc7adcInitEh) for i._ZN3Adc7adcInitEh
    adc.o(.ARM.exidx) refers to adc.o(i._ZN3Adc10adcDmaInitEv) for i._ZN3Adc10adcDmaInitEv
    adc.o(.ARM.exidx) refers to adc.o(i._ZN3Adc8startADCEv) for i._ZN3Adc8startADCEv
    adc.o(.ARM.exidx) refers to adc.o(i._ZN3Adc4readEv) for i._ZN3Adc4readEv
    adc.o(.ARM.exidx) refers to adc.o(i._ZN3Adc6getADCEv) for i._ZN3Adc6getADCEv
    adc.o(.ARM.exidx) refers to adc.o(i._ZN3Adc10setChannelEv) for i._ZN3Adc10setChannelEv
    dma.o(i._ZN3Dma12adcInitInDmaEh) refers to adc.o(i._ZN3Adc7adcInitEh) for Adc::adcInit(unsigned char)
    dma.o(i._ZN3Dma12adcInitInDmaEh) refers to adc.o(i._ZN3Adc8startADCEv) for Adc::startADC()
    dma.o(i._ZN3Dma12adcInitInDmaEh) refers to adc.o(i._ZN3Adc10setChannelEv) for Adc::setChannel()
    dma.o(i._ZN3Dma12adcInitInDmaEh) refers to adc.o(i._ZN3Adc10adcDmaInitEv) for Adc::adcDmaInit()
    dma.o(i._ZN3Dma6setADCER3Adc) refers to rt_memcpy_w.o(.text) for __aeabi_memcpy4
    dma.o(i._ZN3Dma7dmaInitEP18DMA_Stream_TypeDefjj) refers to stm32f4xx_rcc.o(i.RCC_AHB1PeriphClockCmd) for RCC_AHB1PeriphClockCmd
    dma.o(i._ZN3Dma7dmaInitEP18DMA_Stream_TypeDefjj) refers to stm32f4xx_dma.o(i.DMA_DeInit) for DMA_DeInit
    dma.o(i._ZN3Dma7dmaInitEP18DMA_Stream_TypeDefjj) refers to adc.o(i._ZN3Adc6getADCEv) for Adc::getADC()
    dma.o(i._ZN3Dma7dmaInitEP18DMA_Stream_TypeDefjj) refers to stm32f4xx_dma.o(i.DMA_Init) for DMA_Init
    dma.o(i._ZN3Dma7dmaInitEP18DMA_Stream_TypeDefjj) refers to stm32f4xx_dma.o(i.DMA_Cmd) for DMA_Cmd
    dma.o(i._ZN3DmaC1Ej) refers to adc.o(i._ZN3AdcC1Ev) for Adc::Adc()
    dma.o(i._ZN3DmaC1EjR3AdcP18DMA_Stream_TypeDefjjh) refers to rt_memcpy_w.o(.text) for __aeabi_memcpy4
    dma.o(i._ZN3DmaC1EjR3AdcP18DMA_Stream_TypeDefjjh) refers to dma.o(i._ZN3Dma7dmaInitEP18DMA_Stream_TypeDefjj) for Dma::dmaInit(DMA_Stream_TypeDef*, unsigned, unsigned)
    dma.o(i._ZN3DmaC1EjR3AdcP18DMA_Stream_TypeDefjjh) refers to dma.o(i._ZN3Dma12adcInitInDmaEh) for Dma::adcInitInDma(unsigned char)
    dma.o(i._ZN3DmaC1Ev) refers to adc.o(i._ZN3AdcC1Ev) for Adc::Adc()
    dma.o(.ARM.exidx) refers to dma.o(i._ZN3DmaC1Ev) for i._ZN3DmaC1Ev
    dma.o(.ARM.exidx) refers to dma.o(i._ZN3DmaC1Ej) for i._ZN3DmaC1Ej
    dma.o(.ARM.exidx) refers to dma.o(i._ZN3Dma12adcInitInDmaEh) for i._ZN3Dma12adcInitInDmaEh
    dma.o(.ARM.exidx) refers to dma.o(i._ZN3Dma7dmaInitEP18DMA_Stream_TypeDefjj) for i._ZN3Dma7dmaInitEP18DMA_Stream_TypeDefjj
    dma.o(.ARM.exidx) refers to dma.o(i._ZN3DmaC1EjR3AdcP18DMA_Stream_TypeDefjjh) for i._ZN3DmaC1EjR3AdcP18DMA_Stream_TypeDefjjh
    dma.o(.ARM.exidx) refers to dma.o(i._ZN3Dma6setADCER3Adc) for i._ZN3Dma6setADCER3Adc
    dma.o(.ARM.exidx) refers to dma.o(i._ZN3Dma10dataReturnEh) for i._ZN3Dma10dataReturnEh
    i2c.o(i._ZN3I2C12generateStopEv) refers to i2c.o(i._ZN3I2C6sclLowEv) for I2C::sclLow()
    i2c.o(i._ZN3I2C12generateStopEv) refers to i2c.o(i._ZN3I2C5delayEv) for I2C::delay()
    i2c.o(i._ZN3I2C12generateStopEv) refers to i2c.o(i._ZN3I2C6sdaLowEv) for I2C::sdaLow()
    i2c.o(i._ZN3I2C12generateStopEv) refers to i2c.o(i._ZN3I2C7sclHighEv) for I2C::sclHigh()
    i2c.o(i._ZN3I2C12generateStopEv) refers to i2c.o(i._ZN3I2C7sdaHighEv) for I2C::sdaHigh()
    i2c.o(i._ZN3I2C13generateStartEv) refers to i2c.o(i._ZN3I2C7sdaHighEv) for I2C::sdaHigh()
    i2c.o(i._ZN3I2C13generateStartEv) refers to i2c.o(i._ZN3I2C7sclHighEv) for I2C::sclHigh()
    i2c.o(i._ZN3I2C13generateStartEv) refers to i2c.o(i._ZN3I2C5delayEv) for I2C::delay()
    i2c.o(i._ZN3I2C13generateStartEv) refers to i2c.o(i._ZN3I2C7sdaReadEv) for I2C::sdaRead()
    i2c.o(i._ZN3I2C13generateStartEv) refers to i2c.o(i._ZN3I2C6sdaLowEv) for I2C::sdaLow()
    i2c.o(i._ZN3I2C13generateStartEv) refers to i2c.o(i._ZN3I2C6sclLowEv) for I2C::sclLow()
    i2c.o(i._ZN3I2C4readEv) refers to i2c.o(i._ZN3I2C7sdaHighEv) for I2C::sdaHigh()
    i2c.o(i._ZN3I2C4readEv) refers to i2c.o(i._ZN3I2C6sclLowEv) for I2C::sclLow()
    i2c.o(i._ZN3I2C4readEv) refers to i2c.o(i._ZN3I2C5delayEv) for I2C::delay()
    i2c.o(i._ZN3I2C4readEv) refers to i2c.o(i._ZN3I2C7sclHighEv) for I2C::sclHigh()
    i2c.o(i._ZN3I2C4readEv) refers to i2c.o(i._ZN3I2C7sdaReadEv) for I2C::sdaRead()
    i2c.o(i._ZN3I2C4sendEh) refers to i2c.o(i._ZN3I2C8writeBitEb) for I2C::writeBit(bool)
    i2c.o(i._ZN3I2C4sendEh) refers to i2c.o(i._ZN3I2C6sclLowEv) for I2C::sclLow()
    i2c.o(i._ZN3I2C4sendEh) refers to i2c.o(i._ZN3I2C5delayEv) for I2C::delay()
    i2c.o(i._ZN3I2C6sclLowEv) refers to pin.o(i._ZN3Pin8resetBitEv) for Pin::resetBit()
    i2c.o(i._ZN3I2C6sdaLowEv) refers to pin.o(i._ZN3Pin8resetBitEv) for Pin::resetBit()
    i2c.o(i._ZN3I2C7readAchEv) refers to i2c.o(i._ZN3I2C6sclLowEv) for I2C::sclLow()
    i2c.o(i._ZN3I2C7readAchEv) refers to i2c.o(i._ZN3I2C5delayEv) for I2C::delay()
    i2c.o(i._ZN3I2C7readAchEv) refers to i2c.o(i._ZN3I2C7sclHighEv) for I2C::sclHigh()
    i2c.o(i._ZN3I2C7readAchEv) refers to i2c.o(i._ZN3I2C7sdaReadEv) for I2C::sdaRead()
    i2c.o(i._ZN3I2C7sclHighEv) refers to pin.o(i._ZN3Pin6setBitEv) for Pin::setBit()
    i2c.o(i._ZN3I2C7sclReadEv) refers to pin.o(i._ZN3Pin8getGPIOxEv) for Pin::getGPIOx()
    i2c.o(i._ZN3I2C7sclReadEv) refers to pin.o(i._ZN3Pin6getPinEv) for Pin::getPin()
    i2c.o(i._ZN3I2C7sdaHighEv) refers to pin.o(i._ZN3Pin6setBitEv) for Pin::setBit()
    i2c.o(i._ZN3I2C7sdaReadEv) refers to pin.o(i._ZN3Pin8getGPIOxEv) for Pin::getGPIOx()
    i2c.o(i._ZN3I2C7sdaReadEv) refers to pin.o(i._ZN3Pin6getPinEv) for Pin::getPin()
    i2c.o(i._ZN3I2C7sendAchEv) refers to i2c.o(i._ZN3I2C6sclLowEv) for I2C::sclLow()
    i2c.o(i._ZN3I2C7sendAchEv) refers to i2c.o(i._ZN3I2C5delayEv) for I2C::delay()
    i2c.o(i._ZN3I2C7sendAchEv) refers to i2c.o(i._ZN3I2C6sdaLowEv) for I2C::sdaLow()
    i2c.o(i._ZN3I2C7sendAchEv) refers to i2c.o(i._ZN3I2C7sclHighEv) for I2C::sclHigh()
    i2c.o(i._ZN3I2C8sendNachEv) refers to i2c.o(i._ZN3I2C6sclLowEv) for I2C::sclLow()
    i2c.o(i._ZN3I2C8sendNachEv) refers to i2c.o(i._ZN3I2C5delayEv) for I2C::delay()
    i2c.o(i._ZN3I2C8sendNachEv) refers to i2c.o(i._ZN3I2C7sdaHighEv) for I2C::sdaHigh()
    i2c.o(i._ZN3I2C8sendNachEv) refers to i2c.o(i._ZN3I2C7sclHighEv) for I2C::sclHigh()
    i2c.o(i._ZN3I2C8writeBitEb) refers to i2c.o(i._ZN3I2C6sclLowEv) for I2C::sclLow()
    i2c.o(i._ZN3I2C8writeBitEb) refers to i2c.o(i._ZN3I2C5delayEv) for I2C::delay()
    i2c.o(i._ZN3I2C8writeBitEb) refers to i2c.o(i._ZN3I2C6sdaLowEv) for I2C::sdaLow()
    i2c.o(i._ZN3I2C8writeBitEb) refers to i2c.o(i._ZN3I2C7sdaHighEv) for I2C::sdaHigh()
    i2c.o(i._ZN3I2C8writeBitEb) refers to i2c.o(i._ZN3I2C7sclHighEv) for I2C::sclHigh()
    i2c.o(i._ZN3I2CC1ER3PinS1_) refers to rt_memcpy_w.o(.text) for __aeabi_memcpy4
    i2c.o(.ARM.exidx) refers to i2c.o(i._ZN3I2CC1ER3PinS1_) for i._ZN3I2CC1ER3PinS1_
    i2c.o(.ARM.exidx) refers to i2c.o(i._ZN3I2C7sclHighEv) for i._ZN3I2C7sclHighEv
    i2c.o(.ARM.exidx) refers to i2c.o(i._ZN3I2C7sdaHighEv) for i._ZN3I2C7sdaHighEv
    i2c.o(.ARM.exidx) refers to i2c.o(i._ZN3I2C6sclLowEv) for i._ZN3I2C6sclLowEv
    i2c.o(.ARM.exidx) refers to i2c.o(i._ZN3I2C6sdaLowEv) for i._ZN3I2C6sdaLowEv
    i2c.o(.ARM.exidx) refers to i2c.o(i._ZN3I2C5delayEv) for i._ZN3I2C5delayEv
    i2c.o(.ARM.exidx) refers to i2c.o(i._ZN3I2C7sdaReadEv) for i._ZN3I2C7sdaReadEv
    i2c.o(.ARM.exidx) refers to i2c.o(i._ZN3I2C13generateStartEv) for i._ZN3I2C13generateStartEv
    i2c.o(.ARM.exidx) refers to i2c.o(i._ZN3I2C12generateStopEv) for i._ZN3I2C12generateStopEv
    i2c.o(.ARM.exidx) refers to i2c.o(i._ZN3I2C7sclReadEv) for i._ZN3I2C7sclReadEv
    i2c.o(.ARM.exidx) refers to i2c.o(i._ZN3I2C8writeBitEb) for i._ZN3I2C8writeBitEb
    i2c.o(.ARM.exidx) refers to i2c.o(i._ZN3I2C4sendEh) for i._ZN3I2C4sendEh
    i2c.o(.ARM.exidx) refers to i2c.o(i._ZN3I2C7readAchEv) for i._ZN3I2C7readAchEv
    i2c.o(.ARM.exidx) refers to i2c.o(i._ZN3I2C4readEv) for i._ZN3I2C4readEv
    i2c.o(.ARM.exidx) refers to i2c.o(i._ZN3I2C7sendAchEv) for i._ZN3I2C7sendAchEv
    i2c.o(.ARM.exidx) refers to i2c.o(i._ZN3I2C8sendNachEv) for i._ZN3I2C8sendNachEv
    spi_dot.o(i._Z8initSPI2bht) refers to spi_dot.o(.data) for _RxData
    spi_dot.o(.ARM.exidx) refers to spi_dot.o(i._Z8initSPI2bht) for i._Z8initSPI2bht
    spi_dot.o(.ARM.exidx) refers to spi_dot.o(i._Z8writeSPIt) for i._Z8writeSPIt
    spi_1.o(i.SPI1_IRQHandler) refers to stm32f4xx_spi.o(i.SPI_I2S_GetFlagStatus) for SPI_I2S_GetFlagStatus
    spi_1.o(i.SPI1_IRQHandler) refers to spi_1.o(.bss) for SPI_1::_rx_buffer
    spi_1.o(i.SPI1_IRQHandler) refers to spi_1.o(.data) for SPI_1::_cur_rx_write
    spi_1.o(i._ZN5SPI_14initEiiii) refers to stm32f4xx_rcc.o(i.RCC_APB2PeriphClockCmd) for RCC_APB2PeriphClockCmd
    spi_1.o(i._ZN5SPI_14initEiiii) refers to stm32f4xx_spi.o(i.SPI_Init) for SPI_Init
    spi_1.o(i._ZN5SPI_14initEiiii) refers to stm32f4xx_spi.o(i.SPI_I2S_ITConfig) for SPI_I2S_ITConfig
    spi_1.o(i._ZN5SPI_14initEiiii) refers to stm32f4xx_spi.o(i.SPI_Cmd) for SPI_Cmd
    spi_1.o(i._ZN5SPI_14initEiiii) refers to spi_1.o(.data) for SPI_1::_spi_mode
    spi_1.o(i._ZN5SPI_14initEiiii) refers to spi_1.o(.bss) for SPI_1::_rx_buffer
    spi_1.o(i._ZN5SPI_14readEv) refers to spi_1.o(.data) for SPI_1::_buf_size
    spi_1.o(i._ZN5SPI_14readEv) refers to spi_1.o(.bss) for SPI_1::_rx_buffer
    spi_1.o(i._ZN5SPI_19availableEv) refers to spi_1.o(.data) for SPI_1::_buf_size
    spi_1.o(.ARM.exidx) refers to spi_1.o(i.SPI1_IRQHandler) for i.SPI1_IRQHandler
    spi_1.o(.ARM.exidx) refers to spi_1.o(i._ZN5SPI_14initEiiii) for i._ZN5SPI_14initEiiii
    spi_1.o(.ARM.exidx) refers to spi_1.o(i._ZN5SPI_14readEv) for i._ZN5SPI_14readEv
    spi_1.o(.ARM.exidx) refers to spi_1.o(i._ZN5SPI_14sendEt) for i._ZN5SPI_14sendEt
    spi_1.o(.ARM.exidx) refers to spi_1.o(i._ZN5SPI_19availableEv) for i._ZN5SPI_19availableEv
    retarget.o(.rev16_text) refers (Special) to use_no_semi.o(.text) for __use_no_semihosting_swi
    retarget.o(.revsh_text) refers (Special) to use_no_semi.o(.text) for __use_no_semihosting_swi
    retarget.o(.rrx_text) refers (Special) to use_no_semi.o(.text) for __use_no_semihosting_swi
    retarget.o(i._Z12ITM_SendCharj) refers (Special) to use_no_semi.o(.text) for __use_no_semihosting_swi
    retarget.o(i.__aeabi_atexit) refers (Special) to use_no_semi.o(.text) for __use_no_semihosting_swi
    retarget.o(i._sys_command_string) refers (Special) to use_no_semi.o(.text) for __use_no_semihosting_swi
    retarget.o(i._sys_exit) refers (Special) to use_no_semi.o(.text) for __use_no_semihosting_swi
    retarget.o(i._ttywrch) refers (Special) to use_no_semi.o(.text) for __use_no_semihosting_swi
    retarget.o(i._ttywrch) refers to retarget.o(i._Z12ITM_SendCharj) for ITM_SendChar(unsigned)
    retarget.o(i.ferror) refers (Special) to use_no_semi.o(.text) for __use_no_semihosting_swi
    retarget.o(i.fgetc) refers (Special) to use_no_semi.o(.text) for __use_no_semihosting_swi
    retarget.o(i.fputc) refers (Special) to use_no_semi.o(.text) for __use_no_semihosting_swi
    retarget.o(i.fputc) refers to retarget.o(i._Z12ITM_SendCharj) for ITM_SendChar(unsigned)
    retarget.o(.ARM.exidx) refers (Special) to use_no_semi.o(.text) for __use_no_semihosting_swi
    retarget.o(.ARM.exidx) refers to retarget.o(i._Z12ITM_SendCharj) for i._Z12ITM_SendCharj
    retarget.o(.ARM.exidx) refers (Special) to use_no_semi.o(.text) for __use_no_semihosting_swi
    retarget.o(.ARM.exidx) refers to retarget.o(i.__aeabi_atexit) for i.__aeabi_atexit
    retarget.o(.ARM.exidx) refers (Special) to use_no_semi.o(.text) for __use_no_semihosting_swi
    retarget.o(.ARM.exidx) refers to retarget.o(i.fputc) for i.fputc
    retarget.o(.ARM.exidx) refers (Special) to use_no_semi.o(.text) for __use_no_semihosting_swi
    retarget.o(.ARM.exidx) refers to retarget.o(i.fgetc) for i.fgetc
    retarget.o(.ARM.exidx) refers (Special) to use_no_semi.o(.text) for __use_no_semihosting_swi
    retarget.o(.ARM.exidx) refers to retarget.o(i.ferror) for i.ferror
    retarget.o(.ARM.exidx) refers (Special) to use_no_semi.o(.text) for __use_no_semihosting_swi
    retarget.o(.ARM.exidx) refers to retarget.o(i._ttywrch) for i._ttywrch
    retarget.o(.ARM.exidx) refers (Special) to use_no_semi.o(.text) for __use_no_semihosting_swi
    retarget.o(.ARM.exidx) refers to retarget.o(i._sys_command_string) for i._sys_command_string
    retarget.o(.ARM.exidx) refers (Special) to use_no_semi.o(.text) for __use_no_semihosting_swi
    retarget.o(.ARM.exidx) refers to retarget.o(i._sys_exit) for i._sys_exit
    retarget.o(.constdata) refers (Special) to use_no_semi.o(.text) for __use_no_semihosting_swi
    retarget.o(.data) refers (Special) to use_no_semi.o(.text) for __use_no_semihosting_swi
    stm32f4xx_adc.o(i.ADC_DeInit) refers to stm32f4xx_rcc.o(i.RCC_APB2PeriphResetCmd) for RCC_APB2PeriphResetCmd
    stm32f4xx_flash.o(i.FLASH_EraseAllBank1Sectors) refers to stm32f4xx_flash.o(i.FLASH_WaitForLastOperation) for FLASH_WaitForLastOperation
    stm32f4xx_flash.o(i.FLASH_EraseAllBank2Sectors) refers to stm32f4xx_flash.o(i.FLASH_WaitForLastOperation) for FLASH_WaitForLastOperation
    stm32f4xx_flash.o(i.FLASH_EraseAllSectors) refers to stm32f4xx_flash.o(i.FLASH_WaitForLastOperation) for FLASH_WaitForLastOperation
    stm32f4xx_flash.o(i.FLASH_EraseSector) refers to stm32f4xx_flash.o(i.FLASH_WaitForLastOperation) for FLASH_WaitForLastOperation
    stm32f4xx_flash.o(i.FLASH_OB_Launch) refers to stm32f4xx_flash.o(i.FLASH_WaitForLastOperation) for FLASH_WaitForLastOperation
    stm32f4xx_flash.o(i.FLASH_OB_PCROP1Config) refers to stm32f4xx_flash.o(i.FLASH_WaitForLastOperation) for FLASH_WaitForLastOperation
    stm32f4xx_flash.o(i.FLASH_OB_PCROPConfig) refers to stm32f4xx_flash.o(i.FLASH_WaitForLastOperation) for FLASH_WaitForLastOperation
    stm32f4xx_flash.o(i.FLASH_OB_RDPConfig) refers to stm32f4xx_flash.o(i.FLASH_WaitForLastOperation) for FLASH_WaitForLastOperation
    stm32f4xx_flash.o(i.FLASH_OB_UserConfig) refers to stm32f4xx_flash.o(i.FLASH_WaitForLastOperation) for FLASH_WaitForLastOperation
    stm32f4xx_flash.o(i.FLASH_OB_WRP1Config) refers to stm32f4xx_flash.o(i.FLASH_WaitForLastOperation) for FLASH_WaitForLastOperation
    stm32f4xx_flash.o(i.FLASH_OB_WRPConfig) refers to stm32f4xx_flash.o(i.FLASH_WaitForLastOperation) for FLASH_WaitForLastOperation
    stm32f4xx_flash.o(i.FLASH_ProgramByte) refers to stm32f4xx_flash.o(i.FLASH_WaitForLastOperation) for FLASH_WaitForLastOperation
    stm32f4xx_flash.o(i.FLASH_ProgramDoubleWord) refers to stm32f4xx_flash.o(i.FLASH_WaitForLastOperation) for FLASH_WaitForLastOperation
    stm32f4xx_flash.o(i.FLASH_ProgramHalfWord) refers to stm32f4xx_flash.o(i.FLASH_WaitForLastOperation) for FLASH_WaitForLastOperation
    stm32f4xx_flash.o(i.FLASH_ProgramWord) refers to stm32f4xx_flash.o(i.FLASH_WaitForLastOperation) for FLASH_WaitForLastOperation
    stm32f4xx_flash.o(i.FLASH_WaitForLastOperation) refers to stm32f4xx_flash.o(i.FLASH_GetStatus) for FLASH_GetStatus
    stm32f4xx_dac.o(i.DAC_DeInit) refers to stm32f4xx_rcc.o(i.RCC_APB1PeriphResetCmd) for RCC_APB1PeriphResetCmd
    stm32f4xx_gpio.o(i.GPIO_DeInit) refers to stm32f4xx_rcc.o(i.RCC_AHB1PeriphResetCmd) for RCC_AHB1PeriphResetCmd
    stm32f4xx_i2c.o(i.I2C_DeInit) refers to stm32f4xx_rcc.o(i.RCC_APB1PeriphResetCmd) for RCC_APB1PeriphResetCmd
    stm32f4xx_i2c.o(i.I2C_Init) refers to stm32f4xx_rcc.o(i.RCC_GetClocksFreq) for RCC_GetClocksFreq
    stm32f4xx_rcc.o(i.RCC_GetClocksFreq) refers to stm32f4xx_rcc.o(.data) for APBAHBPrescTable
    stm32f4xx_rcc.o(i.RCC_WaitForHSEStartUp) refers to stm32f4xx_rcc.o(i.RCC_GetFlagStatus) for RCC_GetFlagStatus
    stm32f4xx_spi.o(i.SPI_I2S_DeInit) refers to stm32f4xx_rcc.o(i.RCC_APB2PeriphResetCmd) for RCC_APB2PeriphResetCmd
    stm32f4xx_spi.o(i.SPI_I2S_DeInit) refers to stm32f4xx_rcc.o(i.RCC_APB1PeriphResetCmd) for RCC_APB1PeriphResetCmd
    stm32f4xx_tim.o(i.TIM_DeInit) refers to stm32f4xx_rcc.o(i.RCC_APB2PeriphResetCmd) for RCC_APB2PeriphResetCmd
    stm32f4xx_tim.o(i.TIM_DeInit) refers to stm32f4xx_rcc.o(i.RCC_APB1PeriphResetCmd) for RCC_APB1PeriphResetCmd
    stm32f4xx_tim.o(i.TIM_ETRClockMode1Config) refers to stm32f4xx_tim.o(i.TIM_ETRConfig) for TIM_ETRConfig
    stm32f4xx_tim.o(i.TIM_ETRClockMode2Config) refers to stm32f4xx_tim.o(i.TIM_ETRConfig) for TIM_ETRConfig
    stm32f4xx_tim.o(i.TIM_ICInit) refers to stm32f4xx_tim.o(i.TI1_Config) for TI1_Config
    stm32f4xx_tim.o(i.TIM_ICInit) refers to stm32f4xx_tim.o(i.TIM_SetIC1Prescaler) for TIM_SetIC1Prescaler
    stm32f4xx_tim.o(i.TIM_ICInit) refers to stm32f4xx_tim.o(i.TI2_Config) for TI2_Config
    stm32f4xx_tim.o(i.TIM_ICInit) refers to stm32f4xx_tim.o(i.TIM_SetIC2Prescaler) for TIM_SetIC2Prescaler
    stm32f4xx_tim.o(i.TIM_ICInit) refers to stm32f4xx_tim.o(i.TI3_Config) for TI3_Config
    stm32f4xx_tim.o(i.TIM_ICInit) refers to stm32f4xx_tim.o(i.TIM_SetIC3Prescaler) for TIM_SetIC3Prescaler
    stm32f4xx_tim.o(i.TIM_ICInit) refers to stm32f4xx_tim.o(i.TI4_Config) for TI4_Config
    stm32f4xx_tim.o(i.TIM_ICInit) refers to stm32f4xx_tim.o(i.TIM_SetIC4Prescaler) for TIM_SetIC4Prescaler
    stm32f4xx_tim.o(i.TIM_ITRxExternalClockConfig) refers to stm32f4xx_tim.o(i.TIM_SelectInputTrigger) for TIM_SelectInputTrigger
    stm32f4xx_tim.o(i.TIM_PWMIConfig) refers to stm32f4xx_tim.o(i.TI1_Config) for TI1_Config
    stm32f4xx_tim.o(i.TIM_PWMIConfig) refers to stm32f4xx_tim.o(i.TIM_SetIC1Prescaler) for TIM_SetIC1Prescaler
    stm32f4xx_tim.o(i.TIM_PWMIConfig) refers to stm32f4xx_tim.o(i.TI2_Config) for TI2_Config
    stm32f4xx_tim.o(i.TIM_PWMIConfig) refers to stm32f4xx_tim.o(i.TIM_SetIC2Prescaler) for TIM_SetIC2Prescaler
    stm32f4xx_tim.o(i.TIM_TIxExternalClockConfig) refers to stm32f4xx_tim.o(i.TI2_Config) for TI2_Config
    stm32f4xx_tim.o(i.TIM_TIxExternalClockConfig) refers to stm32f4xx_tim.o(i.TI1_Config) for TI1_Config
    stm32f4xx_tim.o(i.TIM_TIxExternalClockConfig) refers to stm32f4xx_tim.o(i.TIM_SelectInputTrigger) for TIM_SelectInputTrigger
    stm32f4xx_usart.o(i.USART_DeInit) refers to stm32f4xx_rcc.o(i.RCC_APB2PeriphResetCmd) for RCC_APB2PeriphResetCmd
    stm32f4xx_usart.o(i.USART_DeInit) refers to stm32f4xx_rcc.o(i.RCC_APB1PeriphResetCmd) for RCC_APB1PeriphResetCmd
    stm32f4xx_usart.o(i.USART_Init) refers to stm32f4xx_rcc.o(i.RCC_GetClocksFreq) for RCC_GetClocksFreq
    startup_stm32f407xx.o(STACK) refers (Special) to heapauxi.o(.text) for __use_two_region_memory
    startup_stm32f407xx.o(HEAP) refers (Special) to heapauxi.o(.text) for __use_two_region_memory
    startup_stm32f407xx.o(RESET) refers (Special) to heapauxi.o(.text) for __use_two_region_memory
    startup_stm32f407xx.o(RESET) refers to startup_stm32f407xx.o(STACK) for __initial_sp
    startup_stm32f407xx.o(RESET) refers to startup_stm32f407xx.o(.text) for Reset_Handler
    startup_stm32f407xx.o(RESET) refers to time_service.o(i.SysTick_Handler) for SysTick_Handler
    startup_stm32f407xx.o(RESET) refers to spi_1.o(i.SPI1_IRQHandler) for SPI1_IRQHandler
    startup_stm32f407xx.o(RESET) refers to usart1.o(i.USART1_IRQHandler) for USART1_IRQHandler
    startup_stm32f407xx.o(RESET) refers to usart2.o(i.USART2_IRQHandler) for USART2_IRQHandler
    startup_stm32f407xx.o(RESET) refers to usart3.o(i.USART3_IRQHandler) for USART3_IRQHandler
    startup_stm32f407xx.o(RESET) refers to usart6.o(i.USART6_IRQHandler) for USART6_IRQHandler
    startup_stm32f407xx.o(.text) refers (Special) to heapauxi.o(.text) for __use_two_region_memory
    startup_stm32f407xx.o(.text) refers to system_stm32f4xx.o(i.SystemInit) for SystemInit
    startup_stm32f407xx.o(.text) refers to __main.o(!!!main) for __main
    startup_stm32f407xx.o(.text) refers to startup_stm32f407xx.o(HEAP) for Heap_Mem
    startup_stm32f407xx.o(.text) refers to startup_stm32f407xx.o(STACK) for Stack_Mem
    system_stm32f4xx.o(i.SystemCoreClockUpdate) refers to system_stm32f4xx.o(.data) for SystemCoreClock
    system_stm32f4xx.o(i.SystemCoreClockUpdate) refers to system_stm32f4xx.o(.constdata) for AHBPrescTable
    system_stm32f4xx.o(i.SystemInit) refers to system_stm32f4xx.o(i.SetSysClock) for SetSysClock
    __main.o(!!!main) refers to __rtentry.o(.ARM.Collect$$rtentry$$00000000) for __rt_entry
    init_aeabi.o(.emb_text) refers (Special) to libinit2.o(.ARM.Collect$$libinit$$00000031) for __rt_lib_init_cpp_2
    init_aeabi.o(.init_array) refers (Special) to libinit2.o(.ARM.Collect$$libinit$$00000031) for __rt_lib_init_cpp_2
    init_aeabi.o(.init_array) refers to init_aeabi.o(.text) for __cpp_initialize__aeabi_
    init_aeabi.o(.dummy_text) refers (Special) to libinit2.o(.ARM.Collect$$libinit$$00000031) for __rt_lib_init_cpp_2
    init_aeabi.o(.text) refers (Special) to libinit2.o(.ARM.Collect$$libinit$$00000031) for __rt_lib_init_cpp_2
    init_aeabi.o(.ARM.exidx) refers (Special) to libinit2.o(.ARM.Collect$$libinit$$00000031) for __rt_lib_init_cpp_2
    init_aeabi.o(.ARM.exidx) refers to init_aeabi.o(.text) for .text
    aeabi_vec_ctor_nocookie_nodtor.o(.ARM.exidx) refers to aeabi_vec_ctor_nocookie_nodtor.o(i.__aeabi_vec_ctor_nocookie_nodtor) for i.__aeabi_vec_ctor_nocookie_nodtor
    aeabi_vec_ctor_nocookie_nodtor.o(.ARM.exidx) refers to unwind_pr0.o(.text) for __aeabi_unwind_cpp_pr0
    basic.o(x$fpl$basic) refers (Special) to usenofp.o(x$fpl$usenofp) for __I$use$fp
    d2f.o(x$fpl$d2f) refers (Special) to usenofp.o(x$fpl$usenofp) for __I$use$fp
    d2f.o(x$fpl$d2f) refers to fretinf.o(x$fpl$fretinf) for __fpl_fretinf
    d2f.o(x$fpl$d2f) refers to dnaninf.o(x$fpl$dnaninf) for __fpl_dnaninf
    daddsub_clz.o(x$fpl$dadd) refers (Special) to usenofp.o(x$fpl$usenofp) for __I$use$fp
    daddsub_clz.o(x$fpl$dadd) refers to daddsub_clz.o(x$fpl$dsub) for _dsub1
    daddsub_clz.o(x$fpl$dadd) refers to dretinf.o(x$fpl$dretinf) for __fpl_dretinf
    daddsub_clz.o(x$fpl$dadd) refers to dnaninf.o(x$fpl$dnaninf) for __fpl_dnaninf
    daddsub_clz.o(x$fpl$drsb) refers (Special) to usenofp.o(x$fpl$usenofp) for __I$use$fp
    daddsub_clz.o(x$fpl$drsb) refers to daddsub_clz.o(x$fpl$dadd) for _dadd1
    daddsub_clz.o(x$fpl$drsb) refers to daddsub_clz.o(x$fpl$dsub) for _dsub1
    daddsub_clz.o(x$fpl$dsub) refers (Special) to usenofp.o(x$fpl$usenofp) for __I$use$fp
    daddsub_clz.o(x$fpl$dsub) refers to daddsub_clz.o(x$fpl$dadd) for _dadd1
    daddsub_clz.o(x$fpl$dsub) refers to dnaninf.o(x$fpl$dnaninf) for __fpl_dnaninf
    ddiv.o(x$fpl$drdiv) refers (Special) to usenofp.o(x$fpl$usenofp) for __I$use$fp
    ddiv.o(x$fpl$drdiv) refers to ddiv.o(x$fpl$ddiv) for ddiv_entry
    ddiv.o(x$fpl$ddiv) refers (Special) to usenofp.o(x$fpl$usenofp) for __I$use$fp
    ddiv.o(x$fpl$ddiv) refers to dretinf.o(x$fpl$dretinf) for __fpl_dretinf
    ddiv.o(x$fpl$ddiv) refers to dnaninf.o(x$fpl$dnaninf) for __fpl_dnaninf
    deqf.o(x$fpl$deqf) refers (Special) to usenofp.o(x$fpl$usenofp) for __I$use$fp
    deqf.o(x$fpl$deqf) refers to dnaninf.o(x$fpl$dnaninf) for __fpl_dnaninf
    deqf.o(x$fpl$deqf) refers to dcmpi.o(x$fpl$dcmpinf) for __fpl_dcmp_Inf
    dfix.o(x$fpl$dfix) refers (Special) to usenofp.o(x$fpl$usenofp) for __I$use$fp
    dfix.o(x$fpl$dfix) refers to dnaninf.o(x$fpl$dnaninf) for __fpl_dnaninf
    dfix.o(x$fpl$dfixr) refers (Special) to usenofp.o(x$fpl$usenofp) for __I$use$fp
    dfix.o(x$fpl$dfixr) refers to dnaninf.o(x$fpl$dnaninf) for __fpl_dnaninf
    dfixu.o(x$fpl$dfixu) refers (Special) to usenofp.o(x$fpl$usenofp) for __I$use$fp
    dfixu.o(x$fpl$dfixu) refers to dnaninf.o(x$fpl$dnaninf) for __fpl_dnaninf
    dfixu.o(x$fpl$dfixur) refers (Special) to usenofp.o(x$fpl$usenofp) for __I$use$fp
    dfixu.o(x$fpl$dfixur) refers to dnaninf.o(x$fpl$dnaninf) for __fpl_dnaninf
    dflt_clz.o(x$fpl$dfltu) refers (Special) to usenofp.o(x$fpl$usenofp) for __I$use$fp
    dflt_clz.o(x$fpl$dflt) refers (Special) to usenofp.o(x$fpl$usenofp) for __I$use$fp
    dflt_clz.o(x$fpl$dfltn) refers (Special) to usenofp.o(x$fpl$usenofp) for __I$use$fp
    dfltll_clz.o(x$fpl$dfltll) refers (Special) to usenofp.o(x$fpl$usenofp) for __I$use$fp
    dfltll_clz.o(x$fpl$dfltull) refers (Special) to usenofp.o(x$fpl$usenofp) for __I$use$fp
    dleqf.o(x$fpl$dleqf) refers (Special) to usenofp.o(x$fpl$usenofp) for __I$use$fp
    dleqf.o(x$fpl$dleqf) refers to dnaninf.o(x$fpl$dnaninf) for __fpl_dnaninf
    dleqf.o(x$fpl$dleqf) refers to dcmpi.o(x$fpl$dcmpinf) for __fpl_dcmp_Inf
    dmul.o(x$fpl$dmul) refers (Special) to usenofp.o(x$fpl$usenofp) for __I$use$fp
    dmul.o(x$fpl$dmul) refers to dretinf.o(x$fpl$dretinf) for __fpl_dretinf
    dmul.o(x$fpl$dmul) refers to dnaninf.o(x$fpl$dnaninf) for __fpl_dnaninf
    drleqf.o(x$fpl$drleqf) refers (Special) to usenofp.o(x$fpl$usenofp) for __I$use$fp
    drleqf.o(x$fpl$drleqf) refers to dleqf.o(x$fpl$dleqf) for __fpl_dcmple_InfNaN
    f2d.o(x$fpl$f2d) refers (Special) to usenofp.o(x$fpl$usenofp) for __I$use$fp
    f2d.o(x$fpl$f2d) refers to fnaninf.o(x$fpl$fnaninf) for __fpl_fnaninf
    f2d.o(x$fpl$f2d) refers to dretinf.o(x$fpl$dretinf) for __fpl_dretinf
    asin.o(i.__hardfp_asin) refers (Special) to usenofp.o(x$fpl$usenofp) for __I$use$fp
    asin.o(i.__hardfp_asin) refers to dunder.o(i.__mathlib_dbl_infnan) for __mathlib_dbl_infnan
    asin.o(i.__hardfp_asin) refers to dmul.o(x$fpl$dmul) for __aeabi_dmul
    asin.o(i.__hardfp_asin) refers to daddsub_clz.o(x$fpl$dadd) for __aeabi_dadd
    asin.o(i.__hardfp_asin) refers to _rserrno.o(.text) for __set_errno
    asin.o(i.__hardfp_asin) refers to dunder.o(i.__mathlib_dbl_invalid) for __mathlib_dbl_invalid
    asin.o(i.__hardfp_asin) refers to fpclassify.o(i.__ARM_fpclassify) for __ARM_fpclassify
    asin.o(i.__hardfp_asin) refers to dunder.o(i.__mathlib_dbl_underflow) for __mathlib_dbl_underflow
    asin.o(i.__hardfp_asin) refers to poly.o(i.__kernel_poly) for __kernel_poly
    asin.o(i.__hardfp_asin) refers to ddiv.o(x$fpl$ddiv) for __aeabi_ddiv
    asin.o(i.__hardfp_asin) refers to fabs.o(i.fabs) for fabs
    asin.o(i.__hardfp_asin) refers to daddsub_clz.o(x$fpl$drsb) for __aeabi_drsub
    asin.o(i.__hardfp_asin) refers to sqrt.o(i.sqrt) for sqrt
    asin.o(i.__hardfp_asin) refers to daddsub_clz.o(x$fpl$dsub) for __aeabi_dsub
    asin.o(i.__hardfp_asin) refers to basic.o(x$fpl$basic) for __aeabi_dneg
    asin.o(i.__hardfp_asin) refers to asin.o(.constdata) for .constdata
    asin.o(i.__softfp_asin) refers (Special) to usenofp.o(x$fpl$usenofp) for __I$use$fp
    asin.o(i.__softfp_asin) refers to asin.o(i.__hardfp_asin) for __hardfp_asin
    asin.o(i.asin) refers (Special) to usenofp.o(x$fpl$usenofp) for __I$use$fp
    asin.o(i.asin) refers to asin.o(i.__hardfp_asin) for __hardfp_asin
    asin.o(.constdata) refers (Special) to usenofp.o(x$fpl$usenofp) for __I$use$fp
    asin_x.o(i.____hardfp_asin$lsc) refers (Special) to usenofp.o(x$fpl$usenofp) for __I$use$fp
    asin_x.o(i.____hardfp_asin$lsc) refers to dunder.o(i.__mathlib_dbl_infnan) for __mathlib_dbl_infnan
    asin_x.o(i.____hardfp_asin$lsc) refers to dmul.o(x$fpl$dmul) for __aeabi_dmul
    asin_x.o(i.____hardfp_asin$lsc) refers to daddsub_clz.o(x$fpl$dadd) for __aeabi_dadd
    asin_x.o(i.____hardfp_asin$lsc) refers to _rserrno.o(.text) for __set_errno
    asin_x.o(i.____hardfp_asin$lsc) refers to poly.o(i.__kernel_poly) for __kernel_poly
    asin_x.o(i.____hardfp_asin$lsc) refers to ddiv.o(x$fpl$ddiv) for __aeabi_ddiv
    asin_x.o(i.____hardfp_asin$lsc) refers to fabs.o(i.fabs) for fabs
    asin_x.o(i.____hardfp_asin$lsc) refers to daddsub_clz.o(x$fpl$drsb) for __aeabi_drsub
    asin_x.o(i.____hardfp_asin$lsc) refers to sqrt.o(i.sqrt) for sqrt
    asin_x.o(i.____hardfp_asin$lsc) refers to daddsub_clz.o(x$fpl$dsub) for __aeabi_dsub
    asin_x.o(i.____hardfp_asin$lsc) refers to basic.o(x$fpl$basic) for __aeabi_dneg
    asin_x.o(i.____hardfp_asin$lsc) refers to asin_x.o(.constdata) for .constdata
    asin_x.o(i.____softfp_asin$lsc) refers (Special) to usenofp.o(x$fpl$usenofp) for __I$use$fp
    asin_x.o(i.____softfp_asin$lsc) refers to asin_x.o(i.____hardfp_asin$lsc) for ____hardfp_asin$lsc
    asin_x.o(i.__asin$lsc) refers (Special) to usenofp.o(x$fpl$usenofp) for __I$use$fp
    asin_x.o(i.__asin$lsc) refers to asin_x.o(i.____hardfp_asin$lsc) for ____hardfp_asin$lsc
    asin_x.o(.constdata) refers (Special) to usenofp.o(x$fpl$usenofp) for __I$use$fp
    atan2.o(i.__hardfp_atan2) refers (Special) to usenofp.o(x$fpl$usenofp) for __I$use$fp
    atan2.o(i.__hardfp_atan2) refers to dunder.o(i.__mathlib_dbl_infnan2) for __mathlib_dbl_infnan2
    atan2.o(i.__hardfp_atan2) refers to atan.o(i.atan) for atan
    atan2.o(i.__hardfp_atan2) refers to basic.o(x$fpl$basic) for __aeabi_dneg
    atan2.o(i.__hardfp_atan2) refers to ddiv.o(x$fpl$ddiv) for __aeabi_ddiv
    atan2.o(i.__hardfp_atan2) refers to fabs.o(i.fabs) for fabs
    atan2.o(i.__hardfp_atan2) refers to daddsub_clz.o(x$fpl$dsub) for __aeabi_dsub
    atan2.o(i.__hardfp_atan2) refers to deqf.o(x$fpl$deqf) for __aeabi_cdcmpeq
    atan2.o(i.__hardfp_atan2) refers to _rserrno.o(.text) for __set_errno
    atan2.o(i.__hardfp_atan2) refers to daddsub_clz.o(x$fpl$drsb) for __aeabi_drsub
    atan2.o(i.__hardfp_atan2) refers to qnan.o(.constdata) for __mathlib_zero
    atan2.o(i.__softfp_atan2) refers (Special) to usenofp.o(x$fpl$usenofp) for __I$use$fp
    atan2.o(i.__softfp_atan2) refers to atan2.o(i.__hardfp_atan2) for __hardfp_atan2
    atan2.o(i.atan2) refers (Special) to usenofp.o(x$fpl$usenofp) for __I$use$fp
    atan2.o(i.atan2) refers to atan2.o(i.__hardfp_atan2) for __hardfp_atan2
    atan2_x.o(i.____hardfp_atan2$lsc) refers (Special) to usenofp.o(x$fpl$usenofp) for __I$use$fp
    atan2_x.o(i.____hardfp_atan2$lsc) refers to dunder.o(i.__mathlib_dbl_infnan2) for __mathlib_dbl_infnan2
    atan2_x.o(i.____hardfp_atan2$lsc) refers to atan.o(i.atan) for atan
    atan2_x.o(i.____hardfp_atan2$lsc) refers to _rserrno.o(.text) for __set_errno
    atan2_x.o(i.____hardfp_atan2$lsc) refers to basic.o(x$fpl$basic) for __aeabi_dneg
    atan2_x.o(i.____hardfp_atan2$lsc) refers to ddiv.o(x$fpl$ddiv) for __aeabi_ddiv
    atan2_x.o(i.____hardfp_atan2$lsc) refers to fabs.o(i.fabs) for fabs
    atan2_x.o(i.____hardfp_atan2$lsc) refers to daddsub_clz.o(x$fpl$dsub) for __aeabi_dsub
    atan2_x.o(i.____hardfp_atan2$lsc) refers to deqf.o(x$fpl$deqf) for __aeabi_cdcmpeq
    atan2_x.o(i.____hardfp_atan2$lsc) refers to daddsub_clz.o(x$fpl$drsb) for __aeabi_drsub
    atan2_x.o(i.____hardfp_atan2$lsc) refers to qnan.o(.constdata) for __mathlib_zero
    atan2_x.o(i.____softfp_atan2$lsc) refers (Special) to usenofp.o(x$fpl$usenofp) for __I$use$fp
    atan2_x.o(i.____softfp_atan2$lsc) refers to atan2_x.o(i.____hardfp_atan2$lsc) for ____hardfp_atan2$lsc
    atan2_x.o(i.__atan2$lsc) refers (Special) to usenofp.o(x$fpl$usenofp) for __I$use$fp
    atan2_x.o(i.__atan2$lsc) refers to atan2_x.o(i.____hardfp_atan2$lsc) for ____hardfp_atan2$lsc
    atan2f.o(i.__hardfp_atan2f) refers (Special) to usenofp.o(x$fpl$usenofp) for __I$use$fp
    atan2f.o(i.__hardfp_atan2f) refers to fpclassifyf.o(i.__ARM_fpclassifyf) for __ARM_fpclassifyf
    atan2f.o(i.__hardfp_atan2f) refers to funder.o(i.__mathlib_flt_underflow) for __mathlib_flt_underflow
    atan2f.o(i.__hardfp_atan2f) refers to _rserrno.o(.text) for __set_errno
    atan2f.o(i.__hardfp_atan2f) refers to funder.o(i.__mathlib_flt_infnan2) for __mathlib_flt_infnan2
    atan2f.o(i.__softfp_atan2f) refers (Special) to usenofp.o(x$fpl$usenofp) for __I$use$fp
    atan2f.o(i.__softfp_atan2f) refers to atan2f.o(i.__hardfp_atan2f) for __hardfp_atan2f
    atan2f.o(i.atan2f) refers (Special) to usenofp.o(x$fpl$usenofp) for __I$use$fp
    atan2f.o(i.atan2f) refers to atan2f.o(i.__hardfp_atan2f) for __hardfp_atan2f
    atan2f_x.o(i.____hardfp_atan2f$lsc) refers (Special) to usenofp.o(x$fpl$usenofp) for __I$use$fp
    atan2f_x.o(i.____hardfp_atan2f$lsc) refers to fpclassifyf.o(i.__ARM_fpclassifyf) for __ARM_fpclassifyf
    atan2f_x.o(i.____hardfp_atan2f$lsc) refers to _rserrno.o(.text) for __set_errno
    atan2f_x.o(i.____hardfp_atan2f$lsc) refers to funder.o(i.__mathlib_flt_infnan2) for __mathlib_flt_infnan2
    atan2f_x.o(i.____softfp_atan2f$lsc) refers (Special) to usenofp.o(x$fpl$usenofp) for __I$use$fp
    atan2f_x.o(i.____softfp_atan2f$lsc) refers to atan2f_x.o(i.____hardfp_atan2f$lsc) for ____hardfp_atan2f$lsc
    atan2f_x.o(i.__atan2f$lsc) refers (Special) to usenofp.o(x$fpl$usenofp) for __I$use$fp
    atan2f_x.o(i.__atan2f$lsc) refers to atan2f_x.o(i.____hardfp_atan2f$lsc) for ____hardfp_atan2f$lsc
    cos.o(i.__hardfp_cos) refers (Special) to usenofp.o(x$fpl$usenofp) for __I$use$fp
    cos.o(i.__hardfp_cos) refers to _rserrno.o(.text) for __set_errno
    cos.o(i.__hardfp_cos) refers to dunder.o(i.__mathlib_dbl_invalid) for __mathlib_dbl_invalid
    cos.o(i.__hardfp_cos) refers to dunder.o(i.__mathlib_dbl_infnan) for __mathlib_dbl_infnan
    cos.o(i.__hardfp_cos) refers to rred.o(i.__ieee754_rem_pio2) for __ieee754_rem_pio2
    cos.o(i.__hardfp_cos) refers to sin_i.o(i.__kernel_sin) for __kernel_sin
    cos.o(i.__hardfp_cos) refers to cos_i.o(i.__kernel_cos) for __kernel_cos
    cos.o(i.__hardfp_cos) refers to basic.o(x$fpl$basic) for __aeabi_dneg
    cos.o(i.__softfp_cos) refers (Special) to usenofp.o(x$fpl$usenofp) for __I$use$fp
    cos.o(i.__softfp_cos) refers to cos.o(i.__hardfp_cos) for __hardfp_cos
    cos.o(i.cos) refers (Special) to usenofp.o(x$fpl$usenofp) for __I$use$fp
    cos.o(i.cos) refers to cos.o(i.__hardfp_cos) for __hardfp_cos
    cos_x.o(i.____hardfp_cos$lsc) refers (Special) to usenofp.o(x$fpl$usenofp) for __I$use$fp
    cos_x.o(i.____hardfp_cos$lsc) refers to _rserrno.o(.text) for __set_errno
    cos_x.o(i.____hardfp_cos$lsc) refers to dunder.o(i.__mathlib_dbl_infnan) for __mathlib_dbl_infnan
    cos_x.o(i.____hardfp_cos$lsc) refers to rred.o(i.__ieee754_rem_pio2) for __ieee754_rem_pio2
    cos_x.o(i.____hardfp_cos$lsc) refers to sin_i.o(i.__kernel_sin) for __kernel_sin
    cos_x.o(i.____hardfp_cos$lsc) refers to cos_i.o(i.__kernel_cos) for __kernel_cos
    cos_x.o(i.____hardfp_cos$lsc) refers to basic.o(x$fpl$basic) for __aeabi_dneg
    cos_x.o(i.____softfp_cos$lsc) refers (Special) to usenofp.o(x$fpl$usenofp) for __I$use$fp
    cos_x.o(i.____softfp_cos$lsc) refers to cos_x.o(i.____hardfp_cos$lsc) for ____hardfp_cos$lsc
    cos_x.o(i.__cos$lsc) refers (Special) to usenofp.o(x$fpl$usenofp) for __I$use$fp
    cos_x.o(i.__cos$lsc) refers to cos_x.o(i.____hardfp_cos$lsc) for ____hardfp_cos$lsc
    cosf.o(i.__hardfp_cosf) refers (Special) to usenofp.o(x$fpl$usenofp) for __I$use$fp
    cosf.o(i.__hardfp_cosf) refers to rredf.o(i.__mathlib_rredf2) for __mathlib_rredf2
    cosf.o(i.__hardfp_cosf) refers to _rserrno.o(.text) for __set_errno
    cosf.o(i.__hardfp_cosf) refers to funder.o(i.__mathlib_flt_invalid) for __mathlib_flt_invalid
    cosf.o(i.__hardfp_cosf) refers to funder.o(i.__mathlib_flt_infnan) for __mathlib_flt_infnan
    cosf.o(i.__softfp_cosf) refers (Special) to usenofp.o(x$fpl$usenofp) for __I$use$fp
    cosf.o(i.__softfp_cosf) refers to cosf.o(i.__hardfp_cosf) for __hardfp_cosf
    cosf.o(i.cosf) refers (Special) to usenofp.o(x$fpl$usenofp) for __I$use$fp
    cosf.o(i.cosf) refers to cosf.o(i.__hardfp_cosf) for __hardfp_cosf
    cosf_x.o(i.____hardfp_cosf$lsc) refers (Special) to usenofp.o(x$fpl$usenofp) for __I$use$fp
    cosf_x.o(i.____hardfp_cosf$lsc) refers to rredf.o(i.__mathlib_rredf2) for __mathlib_rredf2
    cosf_x.o(i.____hardfp_cosf$lsc) refers to _rserrno.o(.text) for __set_errno
    cosf_x.o(i.____hardfp_cosf$lsc) refers to funder.o(i.__mathlib_flt_infnan) for __mathlib_flt_infnan
    cosf_x.o(i.____softfp_cosf$lsc) refers (Special) to usenofp.o(x$fpl$usenofp) for __I$use$fp
    cosf_x.o(i.____softfp_cosf$lsc) refers to cosf_x.o(i.____hardfp_cosf$lsc) for ____hardfp_cosf$lsc
    cosf_x.o(i.__cosf$lsc) refers (Special) to usenofp.o(x$fpl$usenofp) for __I$use$fp
    cosf_x.o(i.__cosf$lsc) refers to cosf_x.o(i.____hardfp_cosf$lsc) for ____hardfp_cosf$lsc
    fabs.o(i.__hardfp_fabs) refers (Special) to usenofp.o(x$fpl$usenofp) for __I$use$fp
    fabs.o(i.__softfp_fabs) refers (Special) to usenofp.o(x$fpl$usenofp) for __I$use$fp
    fabs.o(i.fabs) refers (Special) to usenofp.o(x$fpl$usenofp) for __I$use$fp
    pow.o(i.__hardfp_pow) refers (Special) to usenofp.o(x$fpl$usenofp) for __I$use$fp
    pow.o(i.__hardfp_pow) refers to dunder.o(i.__mathlib_dbl_infnan2) for __mathlib_dbl_infnan2
    pow.o(i.__hardfp_pow) refers to _rserrno.o(.text) for __set_errno
    pow.o(i.__hardfp_pow) refers to dunder.o(i.__mathlib_dbl_divzero) for __mathlib_dbl_divzero
    pow.o(i.__hardfp_pow) refers to basic.o(x$fpl$basic) for __aeabi_dneg
    pow.o(i.__hardfp_pow) refers to dunder.o(i.__mathlib_dbl_overflow) for __mathlib_dbl_overflow
    pow.o(i.__hardfp_pow) refers to ddiv.o(x$fpl$ddiv) for __aeabi_ddiv
    pow.o(i.__hardfp_pow) refers to sqrt.o(i.sqrt) for sqrt
    pow.o(i.__hardfp_pow) refers to fabs.o(i.fabs) for fabs
    pow.o(i.__hardfp_pow) refers to dflt_clz.o(x$fpl$dflt) for __aeabi_i2d
    pow.o(i.__hardfp_pow) refers to dunder.o(i.__mathlib_dbl_invalid) for __mathlib_dbl_invalid
    pow.o(i.__hardfp_pow) refers to dmul.o(x$fpl$dmul) for __aeabi_dmul
    pow.o(i.__hardfp_pow) refers to dunder.o(i.__mathlib_dbl_underflow) for __mathlib_dbl_underflow
    pow.o(i.__hardfp_pow) refers to daddsub_clz.o(x$fpl$dsub) for __aeabi_dsub
    pow.o(i.__hardfp_pow) refers to daddsub_clz.o(x$fpl$drsb) for __aeabi_drsub
    pow.o(i.__hardfp_pow) refers to qnan.o(.constdata) for __mathlib_zero
    pow.o(i.__hardfp_pow) refers to daddsub_clz.o(x$fpl$dadd) for __aeabi_dadd
    pow.o(i.__hardfp_pow) refers to poly.o(i.__kernel_poly) for __kernel_poly
    pow.o(i.__hardfp_pow) refers to pow.o(.constdata) for .constdata
    pow.o(i.__hardfp_pow) refers to drleqf.o(x$fpl$drleqf) for __aeabi_cdrcmple
    pow.o(i.__hardfp_pow) refers to scalbn.o(x$fpl$scalbn) for __ARM_scalbn
    pow.o(i.__hardfp_pow) refers to fpclassify.o(i.__ARM_fpclassify) for __ARM_fpclassify
    pow.o(i.__softfp_pow) refers (Special) to usenofp.o(x$fpl$usenofp) for __I$use$fp
    pow.o(i.__softfp_pow) refers to pow.o(i.__hardfp_pow) for __hardfp_pow
    pow.o(i.pow) refers (Special) to usenofp.o(x$fpl$usenofp) for __I$use$fp
    pow.o(i.pow) refers to pow.o(i.__hardfp_pow) for __hardfp_pow
    pow.o(.constdata) refers (Special) to usenofp.o(x$fpl$usenofp) for __I$use$fp
    pow_x.o(i.____hardfp_pow$lsc) refers (Special) to usenofp.o(x$fpl$usenofp) for __I$use$fp
    pow_x.o(i.____hardfp_pow$lsc) refers to dunder.o(i.__mathlib_dbl_infnan2) for __mathlib_dbl_infnan2
    pow_x.o(i.____hardfp_pow$lsc) refers to _rserrno.o(.text) for __set_errno
    pow_x.o(i.____hardfp_pow$lsc) refers to basic.o(x$fpl$basic) for __aeabi_dneg
    pow_x.o(i.____hardfp_pow$lsc) refers to ddiv.o(x$fpl$ddiv) for __aeabi_ddiv
    pow_x.o(i.____hardfp_pow$lsc) refers to sqrt.o(i.sqrt) for sqrt
    pow_x.o(i.____hardfp_pow$lsc) refers to fabs.o(i.fabs) for fabs
    pow_x.o(i.____hardfp_pow$lsc) refers to dflt_clz.o(x$fpl$dflt) for __aeabi_i2d
    pow_x.o(i.____hardfp_pow$lsc) refers to dmul.o(x$fpl$dmul) for __aeabi_dmul
    pow_x.o(i.____hardfp_pow$lsc) refers to daddsub_clz.o(x$fpl$dsub) for __aeabi_dsub
    pow_x.o(i.____hardfp_pow$lsc) refers to daddsub_clz.o(x$fpl$drsb) for __aeabi_drsub
    pow_x.o(i.____hardfp_pow$lsc) refers to qnan.o(.constdata) for __mathlib_zero
    pow_x.o(i.____hardfp_pow$lsc) refers to daddsub_clz.o(x$fpl$dadd) for __aeabi_dadd
    pow_x.o(i.____hardfp_pow$lsc) refers to poly.o(i.__kernel_poly) for __kernel_poly
    pow_x.o(i.____hardfp_pow$lsc) refers to pow_x.o(.constdata) for .constdata
    pow_x.o(i.____hardfp_pow$lsc) refers to drleqf.o(x$fpl$drleqf) for __aeabi_cdrcmple
    pow_x.o(i.____hardfp_pow$lsc) refers to scalbn.o(x$fpl$scalbn) for __ARM_scalbn
    pow_x.o(i.____softfp_pow$lsc) refers (Special) to usenofp.o(x$fpl$usenofp) for __I$use$fp
    pow_x.o(i.____softfp_pow$lsc) refers to pow_x.o(i.____hardfp_pow$lsc) for ____hardfp_pow$lsc
    pow_x.o(i.__pow$lsc) refers (Special) to usenofp.o(x$fpl$usenofp) for __I$use$fp
    pow_x.o(i.__pow$lsc) refers to pow_x.o(i.____hardfp_pow$lsc) for ____hardfp_pow$lsc
    pow_x.o(.constdata) refers (Special) to usenofp.o(x$fpl$usenofp) for __I$use$fp
    powf.o(i.__hardfp_powf) refers (Special) to usenofp.o(x$fpl$usenofp) for __I$use$fp
    powf.o(i.__hardfp_powf) refers to _rserrno.o(.text) for __set_errno
    powf.o(i.__hardfp_powf) refers to funder.o(i.__mathlib_flt_overflow) for __mathlib_flt_overflow
    powf.o(i.__hardfp_powf) refers to fpclassifyf.o(i.__ARM_fpclassifyf) for __ARM_fpclassifyf
    powf.o(i.__hardfp_powf) refers to funder.o(i.__mathlib_flt_underflow) for __mathlib_flt_underflow
    powf.o(i.__hardfp_powf) refers to funder.o(i.__mathlib_flt_invalid) for __mathlib_flt_invalid
    powf.o(i.__hardfp_powf) refers to powf.o(.constdata) for .constdata
    powf.o(i.__hardfp_powf) refers to funder.o(i.__mathlib_flt_infnan2) for __mathlib_flt_infnan2
    powf.o(i.__hardfp_powf) refers to funder.o(i.__mathlib_flt_divzero) for __mathlib_flt_divzero
    powf.o(i.__softfp_powf) refers (Special) to usenofp.o(x$fpl$usenofp) for __I$use$fp
    powf.o(i.__softfp_powf) refers to powf.o(i.__hardfp_powf) for __hardfp_powf
    powf.o(i.powf) refers (Special) to usenofp.o(x$fpl$usenofp) for __I$use$fp
    powf.o(i.powf) refers to powf.o(i.__hardfp_powf) for __hardfp_powf
    powf.o(.constdata) refers (Special) to usenofp.o(x$fpl$usenofp) for __I$use$fp
    powf_x.o(i.____hardfp_powf$lsc) refers (Special) to usenofp.o(x$fpl$usenofp) for __I$use$fp
    powf_x.o(i.____hardfp_powf$lsc) refers to _rserrno.o(.text) for __set_errno
    powf_x.o(i.____hardfp_powf$lsc) refers to powf_x.o(.constdata) for .constdata
    powf_x.o(i.____hardfp_powf$lsc) refers to funder.o(i.__mathlib_flt_infnan2) for __mathlib_flt_infnan2
    powf_x.o(i.____softfp_powf$lsc) refers (Special) to usenofp.o(x$fpl$usenofp) for __I$use$fp
    powf_x.o(i.____softfp_powf$lsc) refers to powf_x.o(i.____hardfp_powf$lsc) for ____hardfp_powf$lsc
    powf_x.o(i.__powf$lsc) refers (Special) to usenofp.o(x$fpl$usenofp) for __I$use$fp
    powf_x.o(i.__powf$lsc) refers to powf_x.o(i.____hardfp_powf$lsc) for ____hardfp_powf$lsc
    powf_x.o(.constdata) refers (Special) to usenofp.o(x$fpl$usenofp) for __I$use$fp
    sin.o(i.__hardfp_sin) refers (Special) to usenofp.o(x$fpl$usenofp) for __I$use$fp
    sin.o(i.__hardfp_sin) refers to _rserrno.o(.text) for __set_errno
    sin.o(i.__hardfp_sin) refers to dunder.o(i.__mathlib_dbl_invalid) for __mathlib_dbl_invalid
    sin.o(i.__hardfp_sin) refers to dunder.o(i.__mathlib_dbl_infnan) for __mathlib_dbl_infnan
    sin.o(i.__hardfp_sin) refers to rred.o(i.__ieee754_rem_pio2) for __ieee754_rem_pio2
    sin.o(i.__hardfp_sin) refers to cos_i.o(i.__kernel_cos) for __kernel_cos
    sin.o(i.__hardfp_sin) refers to basic.o(x$fpl$basic) for __aeabi_dneg
    sin.o(i.__hardfp_sin) refers to sin_i.o(i.__kernel_sin) for __kernel_sin
    sin.o(i.__softfp_sin) refers (Special) to usenofp.o(x$fpl$usenofp) for __I$use$fp
    sin.o(i.__softfp_sin) refers to sin.o(i.__hardfp_sin) for __hardfp_sin
    sin.o(i.sin) refers (Special) to usenofp.o(x$fpl$usenofp) for __I$use$fp
    sin.o(i.sin) refers to sin.o(i.__hardfp_sin) for __hardfp_sin
    sin_x.o(i.____hardfp_sin$lsc) refers (Special) to usenofp.o(x$fpl$usenofp) for __I$use$fp
    sin_x.o(i.____hardfp_sin$lsc) refers to _rserrno.o(.text) for __set_errno
    sin_x.o(i.____hardfp_sin$lsc) refers to dunder.o(i.__mathlib_dbl_infnan) for __mathlib_dbl_infnan
    sin_x.o(i.____hardfp_sin$lsc) refers to rred.o(i.__ieee754_rem_pio2) for __ieee754_rem_pio2
    sin_x.o(i.____hardfp_sin$lsc) refers to cos_i.o(i.__kernel_cos) for __kernel_cos
    sin_x.o(i.____hardfp_sin$lsc) refers to basic.o(x$fpl$basic) for __aeabi_dneg
    sin_x.o(i.____hardfp_sin$lsc) refers to sin_i.o(i.__kernel_sin) for __kernel_sin
    sin_x.o(i.____softfp_sin$lsc) refers (Special) to usenofp.o(x$fpl$usenofp) for __I$use$fp
    sin_x.o(i.____softfp_sin$lsc) refers to sin_x.o(i.____hardfp_sin$lsc) for ____hardfp_sin$lsc
    sin_x.o(i.__sin$lsc) refers (Special) to usenofp.o(x$fpl$usenofp) for __I$use$fp
    sin_x.o(i.__sin$lsc) refers to sin_x.o(i.____hardfp_sin$lsc) for ____hardfp_sin$lsc
    sinf.o(i.__hardfp_sinf) refers (Special) to usenofp.o(x$fpl$usenofp) for __I$use$fp
    sinf.o(i.__hardfp_sinf) refers to rredf.o(i.__mathlib_rredf2) for __mathlib_rredf2
    sinf.o(i.__hardfp_sinf) refers to fpclassifyf.o(i.__ARM_fpclassifyf) for __ARM_fpclassifyf
    sinf.o(i.__hardfp_sinf) refers to funder.o(i.__mathlib_flt_underflow) for __mathlib_flt_underflow
    sinf.o(i.__hardfp_sinf) refers to _rserrno.o(.text) for __set_errno
    sinf.o(i.__hardfp_sinf) refers to funder.o(i.__mathlib_flt_invalid) for __mathlib_flt_invalid
    sinf.o(i.__hardfp_sinf) refers to funder.o(i.__mathlib_flt_infnan) for __mathlib_flt_infnan
    sinf.o(i.__softfp_sinf) refers (Special) to usenofp.o(x$fpl$usenofp) for __I$use$fp
    sinf.o(i.__softfp_sinf) refers to sinf.o(i.__hardfp_sinf) for __hardfp_sinf
    sinf.o(i.sinf) refers (Special) to usenofp.o(x$fpl$usenofp) for __I$use$fp
    sinf.o(i.sinf) refers to sinf.o(i.__hardfp_sinf) for __hardfp_sinf
    sinf_x.o(i.____hardfp_sinf$lsc) refers (Special) to usenofp.o(x$fpl$usenofp) for __I$use$fp
    sinf_x.o(i.____hardfp_sinf$lsc) refers to rredf.o(i.__mathlib_rredf2) for __mathlib_rredf2
    sinf_x.o(i.____hardfp_sinf$lsc) refers to _rserrno.o(.text) for __set_errno
    sinf_x.o(i.____hardfp_sinf$lsc) refers to funder.o(i.__mathlib_flt_infnan) for __mathlib_flt_infnan
    sinf_x.o(i.____softfp_sinf$lsc) refers (Special) to usenofp.o(x$fpl$usenofp) for __I$use$fp
    sinf_x.o(i.____softfp_sinf$lsc) refers to sinf_x.o(i.____hardfp_sinf$lsc) for ____hardfp_sinf$lsc
    sinf_x.o(i.__sinf$lsc) refers (Special) to usenofp.o(x$fpl$usenofp) for __I$use$fp
    sinf_x.o(i.__sinf$lsc) refers to sinf_x.o(i.____hardfp_sinf$lsc) for ____hardfp_sinf$lsc
    sqrt.o(i.__hardfp_sqrt) refers (Special) to usenofp.o(x$fpl$usenofp) for __I$use$fp
    sqrt.o(i.__hardfp_sqrt) refers to dsqrt_umaal.o(x$fpl$dsqrt) for _dsqrt
    sqrt.o(i.__hardfp_sqrt) refers to _rserrno.o(.text) for __set_errno
    sqrt.o(i.__softfp_sqrt) refers (Special) to usenofp.o(x$fpl$usenofp) for __I$use$fp
    sqrt.o(i.__softfp_sqrt) refers to dsqrt_umaal.o(x$fpl$dsqrt) for _dsqrt
    sqrt.o(i.__softfp_sqrt) refers to _rserrno.o(.text) for __set_errno
    sqrt.o(i.sqrt) refers (Special) to usenofp.o(x$fpl$usenofp) for __I$use$fp
    sqrt.o(i.sqrt) refers to dsqrt_umaal.o(x$fpl$dsqrt) for _dsqrt
    sqrt.o(i.sqrt) refers to _rserrno.o(.text) for __set_errno
    sqrt_x.o(i.____hardfp_sqrt$lsc) refers (Special) to usenofp.o(x$fpl$usenofp) for __I$use$fp
    sqrt_x.o(i.____hardfp_sqrt$lsc) refers to dleqf.o(x$fpl$dleqf) for __aeabi_cdcmple
    sqrt_x.o(i.____hardfp_sqrt$lsc) refers to _rserrno.o(.text) for __set_errno
    sqrt_x.o(i.____hardfp_sqrt$lsc) refers to dsqrt_umaal.o(x$fpl$dsqrt) for _dsqrt
    sqrt_x.o(i.____softfp_sqrt$lsc) refers (Special) to usenofp.o(x$fpl$usenofp) for __I$use$fp
    sqrt_x.o(i.____softfp_sqrt$lsc) refers to dleqf.o(x$fpl$dleqf) for __aeabi_cdcmple
    sqrt_x.o(i.____softfp_sqrt$lsc) refers to _rserrno.o(.text) for __set_errno
    sqrt_x.o(i.____softfp_sqrt$lsc) refers to dsqrt_umaal.o(x$fpl$dsqrt) for _dsqrt
    sqrt_x.o(i.__sqrt$lsc) refers (Special) to usenofp.o(x$fpl$usenofp) for __I$use$fp
    sqrt_x.o(i.__sqrt$lsc) refers to dleqf.o(x$fpl$dleqf) for __aeabi_cdcmple
    sqrt_x.o(i.__sqrt$lsc) refers to _rserrno.o(.text) for __set_errno
    sqrt_x.o(i.__sqrt$lsc) refers to dsqrt_umaal.o(x$fpl$dsqrt) for _dsqrt
    sqrtf.o(i.__hardfp_sqrtf) refers (Special) to usenofp.o(x$fpl$usenofp) for __I$use$fp
    sqrtf.o(i.__hardfp_sqrtf) refers to _rserrno.o(.text) for __set_errno
    sqrtf.o(i.__softfp_sqrtf) refers (Special) to usenofp.o(x$fpl$usenofp) for __I$use$fp
    sqrtf.o(i.__softfp_sqrtf) refers to _rserrno.o(.text) for __set_errno
    sqrtf.o(i.sqrtf) refers (Special) to usenofp.o(x$fpl$usenofp) for __I$use$fp
    sqrtf.o(i.sqrtf) refers to _rserrno.o(.text) for __set_errno
    sqrtf_x.o(i.____hardfp_sqrtf$lsc) refers (Special) to usenofp.o(x$fpl$usenofp) for __I$use$fp
    sqrtf_x.o(i.____hardfp_sqrtf$lsc) refers to _rserrno.o(.text) for __set_errno
    sqrtf_x.o(i.____softfp_sqrtf$lsc) refers (Special) to usenofp.o(x$fpl$usenofp) for __I$use$fp
    sqrtf_x.o(i.____softfp_sqrtf$lsc) refers to _rserrno.o(.text) for __set_errno
    sqrtf_x.o(i.__sqrtf$lsc) refers (Special) to usenofp.o(x$fpl$usenofp) for __I$use$fp
    sqrtf_x.o(i.__sqrtf$lsc) refers to _rserrno.o(.text) for __set_errno
    __rtentry.o(.ARM.Collect$$rtentry$$00000000) refers (Special) to __rtentry2.o(.ARM.Collect$$rtentry$$0000000A) for __rt_entry_li
    __rtentry.o(.ARM.Collect$$rtentry$$00000000) refers (Special) to __rtentry2.o(.ARM.Collect$$rtentry$$0000000D) for __rt_entry_main
    __rtentry.o(.ARM.Collect$$rtentry$$00000000) refers (Special) to __rtentry2.o(.ARM.Collect$$rtentry$$0000000C) for __rt_entry_postli_1
    __rtentry.o(.ARM.Collect$$rtentry$$00000000) refers (Special) to __rtentry2.o(.ARM.Collect$$rtentry$$00000009) for __rt_entry_postsh_1
    __rtentry.o(.ARM.Collect$$rtentry$$00000000) refers (Special) to __rtentry2.o(.ARM.Collect$$rtentry$$00000002) for __rt_entry_presh_1
    __rtentry.o(.ARM.Collect$$rtentry$$00000000) refers (Special) to __rtentry4.o(.ARM.Collect$$rtentry$$00000004) for __rt_entry_sh
    _rserrno.o(.text) refers to rt_errno_addr_intlibspace.o(.text) for __aeabi_errno_addr
    libinit2.o(.ARM.Collect$$libinit$$00000001) refers to fpinit.o(x$fpl$fpinit) for _fp_init
    libinit2.o(.ARM.Collect$$libinit$$00000005) refers (Weak) to init_alloc.o(.text) for _init_alloc
    libinit2.o(.ARM.Collect$$libinit$$00000010) refers to libinit2.o(.ARM.Collect$$libinit$$0000000F) for .ARM.Collect$$libinit$$0000000F
    libinit2.o(.ARM.Collect$$libinit$$00000012) refers to libinit2.o(.ARM.Collect$$libinit$$0000000F) for .ARM.Collect$$libinit$$0000000F
    libinit2.o(.ARM.Collect$$libinit$$00000014) refers to libinit2.o(.ARM.Collect$$libinit$$0000000F) for .ARM.Collect$$libinit$$0000000F
    libinit2.o(.ARM.Collect$$libinit$$00000016) refers to libinit2.o(.ARM.Collect$$libinit$$0000000F) for .ARM.Collect$$libinit$$0000000F
    libinit2.o(.ARM.Collect$$libinit$$00000018) refers to libinit2.o(.ARM.Collect$$libinit$$0000000F) for .ARM.Collect$$libinit$$0000000F
    libinit2.o(.ARM.Collect$$libinit$$00000026) refers to argv_veneer.o(.emb_text) for __ARM_argv_veneer
    libinit2.o(.ARM.Collect$$libinit$$00000027) refers to argv_veneer.o(.emb_text) for __ARM_argv_veneer
    libinit2.o(.ARM.Collect$$libinit$$00000031) refers (Weak) to init_aeabi.o(.text) for __cpp_initialize__aeabi_
    unwind_pr0.o(.text) refers to unwind_prcommon.o(.text) for __ARM_unwind_cpp_prcommon
    unwind_pr0.o(.ARM.exidx) refers to unwind_pr0.o(.text) for .text
    dcmpi.o(x$fpl$dcmpinf) refers (Special) to usenofp.o(x$fpl$usenofp) for __I$use$fp
    dnaninf.o(x$fpl$dnaninf) refers (Special) to usenofp.o(x$fpl$usenofp) for __I$use$fp
    dretinf.o(x$fpl$dretinf) refers (Special) to usenofp.o(x$fpl$usenofp) for __I$use$fp
    dsqrt_umaal.o(x$fpl$dsqrt) refers (Special) to usenofp.o(x$fpl$usenofp) for __I$use$fp
    dsqrt_umaal.o(x$fpl$dsqrt) refers to dnaninf.o(x$fpl$dnaninf) for __fpl_dnaninf
    fnaninf.o(x$fpl$fnaninf) refers (Special) to usenofp.o(x$fpl$usenofp) for __I$use$fp
    fretinf.o(x$fpl$fretinf) refers (Special) to usenofp.o(x$fpl$usenofp) for __I$use$fp
    istatus.o(x$fpl$ieeestatus) refers (Special) to usenofp.o(x$fpl$usenofp) for __I$use$fp
    scalbn.o(x$fpl$scalbn) refers (Special) to usenofp.o(x$fpl$usenofp) for __I$use$fp
    scalbn.o(x$fpl$scalbn) refers to dcheck1.o(x$fpl$dcheck1) for __fpl_dcheck_NaN1
    atan.o(i.__hardfp_atan) refers (Special) to usenofp.o(x$fpl$usenofp) for __I$use$fp
    atan.o(i.__hardfp_atan) refers to dunder.o(i.__mathlib_dbl_infnan) for __mathlib_dbl_infnan
    atan.o(i.__hardfp_atan) refers to fpclassify.o(i.__ARM_fpclassify) for __ARM_fpclassify
    atan.o(i.__hardfp_atan) refers to dunder.o(i.__mathlib_dbl_underflow) for __mathlib_dbl_underflow
    atan.o(i.__hardfp_atan) refers to fabs.o(i.fabs) for fabs
    atan.o(i.__hardfp_atan) refers to daddsub_clz.o(x$fpl$dadd) for __aeabi_dadd
    atan.o(i.__hardfp_atan) refers to dmul.o(x$fpl$dmul) for __aeabi_dmul
    atan.o(i.__hardfp_atan) refers to daddsub_clz.o(x$fpl$dsub) for __aeabi_dsub
    atan.o(i.__hardfp_atan) refers to ddiv.o(x$fpl$ddiv) for __aeabi_ddiv
    atan.o(i.__hardfp_atan) refers to poly.o(i.__kernel_poly) for __kernel_poly
    atan.o(i.__hardfp_atan) refers to daddsub_clz.o(x$fpl$drsb) for __aeabi_drsub
    atan.o(i.__hardfp_atan) refers to basic.o(x$fpl$basic) for __aeabi_dneg
    atan.o(i.__hardfp_atan) refers to atan.o(.constdata) for .constdata
    atan.o(i.__softfp_atan) refers (Special) to usenofp.o(x$fpl$usenofp) for __I$use$fp
    atan.o(i.__softfp_atan) refers to atan.o(i.__hardfp_atan) for __hardfp_atan
    atan.o(i.atan) refers (Special) to usenofp.o(x$fpl$usenofp) for __I$use$fp
    atan.o(i.atan) refers to atan.o(i.__hardfp_atan) for __hardfp_atan
    atan.o(.constdata) refers (Special) to usenofp.o(x$fpl$usenofp) for __I$use$fp
    atan_x.o(i.____hardfp_atan$lsc) refers (Special) to usenofp.o(x$fpl$usenofp) for __I$use$fp
    atan_x.o(i.____hardfp_atan$lsc) refers to dunder.o(i.__mathlib_dbl_infnan) for __mathlib_dbl_infnan
    atan_x.o(i.____hardfp_atan$lsc) refers to fabs.o(i.fabs) for fabs
    atan_x.o(i.____hardfp_atan$lsc) refers to daddsub_clz.o(x$fpl$dadd) for __aeabi_dadd
    atan_x.o(i.____hardfp_atan$lsc) refers to dmul.o(x$fpl$dmul) for __aeabi_dmul
    atan_x.o(i.____hardfp_atan$lsc) refers to daddsub_clz.o(x$fpl$dsub) for __aeabi_dsub
    atan_x.o(i.____hardfp_atan$lsc) refers to ddiv.o(x$fpl$ddiv) for __aeabi_ddiv
    atan_x.o(i.____hardfp_atan$lsc) refers to poly.o(i.__kernel_poly) for __kernel_poly
    atan_x.o(i.____hardfp_atan$lsc) refers to daddsub_clz.o(x$fpl$drsb) for __aeabi_drsub
    atan_x.o(i.____hardfp_atan$lsc) refers to basic.o(x$fpl$basic) for __aeabi_dneg
    atan_x.o(i.____hardfp_atan$lsc) refers to atan_x.o(.constdata) for .constdata
    atan_x.o(i.____softfp_atan$lsc) refers (Special) to usenofp.o(x$fpl$usenofp) for __I$use$fp
    atan_x.o(i.____softfp_atan$lsc) refers to atan_x.o(i.____hardfp_atan$lsc) for ____hardfp_atan$lsc
    atan_x.o(i.__atan$lsc) refers (Special) to usenofp.o(x$fpl$usenofp) for __I$use$fp
    atan_x.o(i.__atan$lsc) refers to atan_x.o(i.____hardfp_atan$lsc) for ____hardfp_atan$lsc
    atan_x.o(.constdata) refers (Special) to usenofp.o(x$fpl$usenofp) for __I$use$fp
    cos_i.o(i.__kernel_cos) refers (Special) to usenofp.o(x$fpl$usenofp) for __I$use$fp
    cos_i.o(i.__kernel_cos) refers to dfix.o(x$fpl$dfix) for __aeabi_d2iz
    cos_i.o(i.__kernel_cos) refers to dmul.o(x$fpl$dmul) for __aeabi_dmul
    cos_i.o(i.__kernel_cos) refers to poly.o(i.__kernel_poly) for __kernel_poly
    cos_i.o(i.__kernel_cos) refers to daddsub_clz.o(x$fpl$dsub) for __aeabi_dsub
    cos_i.o(i.__kernel_cos) refers to daddsub_clz.o(x$fpl$drsb) for __aeabi_drsub
    cos_i.o(i.__kernel_cos) refers to cos_i.o(.constdata) for .constdata
    cos_i.o(.constdata) refers (Special) to usenofp.o(x$fpl$usenofp) for __I$use$fp
    dunder.o(i.__mathlib_dbl_divzero) refers to ddiv.o(x$fpl$ddiv) for __aeabi_ddiv
    dunder.o(i.__mathlib_dbl_infnan) refers to daddsub_clz.o(x$fpl$dadd) for __aeabi_dadd
    dunder.o(i.__mathlib_dbl_infnan2) refers to daddsub_clz.o(x$fpl$dadd) for __aeabi_dadd
    dunder.o(i.__mathlib_dbl_invalid) refers to ddiv.o(x$fpl$ddiv) for __aeabi_ddiv
    dunder.o(i.__mathlib_dbl_overflow) refers to dmul.o(x$fpl$dmul) for __aeabi_dmul
    dunder.o(i.__mathlib_dbl_posinfnan) refers to dmul.o(x$fpl$dmul) for __aeabi_dmul
    dunder.o(i.__mathlib_dbl_underflow) refers to dmul.o(x$fpl$dmul) for __aeabi_dmul
    fpclassify.o(i.__ARM_fpclassify) refers (Special) to usenofp.o(x$fpl$usenofp) for __I$use$fp
    fpclassifyf.o(i.__ARM_fpclassifyf) refers (Special) to usenofp.o(x$fpl$usenofp) for __I$use$fp
    poly.o(i.__kernel_poly) refers (Special) to usenofp.o(x$fpl$usenofp) for __I$use$fp
    poly.o(i.__kernel_poly) refers to dmul.o(x$fpl$dmul) for __aeabi_dmul
    poly.o(i.__kernel_poly) refers to daddsub_clz.o(x$fpl$dadd) for __aeabi_dadd
    qnan.o(.constdata) refers (Special) to usenofp.o(x$fpl$usenofp) for __I$use$fp
    rred.o(i.__ieee754_rem_pio2) refers (Special) to usenofp.o(x$fpl$usenofp) for __I$use$fp
    rred.o(i.__ieee754_rem_pio2) refers to daddsub_clz.o(x$fpl$dsub) for __aeabi_dsub
    rred.o(i.__ieee754_rem_pio2) refers to daddsub_clz.o(x$fpl$dadd) for __aeabi_dadd
    rred.o(i.__ieee754_rem_pio2) refers to fabs.o(i.fabs) for fabs
    rred.o(i.__ieee754_rem_pio2) refers to dmul.o(x$fpl$dmul) for __aeabi_dmul
    rred.o(i.__ieee754_rem_pio2) refers to dfix.o(x$fpl$dfix) for __aeabi_d2iz
    rred.o(i.__ieee754_rem_pio2) refers to dflt_clz.o(x$fpl$dflt) for __aeabi_i2d
    rred.o(i.__ieee754_rem_pio2) refers to daddsub_clz.o(x$fpl$drsb) for __aeabi_drsub
    rred.o(i.__ieee754_rem_pio2) refers to basic.o(x$fpl$basic) for __aeabi_dneg
    rred.o(i.__ieee754_rem_pio2) refers to dflt_clz.o(x$fpl$dfltu) for __aeabi_ui2d
    rred.o(i.__ieee754_rem_pio2) refers to rred.o(.constdata) for .constdata
    rred.o(i.__use_accurate_range_reduction) refers (Special) to usenofp.o(x$fpl$usenofp) for __I$use$fp
    rred.o(.constdata) refers (Special) to usenofp.o(x$fpl$usenofp) for __I$use$fp
    rredf.o(i.__mathlib_rredf2) refers (Special) to usenofp.o(x$fpl$usenofp) for __I$use$fp
    rredf.o(i.__mathlib_rredf2) refers to rredf.o(.constdata) for .constdata
    rredf.o(.constdata) refers (Special) to usenofp.o(x$fpl$usenofp) for __I$use$fp
    sin_i.o(i.__kernel_sin) refers (Special) to usenofp.o(x$fpl$usenofp) for __I$use$fp
    sin_i.o(i.__kernel_sin) refers to fpclassify.o(i.__ARM_fpclassify) for __ARM_fpclassify
    sin_i.o(i.__kernel_sin) refers to dunder.o(i.__mathlib_dbl_underflow) for __mathlib_dbl_underflow
    sin_i.o(i.__kernel_sin) refers to dmul.o(x$fpl$dmul) for __aeabi_dmul
    sin_i.o(i.__kernel_sin) refers to poly.o(i.__kernel_poly) for __kernel_poly
    sin_i.o(i.__kernel_sin) refers to daddsub_clz.o(x$fpl$dsub) for __aeabi_dsub
    sin_i.o(i.__kernel_sin) refers to daddsub_clz.o(x$fpl$drsb) for __aeabi_drsub
    sin_i.o(i.__kernel_sin) refers to daddsub_clz.o(x$fpl$dadd) for __aeabi_dadd
    sin_i.o(i.__kernel_sin) refers to sin_i.o(.constdata) for .constdata
    sin_i.o(.constdata) refers (Special) to usenofp.o(x$fpl$usenofp) for __I$use$fp
    sin_i_x.o(i.____kernel_sin$lsc) refers (Special) to usenofp.o(x$fpl$usenofp) for __I$use$fp
    sin_i_x.o(i.____kernel_sin$lsc) refers to dmul.o(x$fpl$dmul) for __aeabi_dmul
    sin_i_x.o(i.____kernel_sin$lsc) refers to poly.o(i.__kernel_poly) for __kernel_poly
    sin_i_x.o(i.____kernel_sin$lsc) refers to daddsub_clz.o(x$fpl$dsub) for __aeabi_dsub
    sin_i_x.o(i.____kernel_sin$lsc) refers to daddsub_clz.o(x$fpl$drsb) for __aeabi_drsub
    sin_i_x.o(i.____kernel_sin$lsc) refers to daddsub_clz.o(x$fpl$dadd) for __aeabi_dadd
    sin_i_x.o(i.____kernel_sin$lsc) refers to sin_i_x.o(.constdata) for .constdata
    sin_i_x.o(.constdata) refers (Special) to usenofp.o(x$fpl$usenofp) for __I$use$fp
    __rtentry2.o(.ARM.Collect$$rtentry$$00000008) refers to boardinit2.o(.text) for _platform_post_stackheap_init
    __rtentry2.o(.ARM.Collect$$rtentry$$0000000A) refers to libinit.o(.ARM.Collect$$libinit$$00000000) for __rt_lib_init
    __rtentry2.o(.ARM.Collect$$rtentry$$0000000B) refers to boardinit3.o(.text) for _platform_post_lib_init
    __rtentry2.o(.ARM.Collect$$rtentry$$0000000D) refers to main.o(i.main) for main
    __rtentry2.o(.ARM.Collect$$rtentry$$0000000D) refers to exit.o(.text) for exit
    __rtentry2.o(.ARM.exidx) refers to __rtentry2.o(.ARM.Collect$$rtentry$$00000001) for .ARM.Collect$$rtentry$$00000001
    __rtentry2.o(.ARM.exidx) refers to __rtentry2.o(.ARM.Collect$$rtentry$$00000008) for .ARM.Collect$$rtentry$$00000008
    __rtentry2.o(.ARM.exidx) refers to __rtentry2.o(.ARM.Collect$$rtentry$$0000000A) for .ARM.Collect$$rtentry$$0000000A
    __rtentry2.o(.ARM.exidx) refers to __rtentry2.o(.ARM.Collect$$rtentry$$0000000B) for .ARM.Collect$$rtentry$$0000000B
    __rtentry2.o(.ARM.exidx) refers to __rtentry2.o(.ARM.Collect$$rtentry$$0000000D) for .ARM.Collect$$rtentry$$0000000D
    __rtentry4.o(.ARM.Collect$$rtentry$$00000004) refers to sys_stackheap_outer.o(.text) for __user_setup_stackheap
    __rtentry4.o(.ARM.exidx) refers to __rtentry4.o(.ARM.Collect$$rtentry$$00000004) for .ARM.Collect$$rtentry$$00000004
    rt_errno_addr.o(.text) refers to rt_errno_addr.o(.bss) for __aeabi_errno_addr_data
    rt_errno_addr_intlibspace.o(.text) refers to libspace.o(.bss) for __libspace_start
    argv_veneer.o(.emb_text) refers to no_argv.o(.text) for __ARM_get_argv
    unwind_prcommon.o(.text) refers to unwinder.o(.text) for _Unwind_VRS_Get
    unwind_prcommon.o(.text) refers to unwind_activity.o(.emb_text) for _Unwind_Activity
    unwind_prcommon.o(.ARM.exidx) refers to unwind_prcommon.o(.text) for .text
    dcheck1.o(x$fpl$dcheck1) refers (Special) to usenofp.o(x$fpl$usenofp) for __I$use$fp
    dcheck1.o(x$fpl$dcheck1) refers to retnan.o(x$fpl$retnan) for __fpl_return_NaN
    libspace.o(.text) refers to libspace.o(.bss) for __libspace_start
    sys_stackheap_outer.o(.text) refers to libspace.o(.text) for __user_perproc_libspace
    sys_stackheap_outer.o(.text) refers to startup_stm32f407xx.o(.text) for __user_initial_stackheap
    exit.o(.text) refers to rtexit.o(.ARM.Collect$$rtexit$$00000000) for __rt_exit
    _get_argv_nomalloc.o(.text) refers (Special) to hrguard.o(.text) for __heap_region$guard
    _get_argv_nomalloc.o(.text) refers to defsig_rtmem_outer.o(.text) for __rt_SIGRTMEM
    _get_argv_nomalloc.o(.text) refers to retarget.o(i._sys_command_string) for _sys_command_string
    libinit.o(.ARM.Collect$$libinit$$00000000) refers (Special) to libinit2.o(.ARM.Collect$$libinit$$0000002E) for __rt_lib_init_alloca_1
    libinit.o(.ARM.Collect$$libinit$$00000000) refers (Special) to libinit2.o(.ARM.Collect$$libinit$$0000002C) for __rt_lib_init_argv_1
    libinit.o(.ARM.Collect$$libinit$$00000000) refers (Special) to libinit2.o(.ARM.Collect$$libinit$$0000001B) for __rt_lib_init_atexit_1
    libinit.o(.ARM.Collect$$libinit$$00000000) refers (Special) to libinit2.o(.ARM.Collect$$libinit$$00000021) for __rt_lib_init_clock_1
    libinit.o(.ARM.Collect$$libinit$$00000000) refers (Special) to libinit2.o(.ARM.Collect$$libinit$$00000032) for __rt_lib_init_cpp_1
    libinit.o(.ARM.Collect$$libinit$$00000000) refers (Special) to libinit2.o(.ARM.Collect$$libinit$$00000030) for __rt_lib_init_exceptions_1
    libinit.o(.ARM.Collect$$libinit$$00000000) refers (Special) to libinit2.o(.ARM.Collect$$libinit$$00000001) for __rt_lib_init_fp_1
    libinit.o(.ARM.Collect$$libinit$$00000000) refers (Special) to libinit2.o(.ARM.Collect$$libinit$$0000001F) for __rt_lib_init_fp_trap_1
    libinit.o(.ARM.Collect$$libinit$$00000000) refers (Special) to libinit2.o(.ARM.Collect$$libinit$$00000023) for __rt_lib_init_getenv_1
    libinit.o(.ARM.Collect$$libinit$$00000000) refers (Special) to libinit2.o(.ARM.Collect$$libinit$$0000000A) for __rt_lib_init_heap_1
    libinit.o(.ARM.Collect$$libinit$$00000000) refers (Special) to libinit2.o(.ARM.Collect$$libinit$$00000011) for __rt_lib_init_lc_collate_1
    libinit.o(.ARM.Collect$$libinit$$00000000) refers (Special) to libinit2.o(.ARM.Collect$$libinit$$00000013) for __rt_lib_init_lc_ctype_1
    libinit.o(.ARM.Collect$$libinit$$00000000) refers (Special) to libinit2.o(.ARM.Collect$$libinit$$00000015) for __rt_lib_init_lc_monetary_1
    libinit.o(.ARM.Collect$$libinit$$00000000) refers (Special) to libinit2.o(.ARM.Collect$$libinit$$00000017) for __rt_lib_init_lc_numeric_1
    libinit.o(.ARM.Collect$$libinit$$00000000) refers (Special) to libinit2.o(.ARM.Collect$$libinit$$00000019) for __rt_lib_init_lc_time_1
    libinit.o(.ARM.Collect$$libinit$$00000000) refers (Special) to libinit2.o(.ARM.Collect$$libinit$$00000004) for __rt_lib_init_preinit_1
    libinit.o(.ARM.Collect$$libinit$$00000000) refers (Special) to libinit2.o(.ARM.Collect$$libinit$$0000000E) for __rt_lib_init_rand_1
    libinit.o(.ARM.Collect$$libinit$$00000000) refers (Special) to libinit2.o(.ARM.Collect$$libinit$$00000033) for __rt_lib_init_return
    libinit.o(.ARM.Collect$$libinit$$00000000) refers (Special) to libinit2.o(.ARM.Collect$$libinit$$0000001D) for __rt_lib_init_signal_1
    libinit.o(.ARM.Collect$$libinit$$00000000) refers (Special) to libinit2.o(.ARM.Collect$$libinit$$00000025) for __rt_lib_init_stdio_1
    libinit.o(.ARM.Collect$$libinit$$00000000) refers (Special) to libinit2.o(.ARM.Collect$$libinit$$0000000C) for __rt_lib_init_user_alloc_1
    unwinder.o(.emb_text) refers to unwinder.o(.text) for __ARM_Unwind_RaiseException
    unwinder.o(.text) refers to bsearchnoex.o(.text) for bsearch
    unwinder.o(.text) refers to unwind_activity.o(.emb_text) for _Unwind_Activity
    unwinder.o(.text) refers to abort.o(.text) for abort
    unwinder.o(.text) refers to unwinder.o(.emb_text) for __ARM_Unwind_VRS_corerestore
    unwinder.o(.text) refers to h1_alloc.o(.text) for malloc
    unwinder.o(.text) refers to rt_memcpy_w.o(.text) for __aeabi_memcpy4
    unwinder.o(.text) refers to h1_free.o(.text) for free
    unwinder.o(.text) refers (Weak) to unwind_pr0.o(.text) for __aeabi_unwind_cpp_pr0
    unwinder.o(.ARM.exidx) refers to unwinder.o(.text) for .text
    retnan.o(x$fpl$retnan) refers (Special) to usenofp.o(x$fpl$usenofp) for __I$use$fp
    retnan.o(x$fpl$retnan) refers to trapv.o(x$fpl$trapveneer) for __fpl_cmpreturn
    rtexit.o(.ARM.Collect$$rtexit$$00000000) refers (Special) to rtexit2.o(.ARM.Collect$$rtexit$$00000004) for __rt_exit_exit
    rtexit.o(.ARM.Collect$$rtexit$$00000000) refers (Special) to rtexit2.o(.ARM.Collect$$rtexit$$00000003) for __rt_exit_ls
    rtexit.o(.ARM.Collect$$rtexit$$00000000) refers (Special) to rtexit2.o(.ARM.Collect$$rtexit$$00000002) for __rt_exit_prels_1
    rtexit.o(.ARM.exidx) refers (Special) to rtexit2.o(.ARM.Collect$$rtexit$$00000004) for __rt_exit_exit
    rtexit.o(.ARM.exidx) refers (Special) to rtexit2.o(.ARM.Collect$$rtexit$$00000003) for __rt_exit_ls
    rtexit.o(.ARM.exidx) refers (Special) to rtexit2.o(.ARM.Collect$$rtexit$$00000002) for __rt_exit_prels_1
    rtexit.o(.ARM.exidx) refers to rtexit.o(.ARM.Collect$$rtexit$$00000000) for .ARM.Collect$$rtexit$$00000000
    malloc.o(.text) refers (Special) to hguard.o(.text) for __heap$guard
    malloc.o(.text) refers (Special) to init_alloc.o(.text) for _init_alloc
    malloc.o(.text) refers to rt_heap_descriptor_intlibspace.o(.text) for __rt_heap_descriptor
    malloc.o(.text) refers to heapstubs.o(.text) for __Heap_Alloc
    free.o(.text) refers (Special) to hguard.o(.text) for __heap$guard
    free.o(.text) refers to rt_heap_descriptor_intlibspace.o(.text) for __rt_heap_descriptor
    free.o(.text) refers to heapstubs.o(.text) for __Heap_Free
    h1_alloc.o(.text) refers (Special) to h1_init.o(.text) for __Heap_Initialize
    h1_alloc.o(.text) refers to rt_heap_descriptor_intlibspace.o(.text) for __rt_heap_descriptor
    h1_alloc.o(.text) refers to init_alloc.o(.text) for __Heap_Full
    h1_free.o(.text) refers to rt_heap_descriptor_intlibspace.o(.text) for __rt_heap_descriptor
    h1_alloc_mt.o(.text) refers (Special) to h1_init.o(.text) for __Heap_Initialize
    h1_alloc_mt.o(.text) refers to init_alloc.o(.text) for __Heap_Full
    h1_alloc_mt.o(.text) refers to rt_heap_descriptor_intlibspace.o(.text) for __rt_heap_descriptor
    h1_free_mt.o(.text) refers to rt_heap_descriptor_intlibspace.o(.text) for __rt_heap_descriptor
    heap2.o(i._FDIterate) refers to heap2.o(.conststring) for .conststring
    heap2.o(i.___Heap_ProvideMemory$realtime) refers to fdtree.o(i._FDTree_Delete) for _FDTree_Delete
    heap2.o(i.___Heap_ProvideMemory$realtime) refers to fdtree.o(i._FDTree_Insert) for _FDTree_Insert
    heap2.o(i.___Heap_Stats$realtime) refers to heap2.o(i._Heap2_StatsIterate) for _Heap2_StatsIterate
    heap2.o(i.___Heap_Valid$realtime) refers to heap2.o(i._FDIterate) for _FDIterate
    heap2.o(i.___Heap_Valid$realtime) refers to heap2.o(.conststring) for .conststring
    heap2.o(i._free$realtime) refers to rt_heap_descriptor_intlibspace.o(.text) for __rt_heap_descriptor
    heap2.o(i._free$realtime) refers to fdtree.o(i._FDTree_Delete) for _FDTree_Delete
    heap2.o(i._free$realtime) refers to fdtree.o(i._FDTree_Insert) for _FDTree_Insert
    heap2.o(i._malloc$realtime) refers to rt_heap_descriptor_intlibspace.o(.text) for __rt_heap_descriptor
    heap2.o(i._malloc$realtime) refers to fdtree.o(i._FDTree_FindFirst) for _FDTree_FindFirst
    heap2.o(i._malloc$realtime) refers to init_alloc.o(.text) for __Heap_Full
    heap2.o(i._malloc$realtime) refers to fdtree.o(i._FDTree_RemoveNode) for _FDTree_RemoveNode
    heap2.o(i._malloc$realtime) refers to fdtree.o(i._FDTree_Insert) for _FDTree_Insert
    heap2.o(i._posix_memalign$realtime) refers to rt_heap_descriptor_intlibspace.o(.text) for __rt_heap_descriptor
    heap2.o(i._posix_memalign$realtime) refers to fdtree.o(i._FDTree_FindFirst) for _FDTree_FindFirst
    heap2.o(i._posix_memalign$realtime) refers to init_alloc.o(.text) for __Heap_Full
    heap2.o(i._posix_memalign$realtime) refers to fdtree.o(i._FDTree_RemoveNode) for _FDTree_RemoveNode
    heap2.o(i._posix_memalign$realtime) refers to fdtree.o(i._FDTree_Insert) for _FDTree_Insert
    heap2.o(i._realloc$realtime) refers to rt_heap_descriptor_intlibspace.o(.text) for __rt_heap_descriptor
    heap2.o(i._realloc$realtime) refers to fdtree.o(i._FDTree_Insert) for _FDTree_Insert
    heap2.o(i._realloc$realtime) refers to h1_free.o(.text) for free
    heap2.o(i._realloc$realtime) refers to h1_alloc.o(.text) for malloc
    heap2.o(i._realloc$realtime) refers to fdtree.o(i._FDTree_Delete) for _FDTree_Delete
    heap2.o(i._realloc$realtime) refers to rt_memcpy_w.o(.text) for __aeabi_memcpy4
    heap2mt.o(i._FDIterate) refers to heap2mt.o(.conststring) for .conststring
    heap2mt.o(i.___Heap_Initialize$realtime$concurrent) refers to mutex_dummy.o(.text) for _mutex_initialize
    heap2mt.o(i.___Heap_ProvideMemory$realtime$concurrent) refers to fdtree.o(i._FDTree_Delete) for _FDTree_Delete
    heap2mt.o(i.___Heap_ProvideMemory$realtime$concurrent) refers to fdtree.o(i._FDTree_Insert) for _FDTree_Insert
    heap2mt.o(i.___Heap_Stats$realtime$concurrent) refers to heap2mt.o(i._Heap2_StatsIterate) for _Heap2_StatsIterate
    heap2mt.o(i.___Heap_Valid$realtime$concurrent) refers to heap2mt.o(i._FDIterate) for _FDIterate
    heap2mt.o(i.___Heap_Valid$realtime$concurrent) refers to heap2mt.o(.conststring) for .conststring
    heap2mt.o(i._free$realtime$concurrent) refers to rt_heap_descriptor_intlibspace.o(.text) for __rt_heap_descriptor
    heap2mt.o(i._free$realtime$concurrent) refers to fdtree.o(i._FDTree_Delete) for _FDTree_Delete
    heap2mt.o(i._free$realtime$concurrent) refers to fdtree.o(i._FDTree_Insert) for _FDTree_Insert
    heap2mt.o(i._malloc$realtime$concurrent) refers to rt_heap_descriptor_intlibspace.o(.text) for __rt_heap_descriptor
    heap2mt.o(i._malloc$realtime$concurrent) refers to fdtree.o(i._FDTree_FindFirst) for _FDTree_FindFirst
    heap2mt.o(i._malloc$realtime$concurrent) refers to init_alloc.o(.text) for __Heap_Full
    heap2mt.o(i._malloc$realtime$concurrent) refers to fdtree.o(i._FDTree_RemoveNode) for _FDTree_RemoveNode
    heap2mt.o(i._malloc$realtime$concurrent) refers to fdtree.o(i._FDTree_Insert) for _FDTree_Insert
    heap2mt.o(i._posix_memalign$realtime$concurrent) refers to rt_heap_descriptor_intlibspace.o(.text) for __rt_heap_descriptor
    heap2mt.o(i._posix_memalign$realtime$concurrent) refers to fdtree.o(i._FDTree_FindFirst) for _FDTree_FindFirst
    heap2mt.o(i._posix_memalign$realtime$concurrent) refers to init_alloc.o(.text) for __Heap_Full
    heap2mt.o(i._posix_memalign$realtime$concurrent) refers to fdtree.o(i._FDTree_RemoveNode) for _FDTree_RemoveNode
    heap2mt.o(i._posix_memalign$realtime$concurrent) refers to fdtree.o(i._FDTree_Insert) for _FDTree_Insert
    heap2mt.o(i._realloc$realtime$concurrent) refers to rt_heap_descriptor_intlibspace.o(.text) for __rt_heap_descriptor
    heap2mt.o(i._realloc$realtime$concurrent) refers to fdtree.o(i._FDTree_Insert) for _FDTree_Insert
    heap2mt.o(i._realloc$realtime$concurrent) refers to h1_free.o(.text) for free
    heap2mt.o(i._realloc$realtime$concurrent) refers to h1_alloc.o(.text) for malloc
    heap2mt.o(i._realloc$realtime$concurrent) refers to fdtree.o(i._FDTree_Delete) for _FDTree_Delete
    heap2mt.o(i._realloc$realtime$concurrent) refers to rt_memcpy_w.o(.text) for __aeabi_memcpy4
    abort.o(.text) refers to defsig_abrt_outer.o(.text) for __rt_SIGABRT
    abort.o(.text) refers (Weak) to libshutdown.o(.ARM.Collect$$libshutdown$$00000000) for __rt_lib_shutdown
    abort.o(.text) refers to retarget.o(i._sys_exit) for _sys_exit
    defsig_rtmem_outer.o(.text) refers to defsig_rtmem_inner.o(.text) for __rt_SIGRTMEM_inner
    defsig_rtmem_outer.o(.text) refers to defsig_exit.o(.text) for __sig_exit
    defsig_rtmem_formal.o(.text) refers to rt_raise.o(.text) for __rt_raise
    trapv.o(x$fpl$trapveneer) refers (Special) to usenofp.o(x$fpl$usenofp) for __I$use$fp
    rtexit2.o(.ARM.Collect$$rtexit$$00000003) refers to libshutdown.o(.ARM.Collect$$libshutdown$$00000000) for __rt_lib_shutdown
    rtexit2.o(.ARM.Collect$$rtexit$$00000004) refers to retarget.o(i._sys_exit) for _sys_exit
    rtexit2.o(.ARM.exidx) refers to rtexit2.o(.ARM.Collect$$rtexit$$00000001) for .ARM.Collect$$rtexit$$00000001
    rtexit2.o(.ARM.exidx) refers to rtexit2.o(.ARM.Collect$$rtexit$$00000003) for .ARM.Collect$$rtexit$$00000003
    rtexit2.o(.ARM.exidx) refers to rtexit2.o(.ARM.Collect$$rtexit$$00000004) for .ARM.Collect$$rtexit$$00000004
    rt_raise.o(.text) refers to __raise.o(.text) for __raise
    rt_raise.o(.text) refers to retarget.o(i._sys_exit) for _sys_exit
    rt_heap_descriptor.o(.text) refers to rt_heap_descriptor.o(.bss) for __rt_heap_descriptor_data
    rt_heap_descriptor_intlibspace.o(.text) refers to libspace.o(.bss) for __libspace_start
    init_alloc.o(.text) refers (Special) to hguard.o(.text) for __heap$guard
    init_alloc.o(.text) refers (Special) to libinit2.o(.ARM.Collect$$libinit$$00000005) for __rt_lib_init_heap_2
    init_alloc.o(.text) refers (Special) to maybetermalloc1.o(.emb_text) for _maybe_terminate_alloc
    init_alloc.o(.text) refers to h1_extend.o(.text) for __Heap_ProvideMemory
    init_alloc.o(.text) refers to defsig_rtmem_outer.o(.text) for __rt_SIGRTMEM
    init_alloc.o(.text) refers to rt_heap_descriptor_intlibspace.o(.text) for __rt_heap_descriptor
    init_alloc.o(.text) refers to h1_init.o(.text) for __Heap_Initialize
    h1_init_mt.o(.text) refers to mutex_dummy.o(.text) for _mutex_initialize
    defsig_exit.o(.text) refers to retarget.o(i._sys_exit) for _sys_exit
    defsig_abrt_outer.o(.text) refers to defsig_abrt_inner.o(.text) for __rt_SIGABRT_inner
    defsig_abrt_outer.o(.text) refers to defsig_exit.o(.text) for __sig_exit
    defsig_abrt_formal.o(.text) refers to rt_raise.o(.text) for __rt_raise
    defsig_rtmem_inner.o(.text) refers to defsig_general.o(.text) for __default_signal_display
    _get_argv.o(.text) refers (Special) to hrguard.o(.text) for __heap_region$guard
    _get_argv.o(.text) refers to h1_alloc.o(.text) for malloc
    _get_argv.o(.text) refers to defsig_rtmem_outer.o(.text) for __rt_SIGRTMEM
    _get_argv.o(.text) refers to retarget.o(i._sys_command_string) for _sys_command_string
    maybetermalloc2.o(.emb_text) refers (Special) to term_alloc.o(.text) for _terminate_alloc
    h1_extend.o(.text) refers to h1_free.o(.text) for free
    h1_extend_mt.o(.text) refers to h1_free_mt.o(.text) for _free_internal
    __raise.o(.text) refers to defsig.o(CL$$defsig) for __default_signal_handler
    defsig_general.o(.text) refers to retarget.o(i._ttywrch) for _ttywrch
    defsig_abrt_inner.o(.text) refers to defsig_general.o(.text) for __default_signal_display
    heapauxa.o(.text) refers to heapauxa.o(.data) for .data
    libshutdown.o(.ARM.Collect$$libshutdown$$00000000) refers (Special) to libshutdown2.o(.ARM.Collect$$libshutdown$$00000004) for __rt_lib_shutdown_cpp_1
    libshutdown.o(.ARM.Collect$$libshutdown$$00000000) refers (Special) to libshutdown2.o(.ARM.Collect$$libshutdown$$00000002) for __rt_lib_shutdown_fini_1
    libshutdown.o(.ARM.Collect$$libshutdown$$00000000) refers (Special) to libshutdown2.o(.ARM.Collect$$libshutdown$$00000009) for __rt_lib_shutdown_fp_trap_1
    libshutdown.o(.ARM.Collect$$libshutdown$$00000000) refers (Special) to libshutdown2.o(.ARM.Collect$$libshutdown$$00000011) for __rt_lib_shutdown_heap_1
    libshutdown.o(.ARM.Collect$$libshutdown$$00000000) refers (Special) to libshutdown2.o(.ARM.Collect$$libshutdown$$00000012) for __rt_lib_shutdown_return
    libshutdown.o(.ARM.Collect$$libshutdown$$00000000) refers (Special) to libshutdown2.o(.ARM.Collect$$libshutdown$$0000000C) for __rt_lib_shutdown_signal_1
    libshutdown.o(.ARM.Collect$$libshutdown$$00000000) refers (Special) to libshutdown2.o(.ARM.Collect$$libshutdown$$00000006) for __rt_lib_shutdown_stdio_1
    libshutdown.o(.ARM.Collect$$libshutdown$$00000000) refers (Special) to libshutdown2.o(.ARM.Collect$$libshutdown$$0000000E) for __rt_lib_shutdown_user_alloc_1
    term_alloc.o(.text) refers (Special) to libshutdown2.o(.ARM.Collect$$libshutdown$$00000010) for __rt_lib_shutdown_heap_2
    term_alloc.o(.text) refers to rt_heap_descriptor_intlibspace.o(.text) for __rt_heap_descriptor
    term_alloc.o(.text) refers to h1_final.o(.text) for __Heap_Finalize
    defsig.o(CL$$defsig) refers to defsig_abrt_inner.o(.text) for __rt_SIGABRT_inner
    defsig.o(CL$$defsig) refers to defsig_rtmem_inner.o(.text) for __rt_SIGRTMEM_inner
    libshutdown2.o(.ARM.Collect$$libshutdown$$0000000F) refers (Weak) to term_alloc.o(.text) for _terminate_alloc
    defsig_fpe_inner.o(.text) refers to defsig_general.o(.text) for __default_signal_display
    defsig_rtred_inner.o(.text) refers to defsig_general.o(.text) for __default_signal_display
    defsig_stak_inner.o(.text) refers to defsig_general.o(.text) for __default_signal_display
    defsig_pvfn_inner.o(.text) refers to defsig_general.o(.text) for __default_signal_display
    defsig_cppl_inner.o(.text) refers to defsig_general.o(.text) for __default_signal_display
    defsig_segv_inner.o(.text) refers to defsig_general.o(.text) for __default_signal_display
    defsig_other.o(.text) refers to defsig_general.o(.text) for __default_signal_display
    main.o(.ARM.exidx) refers to main.o(i._ZSt3absf) for i._ZSt3absf
    main.o(i._ZSt5atan2ff) refers to atan2f.o(i.__hardfp_atan2f) for __hardfp_atan2f
    main.o(.ARM.exidx) refers to main.o(i._ZSt5atan2ff) for i._ZSt5atan2ff
    main.o(i._ZSt3absd) refers to fabs.o(i.__hardfp_fabs) for __hardfp_fabs
    main.o(.ARM.exidx) refers to main.o(i._ZSt3absd) for i._ZSt3absd
    main.o(.ARM.exidx) refers to main.o(i._ZN7OutPairaSERKS_) for i._ZN7OutPairaSERKS_
    main.o(.ARM.exidx) refers to main.o(i._ZN7OutPairC1Ev) for i._ZN7OutPairC1Ev
    goalkeeper.o(i._ZSt3powff) refers to powf.o(i.__hardfp_powf) for __hardfp_powf
    goalkeeper.o(.ARM.exidx) refers to goalkeeper.o(i._ZSt3powff) for i._ZSt3powff
    goalkeeper.o(i._ZSt3powfi) refers to powf.o(i.__hardfp_powf) for __hardfp_powf
    goalkeeper.o(.ARM.exidx) refers to goalkeeper.o(i._ZSt3powfi) for i._ZSt3powfi
    forward.o(.ARM.exidx) refers to forward.o(i._ZN7OutPair6setOutEh) for i._ZN7OutPair6setOutEh
    processing_coord.o(i._ZSt4sqrtf) refers to sqrtf.o(i.__hardfp_sqrtf) for __hardfp_sqrtf
    processing_coord.o(.ARM.exidx) refers to processing_coord.o(i._ZSt4sqrtf) for i._ZSt4sqrtf
    queues_ball.o(.ARM.exidx) refers to queues_ball.o(i._ZN9Vec2bTime3setEddjs) for i._ZN9Vec2bTime3setEddjs
    queues_ball.o(i._ZN9Vec2bTime7correctEv) refers to deqf.o(x$fpl$deqf) for __aeabi_cdcmpeq
    queues_ball.o(.ARM.exidx) refers to queues_ball.o(i._ZN9Vec2bTime7correctEv) for i._ZN9Vec2bTime7correctEv
    queues_ball.o(i._ZSt3powdi) refers to dflt_clz.o(x$fpl$dflt) for __aeabi_i2d
    queues_ball.o(i._ZSt3powdi) refers to pow.o(i.__hardfp_pow) for __hardfp_pow
    queues_ball.o(.ARM.exidx) refers to queues_ball.o(i._ZSt3powdi) for i._ZSt3powdi
    queues_ball.o(.ARM.exidx) refers to queues_ball.o(i._ZN9Vec2bTime6getLenEv) for i._ZN9Vec2bTime6getLenEv
    queues_ball.o(.ARM.exidx) refers to queues_ball.o(i._ZN9Vec2bTime8getAngleEv) for i._ZN9Vec2bTime8getAngleEv
    queues_ball.o(.ARM.exidx) refers to queues_ball.o(i._ZN9Vec2bTime7getTimeEv) for i._ZN9Vec2bTime7getTimeEv
    queues_ball.o(i._ZN9Vec2bTimeC1Ev) refers to vec2b.o(i._ZN5Vec2bC1Ev) for Vec2b::Vec2b()
    queues_ball.o(.ARM.exidx) refers to queues_ball.o(i._ZN9Vec2bTimeC1Ev) for i._ZN9Vec2bTimeC1Ev
    openmv.o(i._ZSt3cosf) refers to cosf.o(i.__hardfp_cosf) for __hardfp_cosf
    openmv.o(.ARM.exidx) refers to openmv.o(i._ZSt3cosf) for i._ZSt3cosf
    openmv.o(i._ZSt3sinf) refers to sinf.o(i.__hardfp_sinf) for __hardfp_sinf
    openmv.o(.ARM.exidx) refers to openmv.o(i._ZSt3sinf) for i._ZSt3sinf
    mpu9250_spi.o(.ARM.exidx) refers to mpu9250_spi.o(i._ZN11mpu9250_spi7convertEth) for i._ZN11mpu9250_spi7convertEth


==============================================================================

Removing Unused input sections from the image.

    Removing main.o(.rev16_text), (4 bytes).
    Removing main.o(.revsh_text), (4 bytes).
    Removing main.o(.rrx_text), (6 bytes).
    Removing main.o(i._Z10writeFLASHh), (36 bytes).
    Removing main.o(i._Z13adduct180_360s), (28 bytes).
    Removing main.o(i._Z13adduct360_180s), (28 bytes).
    Removing main.o(i._Z4signf), (48 bytes).
    Removing main.o(i._Z6delay_i), (10 bytes).
    Removing main.o(i._Z9readFLASHv), (16 bytes).
    Removing main.o(.ARM.exidx), (8 bytes).
    Removing main.o(.ARM.exidx), (8 bytes).
    Removing main.o(.ARM.exidx), (8 bytes).
    Removing main.o(.ARM.exidx), (8 bytes).
    Removing main.o(.ARM.exidx), (8 bytes).
    Removing main.o(.ARM.exidx), (8 bytes).
    Removing main.o(.ARM.exidx), (8 bytes).
    Removing main.o(.ARM.exidx), (8 bytes).
    Removing main.o(.ARM.exidx), (8 bytes).
    Removing main.o(.ARM.exidx), (8 bytes).
    Removing main.o(.ARM.exidx), (8 bytes).
    Removing main.o(.ARM.exidx), (8 bytes).
    Removing main.o(.ARM.exidx), (8 bytes).
    Removing main.o(.ARM.exidx), (8 bytes).
    Removing main.o(.ARM.exidx), (8 bytes).
    Removing main.o(.ARM.exidx), (8 bytes).
    Removing goalkeeper.o(.rev16_text), (4 bytes).
    Removing goalkeeper.o(.revsh_text), (4 bytes).
    Removing goalkeeper.o(.rrx_text), (6 bytes).
    Removing goalkeeper.o(i._ZN10Goalkeeper14getVecToReturnEv), (108 bytes).
    Removing goalkeeper.o(i._ZN10Goalkeeper20getCoeffToGoalCenterEf), (72 bytes).
    Removing goalkeeper.o(.ARM.exidx), (8 bytes).
    Removing goalkeeper.o(.ARM.exidx), (8 bytes).
    Removing goalkeeper.o(.ARM.exidx), (8 bytes).
    Removing goalkeeper.o(.ARM.exidx), (8 bytes).
    Removing goalkeeper.o(.ARM.exidx), (8 bytes).
    Removing goalkeeper.o(.ARM.exidx), (8 bytes).
    Removing goalkeeper.o(.ARM.exidx), (8 bytes).
    Removing goalkeeper.o(.ARM.exidx), (8 bytes).
    Removing goalkeeper.o(.ARM.exidx), (8 bytes).
    Removing goalkeeper.o(.ARM.exidx), (8 bytes).
    Removing goalkeeper.o(.ARM.exidx), (8 bytes).
    Removing goalkeeper.o(.ARM.exidx), (8 bytes).
    Removing goalkeeper.o(.ARM.exidx), (8 bytes).
    Removing goalkeeper.o(.ARM.exidx), (8 bytes).
    Removing forward.o(.rev16_text), (4 bytes).
    Removing forward.o(.revsh_text), (4 bytes).
    Removing forward.o(.rrx_text), (6 bytes).
    Removing forward.o(i._ZN7Forward12setNearSpeedEhf), (304 bytes).
    Removing forward.o(i._ZN7Forward13nearEnemyGoalEv), (352 bytes).
    Removing forward.o(.ARM.exidx), (8 bytes).
    Removing forward.o(.ARM.exidx), (8 bytes).
    Removing forward.o(.ARM.exidx), (8 bytes).
    Removing forward.o(.ARM.exidx), (8 bytes).
    Removing forward.o(.ARM.exidx), (8 bytes).
    Removing forward.o(.ARM.exidx), (8 bytes).
    Removing forward.o(.ARM.exidx), (8 bytes).
    Removing forward.o(.ARM.exidx), (8 bytes).
    Removing forward.o(.ARM.exidx), (8 bytes).
    Removing forward.o(.ARM.exidx), (8 bytes).
    Removing forward.o(.ARM.exidx), (8 bytes).
    Removing forward.o(.ARM.exidx), (8 bytes).
    Removing forward.o(.ARM.exidx), (8 bytes).
    Removing forward.o(.ARM.exidx), (8 bytes).
    Removing forward.o(.ARM.exidx), (8 bytes).
    Removing forward.o(.ARM.exidx), (8 bytes).
    Removing forward.o(.ARM.exidx), (8 bytes).
    Removing forward.o(.ARM.exidx), (8 bytes).
    Removing forward.o(.ARM.exidx), (8 bytes).
    Removing forward.o(.ARM.exidx), (8 bytes).
    Removing forward.o(.ARM.exidx), (8 bytes).
    Removing forward.o(.ARM.exidx), (8 bytes).
    Removing forward.o(.ARM.exidx), (8 bytes).
    Removing processing_coord.o(.rev16_text), (4 bytes).
    Removing processing_coord.o(.revsh_text), (4 bytes).
    Removing processing_coord.o(.rrx_text), (6 bytes).
    Removing processing_coord.o(i._ZN15ProcessingCoord15getAngleBetweenEff), (124 bytes).
    Removing processing_coord.o(i._ZN15ProcessingCoord3mapEfffff), (144 bytes).
    Removing processing_coord.o(.ARM.exidx), (8 bytes).
    Removing processing_coord.o(.ARM.exidx), (8 bytes).
    Removing processing_coord.o(.ARM.exidx), (8 bytes).
    Removing processing_coord.o(.ARM.exidx), (8 bytes).
    Removing processing_coord.o(.ARM.exidx), (8 bytes).
    Removing processing_coord.o(.ARM.exidx), (8 bytes).
    Removing processing_coord.o(.ARM.exidx), (8 bytes).
    Removing processing_coord.o(.ARM.exidx), (8 bytes).
    Removing processing_coord.o(.ARM.exidx), (8 bytes).
    Removing processing_coord.o(.ARM.exidx), (8 bytes).
    Removing processing_coord.o(.ARM.exidx), (8 bytes).
    Removing processing_coord.o(.ARM.exidx), (8 bytes).
    Removing processing_coord.o(.ARM.exidx), (8 bytes).
    Removing processing_coord.o(.ARM.exidx), (8 bytes).
    Removing processing_coord.o(.ARM.exidx), (8 bytes).
    Removing processing_coord.o(.ARM.exidx), (8 bytes).
    Removing processing_coord.o(.ARM.exidx), (8 bytes).
    Removing queues_ball.o(.rev16_text), (4 bytes).
    Removing queues_ball.o(.revsh_text), (4 bytes).
    Removing queues_ball.o(.rrx_text), (6 bytes).
    Removing queues_ball.o(i._ZN9BallVec2b15getCurrentVec2bEv), (48 bytes).
    Removing queues_ball.o(.ARM.exidx), (8 bytes).
    Removing queues_ball.o(.ARM.exidx), (8 bytes).
    Removing queues_ball.o(.ARM.exidx), (8 bytes).
    Removing queues_ball.o(.ARM.exidx), (8 bytes).
    Removing queues_ball.o(.ARM.exidx), (8 bytes).
    Removing queues_ball.o(.ARM.exidx), (8 bytes).
    Removing queues_ball.o(.ARM.exidx), (8 bytes).
    Removing queues_ball.o(.ARM.exidx), (8 bytes).
    Removing queues_ball.o(.ARM.exidx), (8 bytes).
    Removing kicker.o(.rev16_text), (4 bytes).
    Removing kicker.o(.revsh_text), (4 bytes).
    Removing kicker.o(.rrx_text), (6 bytes).
    Removing kicker.o(.ARM.exidx), (8 bytes).
    Removing kicker.o(.ARM.exidx), (8 bytes).
    Removing kicker.o(.ARM.exidx), (8 bytes).
    Removing kicker.o(.ARM.exidx), (8 bytes).
    Removing kicker.o(.ARM.exidx), (8 bytes).
    Removing kicker.o(.ARM.exidx), (8 bytes).
    Removing tsop.o(.rev16_text), (4 bytes).
    Removing tsop.o(.revsh_text), (4 bytes).
    Removing tsop.o(.rrx_text), (6 bytes).
    Removing tsop.o(i._ZN4TSOPC1Ev), (108 bytes).
    Removing tsop.o(.ARM.exidx), (8 bytes).
    Removing tsop.o(.ARM.exidx), (8 bytes).
    Removing tsop.o(.ARM.exidx), (8 bytes).
    Removing tsop.o(.ARM.exidx), (8 bytes).
    Removing tsop.o(.ARM.exidx), (8 bytes).
    Removing tsop.o(.ARM.exidx), (8 bytes).
    Removing tsop.o(.ARM.exidx), (8 bytes).
    Removing tsop.o(.ARM.exidx), (8 bytes).
    Removing tsop.o(.ARM.exidx), (8 bytes).
    Removing tsop.o(.ARM.exidx), (8 bytes).
    Removing tsop.o(.ARM.exidx), (8 bytes).
    Removing openmv.o(.rev16_text), (4 bytes).
    Removing openmv.o(.revsh_text), (4 bytes).
    Removing openmv.o(.rrx_text), (6 bytes).
    Removing openmv.o(.ARM.exidx), (8 bytes).
    Removing openmv.o(.ARM.exidx), (8 bytes).
    Removing openmv.o(.ARM.exidx), (8 bytes).
    Removing openmv.o(.ARM.exidx), (8 bytes).
    Removing openmv.o(.ARM.exidx), (8 bytes).
    Removing openmv.o(.ARM.exidx), (8 bytes).
    Removing openmv.o(.ARM.exidx), (8 bytes).
    Removing openmv.o(.ARM.exidx), (8 bytes).
    Removing openmv.o(.ARM.exidx), (8 bytes).
    Removing openmv.o(.ARM.exidx), (8 bytes).
    Removing openmv.o(.ARM.exidx), (8 bytes).
    Removing openmv.o(.ARM.exidx), (8 bytes).
    Removing openmv.o(.ARM.exidx), (8 bytes).
    Removing ir_locator.o(.rev16_text), (4 bytes).
    Removing ir_locator.o(.revsh_text), (4 bytes).
    Removing ir_locator.o(.rrx_text), (6 bytes).
    Removing ir_locator.o(i._ZN9IRLocator7getDistEv), (8 bytes).
    Removing ir_locator.o(i._ZN9IRLocator8getAngleEv), (88 bytes).
    Removing ir_locator.o(i._ZN9IRLocator8getValueEh), (128 bytes).
    Removing ir_locator.o(i._ZN9IRLocatorC1ER3I2Cj), (36 bytes).
    Removing ir_locator.o(.ARM.exidx), (8 bytes).
    Removing ir_locator.o(.ARM.exidx), (8 bytes).
    Removing ir_locator.o(.ARM.exidx), (8 bytes).
    Removing ir_locator.o(.ARM.exidx), (8 bytes).
    Removing omniplatform.o(.rev16_text), (4 bytes).
    Removing omniplatform.o(.revsh_text), (4 bytes).
    Removing omniplatform.o(.rrx_text), (6 bytes).
    Removing omniplatform.o(.ARM.exidx), (8 bytes).
    Removing omniplatform.o(.ARM.exidx), (8 bytes).
    Removing omniplatform.o(.ARM.exidx), (8 bytes).
    Removing omniplatform.o(.ARM.exidx), (8 bytes).
    Removing imu_usart.o(.rev16_text), (4 bytes).
    Removing imu_usart.o(.revsh_text), (4 bytes).
    Removing imu_usart.o(.rrx_text), (6 bytes).
    Removing imu_usart.o(.ARM.exidx), (8 bytes).
    Removing imu_usart.o(.ARM.exidx), (8 bytes).
    Removing imu_usart.o(.ARM.exidx), (8 bytes).
    Removing imu_usart.o(.ARM.exidx), (8 bytes).
    Removing imu_usart.o(.ARM.exidx), (8 bytes).
    Removing imu_usart.o(.ARM.exidx), (8 bytes).
    Removing imu_usart.o(.ARM.exidx), (8 bytes).
    Removing imu_usart.o(.ARM.exidx), (8 bytes).
    Removing imu_usart.o(.ARM.exidx), (8 bytes).
    Removing imu_usart.o(.ARM.exidx), (8 bytes).
    Removing imu_usart.o(.ARM.exidx), (8 bytes).
    Removing imu_usart.o(.ARM.exidx), (8 bytes).
    Removing imu_usart.o(.ARM.exidx), (8 bytes).
    Removing vec2b.o(.rev16_text), (4 bytes).
    Removing vec2b.o(.revsh_text), (4 bytes).
    Removing vec2b.o(.rrx_text), (6 bytes).
    Removing vec2b.o(i._ZN5Vec2b3setEdd), (10 bytes).
    Removing vec2b.o(i._ZN5Vec2bmlERKf), (70 bytes).
    Removing vec2b.o(.ARM.exidx), (8 bytes).
    Removing vec2b.o(.ARM.exidx), (8 bytes).
    Removing vec2b.o(.ARM.exidx), (8 bytes).
    Removing vec2b.o(.ARM.exidx), (8 bytes).
    Removing vec2b.o(.ARM.exidx), (8 bytes).
    Removing vec2b.o(.ARM.exidx), (8 bytes).
    Removing vec2b.o(.ARM.exidx), (8 bytes).
    Removing ballsensor.o(.rev16_text), (4 bytes).
    Removing ballsensor.o(.revsh_text), (4 bytes).
    Removing ballsensor.o(.rrx_text), (6 bytes).
    Removing ballsensor.o(.ARM.exidx), (8 bytes).
    Removing ballsensor.o(.ARM.exidx), (8 bytes).
    Removing ballsensor.o(.ARM.exidx), (8 bytes).
    Removing ballsensor.o(.ARM.exidx), (8 bytes).
    Removing voltage.o(.rev16_text), (4 bytes).
    Removing voltage.o(.revsh_text), (4 bytes).
    Removing voltage.o(.rrx_text), (6 bytes).
    Removing voltage.o(.ARM.exidx), (8 bytes).
    Removing voltage.o(.ARM.exidx), (8 bytes).
    Removing voltage.o(.ARM.exidx), (8 bytes).
    Removing button.o(.rev16_text), (4 bytes).
    Removing button.o(.revsh_text), (4 bytes).
    Removing button.o(.rrx_text), (6 bytes).
    Removing button.o(.ARM.exidx), (8 bytes).
    Removing button.o(.ARM.exidx), (8 bytes).
    Removing pin.o(.rev16_text), (4 bytes).
    Removing pin.o(.revsh_text), (4 bytes).
    Removing pin.o(.rrx_text), (6 bytes).
    Removing pin.o(i._ZN3PinC1Ev), (2 bytes).
    Removing pin.o(.ARM.exidx), (8 bytes).
    Removing pin.o(.ARM.exidx), (8 bytes).
    Removing pin.o(.ARM.exidx), (8 bytes).
    Removing pin.o(.ARM.exidx), (8 bytes).
    Removing pin.o(.ARM.exidx), (8 bytes).
    Removing pin.o(.ARM.exidx), (8 bytes).
    Removing pin.o(.ARM.exidx), (8 bytes).
    Removing pin.o(.ARM.exidx), (8 bytes).
    Removing pin.o(.ARM.exidx), (8 bytes).
    Removing pin.o(.ARM.exidx), (8 bytes).
    Removing pin.o(.ARM.exidx), (8 bytes).
    Removing pin.o(.ARM.exidx), (8 bytes).
    Removing pin.o(.ARM.exidx), (8 bytes).
    Removing pin.o(.ARM.exidx), (8 bytes).
    Removing pin.o(.ARM.exidx), (8 bytes).
    Removing pin.o(.ARM.exidx), (8 bytes).
    Removing time_service.o(.rev16_text), (4 bytes).
    Removing time_service.o(.revsh_text), (4 bytes).
    Removing time_service.o(.rrx_text), (6 bytes).
    Removing time_service.o(i._ZN12time_service8stopTimeEv), (18 bytes).
    Removing time_service.o(.ARM.exidx), (8 bytes).
    Removing time_service.o(.ARM.exidx), (8 bytes).
    Removing time_service.o(.ARM.exidx), (8 bytes).
    Removing time_service.o(.ARM.exidx), (8 bytes).
    Removing time_service.o(.ARM.exidx), (8 bytes).
    Removing time_service.o(.ARM.exidx), (8 bytes).
    Removing mpu9250_spi.o(.rev16_text), (4 bytes).
    Removing mpu9250_spi.o(.revsh_text), (4 bytes).
    Removing mpu9250_spi.o(.rrx_text), (6 bytes).
    Removing mpu9250_spi.o(i._ZN11mpu9250_spi12readFIFOsizeEv), (46 bytes).
    Removing mpu9250_spi.o(i._ZN11mpu9250_spi12setAccOffsetEiii), (88 bytes).
    Removing mpu9250_spi.o(i._ZN11mpu9250_spi12updateAnglesEdb), (1052 bytes).
    Removing mpu9250_spi.o(i._ZN11mpu9250_spi13setGyroOffsetEiii), (82 bytes).
    Removing mpu9250_spi.o(i._ZN11mpu9250_spi15read_acc_fs_selEv), (22 bytes).
    Removing mpu9250_spi.o(i._ZN11mpu9250_spi16read_gyro_fs_selEv), (22 bytes).
    Removing mpu9250_spi.o(i._ZN11mpu9250_spi20updateAnglesFromFIFOEv), (48 bytes).
    Removing mpu9250_spi.o(i._ZN11mpu9250_spi21MadgwickAHRSupdateIMUEd), (4434 bytes).
    Removing mpu9250_spi.o(i._ZN11mpu9250_spi5getXaEv), (6 bytes).
    Removing mpu9250_spi.o(i._ZN11mpu9250_spi5getXgEv), (6 bytes).
    Removing mpu9250_spi.o(i._ZN11mpu9250_spi5getYaEv), (6 bytes).
    Removing mpu9250_spi.o(i._ZN11mpu9250_spi5getYgEv), (6 bytes).
    Removing mpu9250_spi.o(i._ZN11mpu9250_spi5getZaEv), (6 bytes).
    Removing mpu9250_spi.o(i._ZN11mpu9250_spi5getZgEv), (6 bytes).
    Removing mpu9250_spi.o(i._ZN11mpu9250_spi7correctEv), (102 bytes).
    Removing mpu9250_spi.o(i._ZN11mpu9250_spi7initIMUEv), (512 bytes).
    Removing mpu9250_spi.o(i._ZN11mpu9250_spi7invSqrtEf), (64 bytes).
    Removing mpu9250_spi.o(i._ZN11mpu9250_spi7readAccEv), (258 bytes).
    Removing mpu9250_spi.o(i._ZN11mpu9250_spi7readRegEiPii), (72 bytes).
    Removing mpu9250_spi.o(i._ZN11mpu9250_spi8readFIFOEv), (640 bytes).
    Removing mpu9250_spi.o(i._ZN11mpu9250_spi8readGyroEv), (258 bytes).
    Removing mpu9250_spi.o(i._ZN11mpu9250_spi8readTempEv), (136 bytes).
    Removing mpu9250_spi.o(i._ZN11mpu9250_spi8writeRegEih), (38 bytes).
    Removing mpu9250_spi.o(i._ZN11mpu9250_spi9calibrateEi), (288 bytes).
    Removing mpu9250_spi.o(i._ZN11mpu9250_spiC1ER3Pin), (22 bytes).
    Removing mpu9250_spi.o(.ARM.exidx), (8 bytes).
    Removing mpu9250_spi.o(.ARM.exidx), (8 bytes).
    Removing mpu9250_spi.o(.ARM.exidx), (8 bytes).
    Removing mpu9250_spi.o(.ARM.exidx), (8 bytes).
    Removing mpu9250_spi.o(.ARM.exidx), (8 bytes).
    Removing mpu9250_spi.o(.ARM.exidx), (8 bytes).
    Removing mpu9250_spi.o(.ARM.exidx), (8 bytes).
    Removing mpu9250_spi.o(.ARM.exidx), (8 bytes).
    Removing mpu9250_spi.o(.ARM.exidx), (8 bytes).
    Removing mpu9250_spi.o(.ARM.exidx), (8 bytes).
    Removing mpu9250_spi.o(.ARM.exidx), (8 bytes).
    Removing mpu9250_spi.o(.ARM.exidx), (8 bytes).
    Removing mpu9250_spi.o(.ARM.exidx), (8 bytes).
    Removing mpu9250_spi.o(.ARM.exidx), (8 bytes).
    Removing mpu9250_spi.o(.ARM.exidx), (8 bytes).
    Removing mpu9250_spi.o(.ARM.exidx), (8 bytes).
    Removing mpu9250_spi.o(.ARM.exidx), (8 bytes).
    Removing mpu9250_spi.o(.ARM.exidx), (8 bytes).
    Removing mpu9250_spi.o(.ARM.exidx), (8 bytes).
    Removing mpu9250_spi.o(.ARM.exidx), (8 bytes).
    Removing mpu9250_spi.o(.ARM.exidx), (8 bytes).
    Removing mpu9250_spi.o(.ARM.exidx), (8 bytes).
    Removing mpu9250_spi.o(.ARM.exidx), (8 bytes).
    Removing mpu9250_spi.o(.ARM.exidx), (8 bytes).
    Removing mpu9250_spi.o(.ARM.exidx), (8 bytes).
    Removing imu_spi.o(.rev16_text), (4 bytes).
    Removing imu_spi.o(.revsh_text), (4 bytes).
    Removing imu_spi.o(.rrx_text), (6 bytes).
    Removing imu_spi.o(i._ZN3IMU12setZeroAngleEv), (20 bytes).
    Removing imu_spi.o(i._ZN3IMU16get_accelerationEv), (6 bytes).
    Removing imu_spi.o(i._ZN3IMU20updateAnglesFromFIFOEv), (14 bytes).
    Removing imu_spi.o(i._ZN3IMU4initEv), (60 bytes).
    Removing imu_spi.o(i._ZN3IMU5getXaEv), (14 bytes).
    Removing imu_spi.o(i._ZN3IMU5getXgEv), (14 bytes).
    Removing imu_spi.o(i._ZN3IMU5getYaEv), (14 bytes).
    Removing imu_spi.o(i._ZN3IMU5getYgEv), (14 bytes).
    Removing imu_spi.o(i._ZN3IMU5getZaEv), (14 bytes).
    Removing imu_spi.o(i._ZN3IMU5getZgEv), (14 bytes).
    Removing imu_spi.o(i._ZN3IMU6updateEv), (200 bytes).
    Removing imu_spi.o(i._ZN3IMU7acc_selEv), (14 bytes).
    Removing imu_spi.o(i._ZN3IMU8getAngleEv), (172 bytes).
    Removing imu_spi.o(i._ZN3IMU8gyro_selEv), (14 bytes).
    Removing imu_spi.o(i._ZN3IMU9calibrateEj), (18 bytes).
    Removing imu_spi.o(.ARM.exidx), (8 bytes).
    Removing imu_spi.o(.ARM.exidx), (8 bytes).
    Removing imu_spi.o(.ARM.exidx), (8 bytes).
    Removing imu_spi.o(.ARM.exidx), (8 bytes).
    Removing imu_spi.o(.ARM.exidx), (8 bytes).
    Removing imu_spi.o(.ARM.exidx), (8 bytes).
    Removing imu_spi.o(.ARM.exidx), (8 bytes).
    Removing imu_spi.o(.ARM.exidx), (8 bytes).
    Removing imu_spi.o(.ARM.exidx), (8 bytes).
    Removing imu_spi.o(.ARM.exidx), (8 bytes).
    Removing imu_spi.o(.ARM.exidx), (8 bytes).
    Removing imu_spi.o(.ARM.exidx), (8 bytes).
    Removing imu_spi.o(.ARM.exidx), (8 bytes).
    Removing imu_spi.o(.ARM.exidx), (8 bytes).
    Removing imu_spi.o(.ARM.exidx), (8 bytes).
    Removing motor.o(.rev16_text), (4 bytes).
    Removing motor.o(.revsh_text), (4 bytes).
    Removing motor.o(.rrx_text), (6 bytes).
    Removing motor.o(i._ZN5MotorC1ER3PinS1_), (34 bytes).
    Removing motor.o(.ARM.exidx), (8 bytes).
    Removing motor.o(.ARM.exidx), (8 bytes).
    Removing motor.o(.ARM.exidx), (8 bytes).
    Removing motor.o(.ARM.exidx), (8 bytes).
    Removing motor.o(.ARM.exidx), (8 bytes).
    Removing usart1.o(.rev16_text), (4 bytes).
    Removing usart1.o(.revsh_text), (4 bytes).
    Removing usart1.o(.rrx_text), (6 bytes).
    Removing usart1.o(i._ZN5uart15writeEh), (96 bytes).
    Removing usart1.o(.ARM.exidx), (8 bytes).
    Removing usart1.o(.ARM.exidx), (8 bytes).
    Removing usart1.o(.ARM.exidx), (8 bytes).
    Removing usart1.o(.ARM.exidx), (8 bytes).
    Removing usart1.o(.ARM.exidx), (8 bytes).
    Removing usart2.o(.rev16_text), (4 bytes).
    Removing usart2.o(.revsh_text), (4 bytes).
    Removing usart2.o(.rrx_text), (6 bytes).
    Removing usart2.o(i._ZN5uart25writeEh), (96 bytes).
    Removing usart2.o(.ARM.exidx), (8 bytes).
    Removing usart2.o(.ARM.exidx), (8 bytes).
    Removing usart2.o(.ARM.exidx), (8 bytes).
    Removing usart2.o(.ARM.exidx), (8 bytes).
    Removing usart2.o(.ARM.exidx), (8 bytes).
    Removing usart3.o(.rev16_text), (4 bytes).
    Removing usart3.o(.revsh_text), (4 bytes).
    Removing usart3.o(.rrx_text), (6 bytes).
    Removing usart3.o(i._ZN5uart35writeEh), (96 bytes).
    Removing usart3.o(.ARM.exidx), (8 bytes).
    Removing usart3.o(.ARM.exidx), (8 bytes).
    Removing usart3.o(.ARM.exidx), (8 bytes).
    Removing usart3.o(.ARM.exidx), (8 bytes).
    Removing usart3.o(.ARM.exidx), (8 bytes).
    Removing usart6.o(.rev16_text), (4 bytes).
    Removing usart6.o(.revsh_text), (4 bytes).
    Removing usart6.o(.rrx_text), (6 bytes).
    Removing usart6.o(i._ZN5uart65writeEh), (96 bytes).
    Removing usart6.o(.ARM.exidx), (8 bytes).
    Removing usart6.o(.ARM.exidx), (8 bytes).
    Removing usart6.o(.ARM.exidx), (8 bytes).
    Removing usart6.o(.ARM.exidx), (8 bytes).
    Removing usart6.o(.ARM.exidx), (8 bytes).
    Removing adc.o(.rev16_text), (4 bytes).
    Removing adc.o(.revsh_text), (4 bytes).
    Removing adc.o(.rrx_text), (6 bytes).
    Removing adc.o(i._ZN3Adc4readEv), (52 bytes).
    Removing adc.o(i._ZN3Adc8sendMeChEh), (22 bytes).
    Removing adc.o(i._ZN3AdcC1Ev), (2 bytes).
    Removing adc.o(.ARM.exidx), (8 bytes).
    Removing adc.o(.ARM.exidx), (8 bytes).
    Removing adc.o(.ARM.exidx), (8 bytes).
    Removing adc.o(.ARM.exidx), (8 bytes).
    Removing adc.o(.ARM.exidx), (8 bytes).
    Removing adc.o(.ARM.exidx), (8 bytes).
    Removing adc.o(.ARM.exidx), (8 bytes).
    Removing adc.o(.ARM.exidx), (8 bytes).
    Removing adc.o(.ARM.exidx), (8 bytes).
    Removing adc.o(.ARM.exidx), (8 bytes).
    Removing adc.o(.ARM.exidx), (8 bytes).
    Removing dma.o(.rev16_text), (4 bytes).
    Removing dma.o(.revsh_text), (4 bytes).
    Removing dma.o(.rrx_text), (6 bytes).
    Removing dma.o(i._ZN3Dma6setADCER3Adc), (20 bytes).
    Removing dma.o(i._ZN3DmaC1Ej), (24 bytes).
    Removing dma.o(i._ZN3DmaC1Ev), (24 bytes).
    Removing dma.o(.ARM.exidx), (8 bytes).
    Removing dma.o(.ARM.exidx), (8 bytes).
    Removing dma.o(.ARM.exidx), (8 bytes).
    Removing dma.o(.ARM.exidx), (8 bytes).
    Removing dma.o(.ARM.exidx), (8 bytes).
    Removing dma.o(.ARM.exidx), (8 bytes).
    Removing dma.o(.ARM.exidx), (8 bytes).
    Removing i2c.o(.rev16_text), (4 bytes).
    Removing i2c.o(.revsh_text), (4 bytes).
    Removing i2c.o(.rrx_text), (6 bytes).
    Removing i2c.o(i._ZN3I2C12generateStopEv), (56 bytes).
    Removing i2c.o(i._ZN3I2C13generateStartEv), (74 bytes).
    Removing i2c.o(i._ZN3I2C4readEv), (78 bytes).
    Removing i2c.o(i._ZN3I2C4sendEh), (56 bytes).
    Removing i2c.o(i._ZN3I2C5delayEv), (28 bytes).
    Removing i2c.o(i._ZN3I2C6sclLowEv), (12 bytes).
    Removing i2c.o(i._ZN3I2C6sdaLowEv), (14 bytes).
    Removing i2c.o(i._ZN3I2C7readAchEv), (68 bytes).
    Removing i2c.o(i._ZN3I2C7sclHighEv), (12 bytes).
    Removing i2c.o(i._ZN3I2C7sclReadEv), (34 bytes).
    Removing i2c.o(i._ZN3I2C7sdaHighEv), (14 bytes).
    Removing i2c.o(i._ZN3I2C7sdaReadEv), (34 bytes).
    Removing i2c.o(i._ZN3I2C7sendAchEv), (54 bytes).
    Removing i2c.o(i._ZN3I2C8sendNachEv), (54 bytes).
    Removing i2c.o(i._ZN3I2C8writeBitEb), (60 bytes).
    Removing i2c.o(i._ZN3I2CC1ER3PinS1_), (34 bytes).
    Removing i2c.o(.ARM.exidx), (8 bytes).
    Removing i2c.o(.ARM.exidx), (8 bytes).
    Removing i2c.o(.ARM.exidx), (8 bytes).
    Removing i2c.o(.ARM.exidx), (8 bytes).
    Removing i2c.o(.ARM.exidx), (8 bytes).
    Removing i2c.o(.ARM.exidx), (8 bytes).
    Removing i2c.o(.ARM.exidx), (8 bytes).
    Removing i2c.o(.ARM.exidx), (8 bytes).
    Removing i2c.o(.ARM.exidx), (8 bytes).
    Removing i2c.o(.ARM.exidx), (8 bytes).
    Removing i2c.o(.ARM.exidx), (8 bytes).
    Removing i2c.o(.ARM.exidx), (8 bytes).
    Removing i2c.o(.ARM.exidx), (8 bytes).
    Removing i2c.o(.ARM.exidx), (8 bytes).
    Removing i2c.o(.ARM.exidx), (8 bytes).
    Removing i2c.o(.ARM.exidx), (8 bytes).
    Removing spi_dot.o(.rev16_text), (4 bytes).
    Removing spi_dot.o(.revsh_text), (4 bytes).
    Removing spi_dot.o(.rrx_text), (6 bytes).
    Removing spi_dot.o(i._Z8initSPI2bht), (284 bytes).
    Removing spi_dot.o(i._Z8writeSPIt), (40 bytes).
    Removing spi_dot.o(.ARM.exidx), (8 bytes).
    Removing spi_dot.o(.ARM.exidx), (8 bytes).
    Removing spi_dot.o(.data), (7 bytes).
    Removing spi_1.o(.rev16_text), (4 bytes).
    Removing spi_1.o(.revsh_text), (4 bytes).
    Removing spi_1.o(.rrx_text), (6 bytes).
    Removing spi_1.o(i._ZN5SPI_14initEiiii), (404 bytes).
    Removing spi_1.o(i._ZN5SPI_14readEv), (76 bytes).
    Removing spi_1.o(i._ZN5SPI_14sendEt), (56 bytes).
    Removing spi_1.o(i._ZN5SPI_19availableEv), (12 bytes).
    Removing spi_1.o(.ARM.exidx), (8 bytes).
    Removing spi_1.o(.ARM.exidx), (8 bytes).
    Removing spi_1.o(.ARM.exidx), (8 bytes).
    Removing spi_1.o(.ARM.exidx), (8 bytes).
    Removing spi_1.o(.ARM.exidx), (8 bytes).
    Removing retarget.o(.rev16_text), (4 bytes).
    Removing retarget.o(.revsh_text), (4 bytes).
    Removing retarget.o(.rrx_text), (6 bytes).
    Removing retarget.o(i._Z12ITM_SendCharj), (48 bytes).
    Removing retarget.o(i.__aeabi_atexit), (4 bytes).
    Removing retarget.o(i._sys_command_string), (6 bytes).
    Removing retarget.o(i._ttywrch), (12 bytes).
    Removing retarget.o(i.ferror), (8 bytes).
    Removing retarget.o(i.fgetc), (6 bytes).
    Removing retarget.o(i.fputc), (14 bytes).
    Removing retarget.o(.ARM.exidx), (8 bytes).
    Removing retarget.o(.ARM.exidx), (8 bytes).
    Removing retarget.o(.ARM.exidx), (8 bytes).
    Removing retarget.o(.ARM.exidx), (8 bytes).
    Removing retarget.o(.ARM.exidx), (8 bytes).
    Removing retarget.o(.ARM.exidx), (8 bytes).
    Removing retarget.o(.ARM.exidx), (8 bytes).
    Removing retarget.o(.ARM.exidx), (8 bytes).
    Removing retarget.o(.data), (12 bytes).
    Removing misc.o(.rev16_text), (4 bytes).
    Removing misc.o(.revsh_text), (4 bytes).
    Removing misc.o(.rrx_text), (6 bytes).
    Removing misc.o(i.NVIC_Init), (120 bytes).
    Removing misc.o(i.NVIC_PriorityGroupConfig), (20 bytes).
    Removing misc.o(i.NVIC_SetVectorTable), (20 bytes).
    Removing misc.o(i.NVIC_SystemLPConfig), (32 bytes).
    Removing misc.o(i.SysTick_CLKSownceConfig), (40 bytes).
    Removing stm32f4xx_adc.o(.rev16_text), (4 bytes).
    Removing stm32f4xx_adc.o(.revsh_text), (4 bytes).
    Removing stm32f4xx_adc.o(.rrx_text), (6 bytes).
    Removing stm32f4xx_adc.o(i.ADC_AnalogWatchdogCmd), (20 bytes).
    Removing stm32f4xx_adc.o(i.ADC_AnalogWatchdogSingleChannelConfig), (16 bytes).
    Removing stm32f4xx_adc.o(i.ADC_AnalogWatchdogThresholdsConfig), (6 bytes).
    Removing stm32f4xx_adc.o(i.ADC_AutoInjectedConvCmd), (22 bytes).
    Removing stm32f4xx_adc.o(i.ADC_ClearFlag), (6 bytes).
    Removing stm32f4xx_adc.o(i.ADC_ClearITPendingBit), (10 bytes).
    Removing stm32f4xx_adc.o(i.ADC_CommonStructInit), (12 bytes).
    Removing stm32f4xx_adc.o(i.ADC_ContinuousModeCmd), (22 bytes).
    Removing stm32f4xx_adc.o(i.ADC_DeInit), (22 bytes).
    Removing stm32f4xx_adc.o(i.ADC_DiscModeChannelCountConfig), (24 bytes).
    Removing stm32f4xx_adc.o(i.ADC_DiscModeCmd), (22 bytes).
    Removing stm32f4xx_adc.o(i.ADC_ExternalTrigInjectedConvConfig), (16 bytes).
    Removing stm32f4xx_adc.o(i.ADC_ExternalTrigInjectedConvEdgeConfig), (16 bytes).
    Removing stm32f4xx_adc.o(i.ADC_GetConversionValue), (8 bytes).
    Removing stm32f4xx_adc.o(i.ADC_GetFlagStatus), (18 bytes).
    Removing stm32f4xx_adc.o(i.ADC_GetITStatus), (38 bytes).
    Removing stm32f4xx_adc.o(i.ADC_GetInjectedConversionValue), (28 bytes).
    Removing stm32f4xx_adc.o(i.ADC_GetMultiModeConversionValue), (12 bytes).
    Removing stm32f4xx_adc.o(i.ADC_GetSoftwareStartConvStatus), (20 bytes).
    Removing stm32f4xx_adc.o(i.ADC_GetSoftwareStartInjectedConvCmdStatus), (20 bytes).
    Removing stm32f4xx_adc.o(i.ADC_ITConfig), (32 bytes).
    Removing stm32f4xx_adc.o(i.ADC_InjectedChannelConfig), (130 bytes).
    Removing stm32f4xx_adc.o(i.ADC_InjectedDiscModeCmd), (22 bytes).
    Removing stm32f4xx_adc.o(i.ADC_InjectedSequencerLengthConfig), (24 bytes).
    Removing stm32f4xx_adc.o(i.ADC_MultiModeDMARequestAfterLastTransferCmd), (44 bytes).
    Removing stm32f4xx_adc.o(i.ADC_SetInjectedOffset), (20 bytes).
    Removing stm32f4xx_adc.o(i.ADC_SoftwareStartInjectedConv), (10 bytes).
    Removing stm32f4xx_adc.o(i.ADC_StructInit), (20 bytes).
    Removing stm32f4xx_adc.o(i.ADC_TempSensorVrefintCmd), (44 bytes).
    Removing stm32f4xx_adc.o(i.ADC_VBATCmd), (44 bytes).
    Removing stm32f4xx_crc.o(.rev16_text), (4 bytes).
    Removing stm32f4xx_crc.o(.revsh_text), (4 bytes).
    Removing stm32f4xx_crc.o(.rrx_text), (6 bytes).
    Removing stm32f4xx_crc.o(i.CRC_CalcBlockCRC), (36 bytes).
    Removing stm32f4xx_crc.o(i.CRC_CalcCRC), (16 bytes).
    Removing stm32f4xx_crc.o(i.CRC_GetCRC), (12 bytes).
    Removing stm32f4xx_crc.o(i.CRC_GetIDRegister), (12 bytes).
    Removing stm32f4xx_crc.o(i.CRC_ResetDR), (12 bytes).
    Removing stm32f4xx_crc.o(i.CRC_SetIDRegister), (12 bytes).
    Removing stm32f4xx_flash.o(.rev16_text), (4 bytes).
    Removing stm32f4xx_flash.o(.revsh_text), (4 bytes).
    Removing stm32f4xx_flash.o(.rrx_text), (6 bytes).
    Removing stm32f4xx_flash.o(i.FLASH_ClearFlag), (12 bytes).
    Removing stm32f4xx_flash.o(i.FLASH_DataCacheCmd), (36 bytes).
    Removing stm32f4xx_flash.o(i.FLASH_DataCacheReset), (20 bytes).
    Removing stm32f4xx_flash.o(i.FLASH_EraseAllBank1Sectors), (108 bytes).
    Removing stm32f4xx_flash.o(i.FLASH_EraseAllBank2Sectors), (108 bytes).
    Removing stm32f4xx_flash.o(i.FLASH_EraseAllSectors), (108 bytes).
    Removing stm32f4xx_flash.o(i.FLASH_EraseSector), (136 bytes).
    Removing stm32f4xx_flash.o(i.FLASH_GetFlagStatus), (24 bytes).
    Removing stm32f4xx_flash.o(i.FLASH_GetStatus), (84 bytes).
    Removing stm32f4xx_flash.o(i.FLASH_ITConfig), (32 bytes).
    Removing stm32f4xx_flash.o(i.FLASH_InstructionCacheCmd), (36 bytes).
    Removing stm32f4xx_flash.o(i.FLASH_InstructionCacheReset), (20 bytes).
    Removing stm32f4xx_flash.o(i.FLASH_Lock), (20 bytes).
    Removing stm32f4xx_flash.o(i.FLASH_OB_BORConfig), (28 bytes).
    Removing stm32f4xx_flash.o(i.FLASH_OB_BootConfig), (28 bytes).
    Removing stm32f4xx_flash.o(i.FLASH_OB_GetBOR), (16 bytes).
    Removing stm32f4xx_flash.o(i.FLASH_OB_GetPCROP), (12 bytes).
    Removing stm32f4xx_flash.o(i.FLASH_OB_GetPCROP1), (12 bytes).
    Removing stm32f4xx_flash.o(i.FLASH_OB_GetRDP), (24 bytes).
    Removing stm32f4xx_flash.o(i.FLASH_OB_GetUser), (16 bytes).
    Removing stm32f4xx_flash.o(i.FLASH_OB_GetWRP), (12 bytes).
    Removing stm32f4xx_flash.o(i.FLASH_OB_GetWRP1), (12 bytes).
    Removing stm32f4xx_flash.o(i.FLASH_OB_Launch), (32 bytes).
    Removing stm32f4xx_flash.o(i.FLASH_OB_Lock), (20 bytes).
    Removing stm32f4xx_flash.o(i.FLASH_OB_PCROP1Config), (52 bytes).
    Removing stm32f4xx_flash.o(i.FLASH_OB_PCROPConfig), (52 bytes).
    Removing stm32f4xx_flash.o(i.FLASH_OB_PCROPSelectionConfig), (24 bytes).
    Removing stm32f4xx_flash.o(i.FLASH_OB_RDPConfig), (28 bytes).
    Removing stm32f4xx_flash.o(i.FLASH_OB_Unlock), (36 bytes).
    Removing stm32f4xx_flash.o(i.FLASH_OB_UserConfig), (48 bytes).
    Removing stm32f4xx_flash.o(i.FLASH_OB_WRP1Config), (52 bytes).
    Removing stm32f4xx_flash.o(i.FLASH_OB_WRPConfig), (52 bytes).
    Removing stm32f4xx_flash.o(i.FLASH_PrefetchBufferCmd), (36 bytes).
    Removing stm32f4xx_flash.o(i.FLASH_ProgramByte), (76 bytes).
    Removing stm32f4xx_flash.o(i.FLASH_ProgramDoubleWord), (84 bytes).
    Removing stm32f4xx_flash.o(i.FLASH_ProgramHalfWord), (80 bytes).
    Removing stm32f4xx_flash.o(i.FLASH_ProgramWord), (80 bytes).
    Removing stm32f4xx_flash.o(i.FLASH_SetLatency), (12 bytes).
    Removing stm32f4xx_flash.o(i.FLASH_Unlock), (36 bytes).
    Removing stm32f4xx_flash.o(i.FLASH_WaitForLastOperation), (34 bytes).
    Removing stm32f4xx_dac.o(.rev16_text), (4 bytes).
    Removing stm32f4xx_dac.o(.revsh_text), (4 bytes).
    Removing stm32f4xx_dac.o(.rrx_text), (6 bytes).
    Removing stm32f4xx_dac.o(i.DAC_ClearFlag), (16 bytes).
    Removing stm32f4xx_dac.o(i.DAC_ClearITPendingBit), (16 bytes).
    Removing stm32f4xx_dac.o(i.DAC_Cmd), (40 bytes).
    Removing stm32f4xx_dac.o(i.DAC_DMACmd), (44 bytes).
    Removing stm32f4xx_dac.o(i.DAC_DeInit), (22 bytes).
    Removing stm32f4xx_dac.o(i.DAC_DualSoftwareTriggerCmd), (36 bytes).
    Removing stm32f4xx_dac.o(i.DAC_GetDataOutputValue), (36 bytes).
    Removing stm32f4xx_dac.o(i.DAC_GetFlagStatus), (32 bytes).
    Removing stm32f4xx_dac.o(i.DAC_GetITStatus), (48 bytes).
    Removing stm32f4xx_dac.o(i.DAC_ITConfig), (40 bytes).
    Removing stm32f4xx_dac.o(i.DAC_Init), (52 bytes).
    Removing stm32f4xx_dac.o(i.DAC_SetChannel1Data), (32 bytes).
    Removing stm32f4xx_dac.o(i.DAC_SetChannel2Data), (32 bytes).
    Removing stm32f4xx_dac.o(i.DAC_SetDualChannelData), (36 bytes).
    Removing stm32f4xx_dac.o(i.DAC_SoftwareTriggerCmd), (44 bytes).
    Removing stm32f4xx_dac.o(i.DAC_StructInit), (12 bytes).
    Removing stm32f4xx_dac.o(i.DAC_WaveGenerationCmd), (40 bytes).
    Removing stm32f4xx_dma.o(.rev16_text), (4 bytes).
    Removing stm32f4xx_dma.o(.revsh_text), (4 bytes).
    Removing stm32f4xx_dma.o(.rrx_text), (6 bytes).
    Removing stm32f4xx_dma.o(i.DMA_ClearFlag), (52 bytes).
    Removing stm32f4xx_dma.o(i.DMA_ClearITPendingBit), (52 bytes).
    Removing stm32f4xx_dma.o(i.DMA_DoubleBufferModeCmd), (22 bytes).
    Removing stm32f4xx_dma.o(i.DMA_DoubleBufferModeConfig), (24 bytes).
    Removing stm32f4xx_dma.o(i.DMA_FlowControllerConfig), (22 bytes).
    Removing stm32f4xx_dma.o(i.DMA_GetCmdStatus), (20 bytes).
    Removing stm32f4xx_dma.o(i.DMA_GetCurrDataCounter), (8 bytes).
    Removing stm32f4xx_dma.o(i.DMA_GetCurrentMemoryTarget), (20 bytes).
    Removing stm32f4xx_dma.o(i.DMA_GetFIFOStatus), (12 bytes).
    Removing stm32f4xx_dma.o(i.DMA_GetFlagStatus), (68 bytes).
    Removing stm32f4xx_dma.o(i.DMA_GetITStatus), (100 bytes).
    Removing stm32f4xx_dma.o(i.DMA_ITConfig), (58 bytes).
    Removing stm32f4xx_dma.o(i.DMA_MemoryTargetConfig), (10 bytes).
    Removing stm32f4xx_dma.o(i.DMA_PeriphIncOffsetSizeConfig), (22 bytes).
    Removing stm32f4xx_dma.o(i.DMA_SetCurrDataCounter), (4 bytes).
    Removing stm32f4xx_dma.o(i.DMA_StructInit), (34 bytes).
    Removing stm32f4xx_gpio.o(.rev16_text), (4 bytes).
    Removing stm32f4xx_gpio.o(.revsh_text), (4 bytes).
    Removing stm32f4xx_gpio.o(.rrx_text), (6 bytes).
    Removing stm32f4xx_gpio.o(i.GPIO_DeInit), (312 bytes).
    Removing stm32f4xx_gpio.o(i.GPIO_PinLockConfig), (34 bytes).
    Removing stm32f4xx_gpio.o(i.GPIO_ReadInputDataBit), (18 bytes).
    Removing stm32f4xx_gpio.o(i.GPIO_ReadOutputData), (8 bytes).
    Removing stm32f4xx_gpio.o(i.GPIO_ReadOutputDataBit), (18 bytes).
    Removing stm32f4xx_gpio.o(i.GPIO_StructInit), (18 bytes).
    Removing stm32f4xx_gpio.o(i.GPIO_ToggleBits), (8 bytes).
    Removing stm32f4xx_gpio.o(i.GPIO_Write), (4 bytes).
    Removing stm32f4xx_gpio.o(i.GPIO_WriteBit), (10 bytes).
    Removing stm32f4xx_i2c.o(.rev16_text), (4 bytes).
    Removing stm32f4xx_i2c.o(.revsh_text), (4 bytes).
    Removing stm32f4xx_i2c.o(.rrx_text), (6 bytes).
    Removing stm32f4xx_i2c.o(i.I2C_ARPCmd), (24 bytes).
    Removing stm32f4xx_i2c.o(i.I2C_AcknowledgeConfig), (24 bytes).
    Removing stm32f4xx_i2c.o(i.I2C_AnalogFilterCmd), (24 bytes).
    Removing stm32f4xx_i2c.o(i.I2C_CalculatePEC), (24 bytes).
    Removing stm32f4xx_i2c.o(i.I2C_CheckEvent), (42 bytes).
    Removing stm32f4xx_i2c.o(i.I2C_ClearFlag), (12 bytes).
    Removing stm32f4xx_i2c.o(i.I2C_ClearITPendingBit), (12 bytes).
    Removing stm32f4xx_i2c.o(i.I2C_Cmd), (24 bytes).
    Removing stm32f4xx_i2c.o(i.I2C_DMACmd), (24 bytes).
    Removing stm32f4xx_i2c.o(i.I2C_DMALastTransferCmd), (24 bytes).
    Removing stm32f4xx_i2c.o(i.I2C_DeInit), (96 bytes).
    Removing stm32f4xx_i2c.o(i.I2C_DigitalFilterConfig), (22 bytes).
    Removing stm32f4xx_i2c.o(i.I2C_DualAddressCmd), (24 bytes).
    Removing stm32f4xx_i2c.o(i.I2C_FastModeDutyCycleConfig), (28 bytes).
    Removing stm32f4xx_i2c.o(i.I2C_GeneralCallCmd), (24 bytes).
    Removing stm32f4xx_i2c.o(i.I2C_GenerateSTART), (24 bytes).
    Removing stm32f4xx_i2c.o(i.I2C_GenerateSTOP), (24 bytes).
    Removing stm32f4xx_i2c.o(i.I2C_GetFlagStatus), (58 bytes).
    Removing stm32f4xx_i2c.o(i.I2C_GetITStatus), (38 bytes).
    Removing stm32f4xx_i2c.o(i.I2C_GetLastEvent), (26 bytes).
    Removing stm32f4xx_i2c.o(i.I2C_GetPEC), (8 bytes).
    Removing stm32f4xx_i2c.o(i.I2C_ITConfig), (18 bytes).
    Removing stm32f4xx_i2c.o(i.I2C_Init), (232 bytes).
    Removing stm32f4xx_i2c.o(i.I2C_NACKPositionConfig), (28 bytes).
    Removing stm32f4xx_i2c.o(i.I2C_OwnAddress2Config), (22 bytes).
    Removing stm32f4xx_i2c.o(i.I2C_PECPositionConfig), (28 bytes).
    Removing stm32f4xx_i2c.o(i.I2C_ReadRegister), (22 bytes).
    Removing stm32f4xx_i2c.o(i.I2C_ReceiveData), (8 bytes).
    Removing stm32f4xx_i2c.o(i.I2C_SMBusAlertConfig), (28 bytes).
    Removing stm32f4xx_i2c.o(i.I2C_Send7bitAddress), (16 bytes).
    Removing stm32f4xx_i2c.o(i.I2C_SendData), (4 bytes).
    Removing stm32f4xx_i2c.o(i.I2C_SoftwareResetCmd), (22 bytes).
    Removing stm32f4xx_i2c.o(i.I2C_StretchClockCmd), (24 bytes).
    Removing stm32f4xx_i2c.o(i.I2C_StructInit), (30 bytes).
    Removing stm32f4xx_i2c.o(i.I2C_TransmitPEC), (24 bytes).
    Removing stm32f4xx_rcc.o(.rev16_text), (4 bytes).
    Removing stm32f4xx_rcc.o(.revsh_text), (4 bytes).
    Removing stm32f4xx_rcc.o(.rrx_text), (6 bytes).
    Removing stm32f4xx_rcc.o(i.RCC_AHB1PeriphClockLPModeCmd), (32 bytes).
    Removing stm32f4xx_rcc.o(i.RCC_AHB1PeriphResetCmd), (32 bytes).
    Removing stm32f4xx_rcc.o(i.RCC_AHB2PeriphClockCmd), (32 bytes).
    Removing stm32f4xx_rcc.o(i.RCC_AHB2PeriphClockLPModeCmd), (32 bytes).
    Removing stm32f4xx_rcc.o(i.RCC_AHB2PeriphResetCmd), (32 bytes).
    Removing stm32f4xx_rcc.o(i.RCC_AHB3PeriphClockCmd), (32 bytes).
    Removing stm32f4xx_rcc.o(i.RCC_AHB3PeriphClockLPModeCmd), (32 bytes).
    Removing stm32f4xx_rcc.o(i.RCC_AHB3PeriphResetCmd), (32 bytes).
    Removing stm32f4xx_rcc.o(i.RCC_APB1PeriphClockLPModeCmd), (32 bytes).
    Removing stm32f4xx_rcc.o(i.RCC_APB1PeriphResetCmd), (32 bytes).
    Removing stm32f4xx_rcc.o(i.RCC_APB2PeriphClockLPModeCmd), (32 bytes).
    Removing stm32f4xx_rcc.o(i.RCC_APB2PeriphResetCmd), (32 bytes).
    Removing stm32f4xx_rcc.o(i.RCC_AdjustHSICalibrationValue), (24 bytes).
    Removing stm32f4xx_rcc.o(i.RCC_BackupResetCmd), (12 bytes).
    Removing stm32f4xx_rcc.o(i.RCC_ClearFlag), (20 bytes).
    Removing stm32f4xx_rcc.o(i.RCC_ClearITPendingBit), (12 bytes).
    Removing stm32f4xx_rcc.o(i.RCC_ClockSecuritySystemCmd), (12 bytes).
    Removing stm32f4xx_rcc.o(i.RCC_DeInit), (100 bytes).
    Removing stm32f4xx_rcc.o(i.RCC_GetFlagStatus), (64 bytes).
    Removing stm32f4xx_rcc.o(i.RCC_GetITStatus), (24 bytes).
    Removing stm32f4xx_rcc.o(i.RCC_GetSYSCLKSownce), (16 bytes).
    Removing stm32f4xx_rcc.o(i.RCC_HCLKConfig), (24 bytes).
    Removing stm32f4xx_rcc.o(i.RCC_HSEConfig), (16 bytes).
    Removing stm32f4xx_rcc.o(i.RCC_HSICmd), (12 bytes).
    Removing stm32f4xx_rcc.o(i.RCC_I2SCLKConfig), (12 bytes).
    Removing stm32f4xx_rcc.o(i.RCC_ITConfig), (32 bytes).
    Removing stm32f4xx_rcc.o(i.RCC_LSEConfig), (44 bytes).
    Removing stm32f4xx_rcc.o(i.RCC_LSEModeConfig), (36 bytes).
    Removing stm32f4xx_rcc.o(i.RCC_LSICmd), (12 bytes).
    Removing stm32f4xx_rcc.o(i.RCC_LTDCCLKDivConfig), (24 bytes).
    Removing stm32f4xx_rcc.o(i.RCC_MCO1Config), (28 bytes).
    Removing stm32f4xx_rcc.o(i.RCC_MCO2Config), (28 bytes).
    Removing stm32f4xx_rcc.o(i.RCC_PCLK1Config), (24 bytes).
    Removing stm32f4xx_rcc.o(i.RCC_PCLK2Config), (24 bytes).
    Removing stm32f4xx_rcc.o(i.RCC_PLLCmd), (12 bytes).
    Removing stm32f4xx_rcc.o(i.RCC_PLLConfig), (36 bytes).
    Removing stm32f4xx_rcc.o(i.RCC_PLLI2SCmd), (12 bytes).
    Removing stm32f4xx_rcc.o(i.RCC_PLLI2SConfig), (16 bytes).
    Removing stm32f4xx_rcc.o(i.RCC_PLLSAICmd), (12 bytes).
    Removing stm32f4xx_rcc.o(i.RCC_PLLSAIConfig), (24 bytes).
    Removing stm32f4xx_rcc.o(i.RCC_RTCCLKCmd), (12 bytes).
    Removing stm32f4xx_rcc.o(i.RCC_RTCCLKConfig), (60 bytes).
    Removing stm32f4xx_rcc.o(i.RCC_SAIBlockACLKConfig), (24 bytes).
    Removing stm32f4xx_rcc.o(i.RCC_SAIBlockBCLKConfig), (24 bytes).
    Removing stm32f4xx_rcc.o(i.RCC_SAIPLLI2SClkDivConfig), (28 bytes).
    Removing stm32f4xx_rcc.o(i.RCC_SAIPLLSAIClkDivConfig), (28 bytes).
    Removing stm32f4xx_rcc.o(i.RCC_SYSCLKConfig), (24 bytes).
    Removing stm32f4xx_rcc.o(i.RCC_TIMCLKPresConfig), (12 bytes).
    Removing stm32f4xx_rcc.o(i.RCC_WaitForHSEStartUp), (56 bytes).
    Removing stm32f4xx_spi.o(.rev16_text), (4 bytes).
    Removing stm32f4xx_spi.o(.revsh_text), (4 bytes).
    Removing stm32f4xx_spi.o(.rrx_text), (6 bytes).
    Removing stm32f4xx_spi.o(i.I2S_Cmd), (24 bytes).
    Removing stm32f4xx_spi.o(i.I2S_FullDuplexConfig), (80 bytes).
    Removing stm32f4xx_spi.o(i.I2S_Init), (408 bytes).
    Removing stm32f4xx_spi.o(i.I2S_StructInit), (20 bytes).
    Removing stm32f4xx_spi.o(i.SPI_BiDirectionalLineConfig), (28 bytes).
    Removing stm32f4xx_spi.o(i.SPI_CalculateCRC), (24 bytes).
    Removing stm32f4xx_spi.o(i.SPI_Cmd), (24 bytes).
    Removing stm32f4xx_spi.o(i.SPI_DataSizeConfig), (18 bytes).
    Removing stm32f4xx_spi.o(i.SPI_GetCRC), (16 bytes).
    Removing stm32f4xx_spi.o(i.SPI_GetCRCPolynomial), (6 bytes).
    Removing stm32f4xx_spi.o(i.SPI_I2S_ClearFlag), (6 bytes).
    Removing stm32f4xx_spi.o(i.SPI_I2S_ClearITPendingBit), (20 bytes).
    Removing stm32f4xx_spi.o(i.SPI_I2S_DMACmd), (18 bytes).
    Removing stm32f4xx_spi.o(i.SPI_I2S_DeInit), (176 bytes).
    Removing stm32f4xx_spi.o(i.SPI_I2S_GetITStatus), (52 bytes).
    Removing stm32f4xx_spi.o(i.SPI_I2S_ITConfig), (32 bytes).
    Removing stm32f4xx_spi.o(i.SPI_I2S_ReceiveData), (6 bytes).
    Removing stm32f4xx_spi.o(i.SPI_I2S_SendData), (4 bytes).
    Removing stm32f4xx_spi.o(i.SPI_Init), (60 bytes).
    Removing stm32f4xx_spi.o(i.SPI_NSSInternalSoftwareConfig), (30 bytes).
    Removing stm32f4xx_spi.o(i.SPI_SSOutputCmd), (24 bytes).
    Removing stm32f4xx_spi.o(i.SPI_StructInit), (24 bytes).
    Removing stm32f4xx_spi.o(i.SPI_TIModeCmd), (24 bytes).
    Removing stm32f4xx_spi.o(i.SPI_TransmitCRC), (10 bytes).
    Removing stm32f4xx_tim.o(.rev16_text), (4 bytes).
    Removing stm32f4xx_tim.o(.revsh_text), (4 bytes).
    Removing stm32f4xx_tim.o(.rrx_text), (6 bytes).
    Removing stm32f4xx_tim.o(i.TI1_Config), (58 bytes).
    Removing stm32f4xx_tim.o(i.TI2_Config), (80 bytes).
    Removing stm32f4xx_tim.o(i.TI3_Config), (72 bytes).
    Removing stm32f4xx_tim.o(i.TI4_Config), (80 bytes).
    Removing stm32f4xx_tim.o(i.TIM_ARRPreloadConfig), (24 bytes).
    Removing stm32f4xx_tim.o(i.TIM_BDTRStructInit), (18 bytes).
    Removing stm32f4xx_tim.o(i.TIM_CCPreloadControl), (24 bytes).
    Removing stm32f4xx_tim.o(i.TIM_CCxCmd), (30 bytes).
    Removing stm32f4xx_tim.o(i.TIM_CCxNCmd), (30 bytes).
    Removing stm32f4xx_tim.o(i.TIM_ClearFlag), (6 bytes).
    Removing stm32f4xx_tim.o(i.TIM_ClearITPendingBit), (6 bytes).
    Removing stm32f4xx_tim.o(i.TIM_ClearOC1Ref), (18 bytes).
    Removing stm32f4xx_tim.o(i.TIM_ClearOC2Ref), (24 bytes).
    Removing stm32f4xx_tim.o(i.TIM_ClearOC3Ref), (18 bytes).
    Removing stm32f4xx_tim.o(i.TIM_ClearOC4Ref), (24 bytes).
    Removing stm32f4xx_tim.o(i.TIM_CounterModeConfig), (18 bytes).
    Removing stm32f4xx_tim.o(i.TIM_DMACmd), (18 bytes).
    Removing stm32f4xx_tim.o(i.TIM_DMAConfig), (10 bytes).
    Removing stm32f4xx_tim.o(i.TIM_DeInit), (400 bytes).
    Removing stm32f4xx_tim.o(i.TIM_ETRClockMode1Config), (54 bytes).
    Removing stm32f4xx_tim.o(i.TIM_ETRClockMode2Config), (32 bytes).
    Removing stm32f4xx_tim.o(i.TIM_ETRConfig), (28 bytes).
    Removing stm32f4xx_tim.o(i.TIM_EncoderInterfaceConfig), (66 bytes).
    Removing stm32f4xx_tim.o(i.TIM_ForcedOC1Config), (18 bytes).
    Removing stm32f4xx_tim.o(i.TIM_ForcedOC2Config), (26 bytes).
    Removing stm32f4xx_tim.o(i.TIM_ForcedOC3Config), (18 bytes).
    Removing stm32f4xx_tim.o(i.TIM_ForcedOC4Config), (26 bytes).
    Removing stm32f4xx_tim.o(i.TIM_GenerateEvent), (4 bytes).
    Removing stm32f4xx_tim.o(i.TIM_GetCapture1), (6 bytes).
    Removing stm32f4xx_tim.o(i.TIM_GetCapture2), (6 bytes).
    Removing stm32f4xx_tim.o(i.TIM_GetCapture3), (6 bytes).
    Removing stm32f4xx_tim.o(i.TIM_GetCapture4), (6 bytes).
    Removing stm32f4xx_tim.o(i.TIM_GetCounter), (6 bytes).
    Removing stm32f4xx_tim.o(i.TIM_GetFlagStatus), (18 bytes).
    Removing stm32f4xx_tim.o(i.TIM_GetITStatus), (34 bytes).
    Removing stm32f4xx_tim.o(i.TIM_GetPrescaler), (6 bytes).
    Removing stm32f4xx_tim.o(i.TIM_ICInit), (110 bytes).
    Removing stm32f4xx_tim.o(i.TIM_ICStructInit), (18 bytes).
    Removing stm32f4xx_tim.o(i.TIM_ITConfig), (18 bytes).
    Removing stm32f4xx_tim.o(i.TIM_ITRxExternalClockConfig), (24 bytes).
    Removing stm32f4xx_tim.o(i.TIM_InternalClockConfig), (12 bytes).
    Removing stm32f4xx_tim.o(i.TIM_OC1FastConfig), (18 bytes).
    Removing stm32f4xx_tim.o(i.TIM_OC1NPolarityConfig), (18 bytes).
    Removing stm32f4xx_tim.o(i.TIM_OC1PolarityConfig), (18 bytes).
    Removing stm32f4xx_tim.o(i.TIM_OC1PreloadConfig), (18 bytes).
    Removing stm32f4xx_tim.o(i.TIM_OC2FastConfig), (26 bytes).
    Removing stm32f4xx_tim.o(i.TIM_OC2NPolarityConfig), (26 bytes).
    Removing stm32f4xx_tim.o(i.TIM_OC2PolarityConfig), (26 bytes).
    Removing stm32f4xx_tim.o(i.TIM_OC2PreloadConfig), (26 bytes).
    Removing stm32f4xx_tim.o(i.TIM_OC3FastConfig), (18 bytes).
    Removing stm32f4xx_tim.o(i.TIM_OC3NPolarityConfig), (26 bytes).
    Removing stm32f4xx_tim.o(i.TIM_OC3PolarityConfig), (26 bytes).
    Removing stm32f4xx_tim.o(i.TIM_OC3PreloadConfig), (18 bytes).
    Removing stm32f4xx_tim.o(i.TIM_OC4FastConfig), (26 bytes).
    Removing stm32f4xx_tim.o(i.TIM_OC4PolarityConfig), (26 bytes).
    Removing stm32f4xx_tim.o(i.TIM_OC4PreloadConfig), (26 bytes).
    Removing stm32f4xx_tim.o(i.TIM_OCStructInit), (20 bytes).
    Removing stm32f4xx_tim.o(i.TIM_PWMIConfig), (124 bytes).
    Removing stm32f4xx_tim.o(i.TIM_PrescalerConfig), (6 bytes).
    Removing stm32f4xx_tim.o(i.TIM_RemapConfig), (6 bytes).
    Removing stm32f4xx_tim.o(i.TIM_SelectCCDMA), (24 bytes).
    Removing stm32f4xx_tim.o(i.TIM_SelectCOM), (24 bytes).
    Removing stm32f4xx_tim.o(i.TIM_SelectHallSensor), (24 bytes).
    Removing stm32f4xx_tim.o(i.TIM_SelectInputTrigger), (18 bytes).
    Removing stm32f4xx_tim.o(i.TIM_SelectMasterSlaveMode), (18 bytes).
    Removing stm32f4xx_tim.o(i.TIM_SelectOCxM), (86 bytes).
    Removing stm32f4xx_tim.o(i.TIM_SelectOnePulseMode), (18 bytes).
    Removing stm32f4xx_tim.o(i.TIM_SelectOutputTrigger), (18 bytes).
    Removing stm32f4xx_tim.o(i.TIM_SelectSlaveMode), (18 bytes).
    Removing stm32f4xx_tim.o(i.TIM_SetAutoreload), (4 bytes).
    Removing stm32f4xx_tim.o(i.TIM_SetClockDivision), (18 bytes).
    Removing stm32f4xx_tim.o(i.TIM_SetCounter), (4 bytes).
    Removing stm32f4xx_tim.o(i.TIM_SetIC1Prescaler), (18 bytes).
    Removing stm32f4xx_tim.o(i.TIM_SetIC2Prescaler), (26 bytes).
    Removing stm32f4xx_tim.o(i.TIM_SetIC3Prescaler), (18 bytes).
    Removing stm32f4xx_tim.o(i.TIM_SetIC4Prescaler), (26 bytes).
    Removing stm32f4xx_tim.o(i.TIM_TIxExternalClockConfig), (62 bytes).
    Removing stm32f4xx_tim.o(i.TIM_TimeBaseStructInit), (18 bytes).
    Removing stm32f4xx_tim.o(i.TIM_UpdateDisableConfig), (24 bytes).
    Removing stm32f4xx_tim.o(i.TIM_UpdateRequestConfig), (24 bytes).
    Removing stm32f4xx_usart.o(.rev16_text), (4 bytes).
    Removing stm32f4xx_usart.o(.revsh_text), (4 bytes).
    Removing stm32f4xx_usart.o(.rrx_text), (6 bytes).
    Removing stm32f4xx_usart.o(i.USART_ClearFlag), (18 bytes).
    Removing stm32f4xx_usart.o(i.USART_ClockInit), (32 bytes).
    Removing stm32f4xx_usart.o(i.USART_ClockStructInit), (12 bytes).
    Removing stm32f4xx_usart.o(i.USART_DMACmd), (18 bytes).
    Removing stm32f4xx_usart.o(i.USART_DeInit), (240 bytes).
    Removing stm32f4xx_usart.o(i.USART_GetFlagStatus), (26 bytes).
    Removing stm32f4xx_usart.o(i.USART_GetITStatus), (84 bytes).
    Removing stm32f4xx_usart.o(i.USART_HalfDuplexCmd), (24 bytes).
    Removing stm32f4xx_usart.o(i.USART_IrDACmd), (24 bytes).
    Removing stm32f4xx_usart.o(i.USART_IrDAConfig), (18 bytes).
    Removing stm32f4xx_usart.o(i.USART_LINBreakDetectLengthConfig), (18 bytes).
    Removing stm32f4xx_usart.o(i.USART_LINCmd), (24 bytes).
    Removing stm32f4xx_usart.o(i.USART_OneBitMethodCmd), (24 bytes).
    Removing stm32f4xx_usart.o(i.USART_OverSampling8Cmd), (22 bytes).
    Removing stm32f4xx_usart.o(i.USART_ReceiveData), (10 bytes).
    Removing stm32f4xx_usart.o(i.USART_ReceiverWakeUpCmd), (24 bytes).
    Removing stm32f4xx_usart.o(i.USART_SendBreak), (10 bytes).
    Removing stm32f4xx_usart.o(i.USART_SendData), (8 bytes).
    Removing stm32f4xx_usart.o(i.USART_SetAddress), (18 bytes).
    Removing stm32f4xx_usart.o(i.USART_SetGuardTime), (16 bytes).
    Removing stm32f4xx_usart.o(i.USART_SetPrescaler), (16 bytes).
    Removing stm32f4xx_usart.o(i.USART_SmartCardCmd), (24 bytes).
    Removing stm32f4xx_usart.o(i.USART_SmartCardNACKCmd), (24 bytes).
    Removing stm32f4xx_usart.o(i.USART_WakeUpConfig), (18 bytes).
    Removing system_stm32f4xx.o(.rev16_text), (4 bytes).
    Removing system_stm32f4xx.o(.revsh_text), (4 bytes).
    Removing system_stm32f4xx.o(.rrx_text), (6 bytes).
    Removing system_stm32f4xx.o(i.SystemCoreClockUpdate), (192 bytes).
    Removing system_stm32f4xx.o(.constdata), (24 bytes).
    Removing system_stm32f4xx.o(.data), (4 bytes).
    Removing main.o(.ARM.exidx), (8 bytes).
    Removing main.o(.ARM.exidx), (8 bytes).
    Removing main.o(.ARM.exidx), (8 bytes).
    Removing main.o(.ARM.exidx), (8 bytes).
    Removing main.o(.ARM.exidx), (8 bytes).
    Removing goalkeeper.o(.ARM.exidx), (8 bytes).
    Removing goalkeeper.o(.ARM.exidx), (8 bytes).
    Removing forward.o(.ARM.exidx), (8 bytes).
    Removing processing_coord.o(.ARM.exidx), (8 bytes).
    Removing queues_ball.o(.ARM.exidx), (8 bytes).
    Removing queues_ball.o(.ARM.exidx), (8 bytes).
    Removing queues_ball.o(.ARM.exidx), (8 bytes).
    Removing queues_ball.o(.ARM.exidx), (8 bytes).
    Removing queues_ball.o(.ARM.exidx), (8 bytes).
    Removing queues_ball.o(.ARM.exidx), (8 bytes).
    Removing queues_ball.o(.ARM.exidx), (8 bytes).
    Removing openmv.o(.ARM.exidx), (8 bytes).
    Removing openmv.o(.ARM.exidx), (8 bytes).
    Removing mpu9250_spi.o(i._ZN11mpu9250_spi7convertEth), (32 bytes).
    Removing mpu9250_spi.o(.ARM.exidx), (8 bytes).

873 unused section(s) (total 27307 bytes) removed from the image.

==============================================================================

Image Symbol Table

    Local Symbols

    Symbol Name                              Value     Ov Type        Size  Object(Section)

    ../../../clib/unwind_pr.c                0x00000000   Number         0  unwind_prcommon.o ABSOLUTE
    ../../../clib/unwind_pr.c                0x00000000   Number         0  unwind_pr0.o ABSOLUTE
    ../../../clib/unwinder.c                 0x00000000   Number         0  unwinder.o ABSOLUTE
    ../../../clib/unwinder.c                 0x00000000   Number         0  unwinder.o ABSOLUTE
    ../../../clib/unwinder.c                 0x00000000   Number         0  unwind_activity.o ABSOLUTE
    ../../../clib/unwinder.c                 0x00000000   Number         0  unwind_activity.o ABSOLUTE
    ../../array_helpers.cpp                  0x00000000   Number         0  aeabi_vec_ctor_nocookie_nodtor.o ABSOLUTE
    ../clib/angel/boardlib.s                 0x00000000   Number         0  boardinit3.o ABSOLUTE
    ../clib/angel/boardlib.s                 0x00000000   Number         0  boardshut.o ABSOLUTE
    ../clib/angel/boardlib.s                 0x00000000   Number         0  boardinit2.o ABSOLUTE
    ../clib/angel/boardlib.s                 0x00000000   Number         0  boardinit1.o ABSOLUTE
    ../clib/angel/dczerorl2.s                0x00000000   Number         0  __dczerorl2.o ABSOLUTE
    ../clib/angel/handlers.s                 0x00000000   Number         0  __scatter_zi.o ABSOLUTE
    ../clib/angel/kernel.s                   0x00000000   Number         0  rtexit.o ABSOLUTE
    ../clib/angel/kernel.s                   0x00000000   Number         0  __rtentry.o ABSOLUTE
    ../clib/angel/kernel.s                   0x00000000   Number         0  __rtentry2.o ABSOLUTE
    ../clib/angel/kernel.s                   0x00000000   Number         0  rtexit2.o ABSOLUTE
    ../clib/angel/kernel.s                   0x00000000   Number         0  __rtentry4.o ABSOLUTE
    ../clib/angel/rt.s                       0x00000000   Number         0  rt_heap_descriptor_intlibspace.o ABSOLUTE
    ../clib/angel/rt.s                       0x00000000   Number         0  rt_errno_addr_intlibspace.o ABSOLUTE
    ../clib/angel/rt.s                       0x00000000   Number         0  rt_heap_descriptor.o ABSOLUTE
    ../clib/angel/rt.s                       0x00000000   Number         0  rt_errno_addr.o ABSOLUTE
    ../clib/angel/rt.s                       0x00000000   Number         0  rt_raise.o ABSOLUTE
    ../clib/angel/scatter.s                  0x00000000   Number         0  __scatter.o ABSOLUTE
    ../clib/angel/startup.s                  0x00000000   Number         0  __main.o ABSOLUTE
    ../clib/angel/sys.s                      0x00000000   Number         0  libspace.o ABSOLUTE
    ../clib/angel/sys.s                      0x00000000   Number         0  mutex_dummy.o ABSOLUTE
    ../clib/angel/sys.s                      0x00000000   Number         0  use_no_semi.o ABSOLUTE
    ../clib/angel/sys.s                      0x00000000   Number         0  sys_stackheap_outer.o ABSOLUTE
    ../clib/arm_runtime.c                    0x00000000   Number         0  init_aeabi.o ABSOLUTE
    ../clib/arm_runtime.c                    0x00000000   Number         0  init_aeabi.o ABSOLUTE
    ../clib/armsys.c                         0x00000000   Number         0  _get_argv.o ABSOLUTE
    ../clib/armsys.c                         0x00000000   Number         0  no_argv.o ABSOLUTE
    ../clib/armsys.c                         0x00000000   Number         0  argv_veneer.o ABSOLUTE
    ../clib/armsys.c                         0x00000000   Number         0  argv_veneer.o ABSOLUTE
    ../clib/armsys.c                         0x00000000   Number         0  _get_argv_nomalloc.o ABSOLUTE
    ../clib/fenv.c                           0x00000000   Number         0  _rserrno.o ABSOLUTE
    ../clib/heap1.c                          0x00000000   Number         0  h1_final.o ABSOLUTE
    ../clib/heap1.c                          0x00000000   Number         0  h1_final_mt.o ABSOLUTE
    ../clib/heap1.c                          0x00000000   Number         0  h1_alloc_mt.o ABSOLUTE
    ../clib/heap1.c                          0x00000000   Number         0  h1_free.o ABSOLUTE
    ../clib/heap1.c                          0x00000000   Number         0  h1_extend_mt.o ABSOLUTE
    ../clib/heap1.c                          0x00000000   Number         0  h1_free_mt.o ABSOLUTE
    ../clib/heap1.c                          0x00000000   Number         0  h1_extend.o ABSOLUTE
    ../clib/heap1.c                          0x00000000   Number         0  h1_alloc.o ABSOLUTE
    ../clib/heap1.c                          0x00000000   Number         0  h1_init_mt.o ABSOLUTE
    ../clib/heap1.c                          0x00000000   Number         0  h1_init.o ABSOLUTE
    ../clib/heap2.c                          0x00000000   Number         0  heap2mt.o ABSOLUTE
    ../clib/heap2.c                          0x00000000   Number         0  heap2.o ABSOLUTE
    ../clib/heap2.c                          0x00000000   Number         0  fdtree.o ABSOLUTE
    ../clib/heapalloc.c                      0x00000000   Number         0  malloc.o ABSOLUTE
    ../clib/heapalloc.c                      0x00000000   Number         0  term_alloc.o ABSOLUTE
    ../clib/heapalloc.c                      0x00000000   Number         0  maybetermalloc2.o ABSOLUTE
    ../clib/heapalloc.c                      0x00000000   Number         0  hrguard.o ABSOLUTE
    ../clib/heapalloc.c                      0x00000000   Number         0  maybetermalloc2.o ABSOLUTE
    ../clib/heapalloc.c                      0x00000000   Number         0  maybetermalloc1.o ABSOLUTE
    ../clib/heapalloc.c                      0x00000000   Number         0  maybetermalloc1.o ABSOLUTE
    ../clib/heapalloc.c                      0x00000000   Number         0  heapstubs.o ABSOLUTE
    ../clib/heapalloc.c                      0x00000000   Number         0  init_alloc.o ABSOLUTE
    ../clib/heapalloc.c                      0x00000000   Number         0  hguard.o ABSOLUTE
    ../clib/heapalloc.c                      0x00000000   Number         0  free.o ABSOLUTE
    ../clib/heapaux.c                        0x00000000   Number         0  heapauxa.o ABSOLUTE
    ../clib/heapaux.c                        0x00000000   Number         0  heapauxi.o ABSOLUTE
    ../clib/libinit.s                        0x00000000   Number         0  libinit.o ABSOLUTE
    ../clib/libinit.s                        0x00000000   Number         0  libshutdown.o ABSOLUTE
    ../clib/libinit.s                        0x00000000   Number         0  libinit2.o ABSOLUTE
    ../clib/libinit.s                        0x00000000   Number         0  libshutdown2.o ABSOLUTE
    ../clib/memcpset.s                       0x00000000   Number         0  rt_memcpy_w.o ABSOLUTE
    ../clib/signal.c                         0x00000000   Number         0  defsig_general.o ABSOLUTE
    ../clib/signal.c                         0x00000000   Number         0  defsig_abrt_inner.o ABSOLUTE
    ../clib/signal.c                         0x00000000   Number         0  defsig_rtmem_formal.o ABSOLUTE
    ../clib/signal.c                         0x00000000   Number         0  defsig_rtmem_outer.o ABSOLUTE
    ../clib/signal.c                         0x00000000   Number         0  defsig_exit.o ABSOLUTE
    ../clib/signal.c                         0x00000000   Number         0  defsig_abrt_outer.o ABSOLUTE
    ../clib/signal.c                         0x00000000   Number         0  defsig_fpe_inner.o ABSOLUTE
    ../clib/signal.c                         0x00000000   Number         0  defsig_rtred_inner.o ABSOLUTE
    ../clib/signal.c                         0x00000000   Number         0  defsig_stak_inner.o ABSOLUTE
    ../clib/signal.c                         0x00000000   Number         0  defsig_pvfn_inner.o ABSOLUTE
    ../clib/signal.c                         0x00000000   Number         0  defsig_cppl_inner.o ABSOLUTE
    ../clib/signal.c                         0x00000000   Number         0  defsig_segv_inner.o ABSOLUTE
    ../clib/signal.c                         0x00000000   Number         0  defsig_abrt_formal.o ABSOLUTE
    ../clib/signal.c                         0x00000000   Number         0  defsig_other.o ABSOLUTE
    ../clib/signal.c                         0x00000000   Number         0  defsig_rtmem_inner.o ABSOLUTE
    ../clib/signal.c                         0x00000000   Number         0  __raise.o ABSOLUTE
    ../clib/signal.s                         0x00000000   Number         0  defsig.o ABSOLUTE
    ../clib/stdlib.c                         0x00000000   Number         0  exit.o ABSOLUTE
    ../clib/stdlib.c                         0x00000000   Number         0  bsearchnoex.o ABSOLUTE
    ../clib/stdlib.c                         0x00000000   Number         0  abort.o ABSOLUTE
    ../fplib/basic.s                         0x00000000   Number         0  basic.o ABSOLUTE
    ../fplib/d2f.s                           0x00000000   Number         0  d2f.o ABSOLUTE
    ../fplib/daddsub.s                       0x00000000   Number         0  daddsub_clz.o ABSOLUTE
    ../fplib/dcheck1.s                       0x00000000   Number         0  dcheck1.o ABSOLUTE
    ../fplib/dcmpi.s                         0x00000000   Number         0  dcmpi.o ABSOLUTE
    ../fplib/ddiv.s                          0x00000000   Number         0  ddiv.o ABSOLUTE
    ../fplib/deqf.s                          0x00000000   Number         0  deqf.o ABSOLUTE
    ../fplib/dfix.s                          0x00000000   Number         0  dfix.o ABSOLUTE
    ../fplib/dfixu.s                         0x00000000   Number         0  dfixu.o ABSOLUTE
    ../fplib/dflt.s                          0x00000000   Number         0  dflt_clz.o ABSOLUTE
    ../fplib/dfltll.s                        0x00000000   Number         0  dfltll_clz.o ABSOLUTE
    ../fplib/dleqf.s                         0x00000000   Number         0  dleqf.o ABSOLUTE
    ../fplib/dmul.s                          0x00000000   Number         0  dmul.o ABSOLUTE
    ../fplib/dnaninf.s                       0x00000000   Number         0  dnaninf.o ABSOLUTE
    ../fplib/dretinf.s                       0x00000000   Number         0  dretinf.o ABSOLUTE
    ../fplib/drleqf.s                        0x00000000   Number         0  drleqf.o ABSOLUTE
    ../fplib/dsqrt.s                         0x00000000   Number         0  dsqrt_umaal.o ABSOLUTE
    ../fplib/f2d.s                           0x00000000   Number         0  f2d.o ABSOLUTE
    ../fplib/fnaninf.s                       0x00000000   Number         0  fnaninf.o ABSOLUTE
    ../fplib/fpinit.s                        0x00000000   Number         0  fpinit.o ABSOLUTE
    ../fplib/fretinf.s                       0x00000000   Number         0  fretinf.o ABSOLUTE
    ../fplib/istatus.s                       0x00000000   Number         0  istatus.o ABSOLUTE
    ../fplib/retnan.s                        0x00000000   Number         0  retnan.o ABSOLUTE
    ../fplib/scalbn.s                        0x00000000   Number         0  scalbn.o ABSOLUTE
    ../fplib/trapv.s                         0x00000000   Number         0  trapv.o ABSOLUTE
    ../fplib/usenofp.s                       0x00000000   Number         0  usenofp.o ABSOLUTE
    ../mathlib/asin.c                        0x00000000   Number         0  asin.o ABSOLUTE
    ../mathlib/asin.c                        0x00000000   Number         0  asin_x.o ABSOLUTE
    ../mathlib/atan.c                        0x00000000   Number         0  atan_x.o ABSOLUTE
    ../mathlib/atan.c                        0x00000000   Number         0  atan.o ABSOLUTE
    ../mathlib/atan2.c                       0x00000000   Number         0  atan2.o ABSOLUTE
    ../mathlib/atan2.c                       0x00000000   Number         0  atan2_x.o ABSOLUTE
    ../mathlib/atan2f.c                      0x00000000   Number         0  atan2f.o ABSOLUTE
    ../mathlib/atan2f.c                      0x00000000   Number         0  atan2f_x.o ABSOLUTE
    ../mathlib/cos.c                         0x00000000   Number         0  cos_x.o ABSOLUTE
    ../mathlib/cos.c                         0x00000000   Number         0  cos.o ABSOLUTE
    ../mathlib/cos_i.c                       0x00000000   Number         0  cos_i.o ABSOLUTE
    ../mathlib/cosf.c                        0x00000000   Number         0  cosf_x.o ABSOLUTE
    ../mathlib/cosf.c                        0x00000000   Number         0  cosf.o ABSOLUTE
    ../mathlib/dunder.c                      0x00000000   Number         0  dunder.o ABSOLUTE
    ../mathlib/fabs.c                        0x00000000   Number         0  fabs.o ABSOLUTE
    ../mathlib/fpclassify.c                  0x00000000   Number         0  fpclassify.o ABSOLUTE
    ../mathlib/fpclassifyf.c                 0x00000000   Number         0  fpclassifyf.o ABSOLUTE
    ../mathlib/funder.c                      0x00000000   Number         0  funder.o ABSOLUTE
    ../mathlib/poly.c                        0x00000000   Number         0  poly.o ABSOLUTE
    ../mathlib/pow.c                         0x00000000   Number         0  pow.o ABSOLUTE
    ../mathlib/pow.c                         0x00000000   Number         0  pow_x.o ABSOLUTE
    ../mathlib/powf.c                        0x00000000   Number         0  powf.o ABSOLUTE
    ../mathlib/powf.c                        0x00000000   Number         0  powf_x.o ABSOLUTE
    ../mathlib/qnan.c                        0x00000000   Number         0  qnan.o ABSOLUTE
    ../mathlib/rred.c                        0x00000000   Number         0  rred.o ABSOLUTE
    ../mathlib/rredf.c                       0x00000000   Number         0  rredf.o ABSOLUTE
    ../mathlib/sin.c                         0x00000000   Number         0  sin_x.o ABSOLUTE
    ../mathlib/sin.c                         0x00000000   Number         0  sin.o ABSOLUTE
    ../mathlib/sin_i.c                       0x00000000   Number         0  sin_i.o ABSOLUTE
    ../mathlib/sin_i.c                       0x00000000   Number         0  sin_i_x.o ABSOLUTE
    ../mathlib/sinf.c                        0x00000000   Number         0  sinf_x.o ABSOLUTE
    ../mathlib/sinf.c                        0x00000000   Number         0  sinf.o ABSOLUTE
    ../mathlib/sqrt.c                        0x00000000   Number         0  sqrt_x.o ABSOLUTE
    ../mathlib/sqrt.c                        0x00000000   Number         0  sqrt.o ABSOLUTE
    ../mathlib/sqrtf.c                       0x00000000   Number         0  sqrtf.o ABSOLUTE
    ../mathlib/sqrtf.c                       0x00000000   Number         0  sqrtf_x.o ABSOLUTE
    RTE\Device\STM32F407VGTx\startup_stm32f407xx.s 0x00000000   Number         0  startup_stm32f407xx.o ABSOLUTE
    RTE\Device\STM32F407VGTx\system_stm32f4xx.c 0x00000000   Number         0  system_stm32f4xx.o ABSOLUTE
    RTE\\Device\\STM32F407VGTx\\system_stm32f4xx.c 0x00000000   Number         0  system_stm32f4xx.o ABSOLUTE
    dc.s                                     0x00000000   Number         0  dc.o ABSOLUTE
    src\BallSensor\BallSensor.cpp            0x00000000   Number         0  ballsensor.o ABSOLUTE
    src\Button\Button.cpp                    0x00000000   Number         0  button.o ABSOLUTE
    src\Forward\Forward.cpp                  0x00000000   Number         0  forward.o ABSOLUTE
    src\Goalkeeper\Goalkeeper.cpp            0x00000000   Number         0  goalkeeper.o ABSOLUTE
    src\I2C\I2C.cpp                          0x00000000   Number         0  i2c.o ABSOLUTE
    src\IMU_SPI\IMU_SPI.cpp                  0x00000000   Number         0  imu_spi.o ABSOLUTE
    src\IMU_USART\IMU_USART.cpp              0x00000000   Number         0  imu_usart.o ABSOLUTE
    src\IR_Locator\IR_Locator.cpp            0x00000000   Number         0  ir_locator.o ABSOLUTE
    src\Motor\Motor.cpp                      0x00000000   Number         0  motor.o ABSOLUTE
    src\OpenMV\OpenMV.cpp                    0x00000000   Number         0  openmv.o ABSOLUTE
    src\Pin\Pin.cpp                          0x00000000   Number         0  pin.o ABSOLUTE
    src\Processing_coord\Processing_coord.cpp 0x00000000   Number         0  processing_coord.o ABSOLUTE
    src\Queues_ball\Queues_ball.cpp          0x00000000   Number         0  queues_ball.o ABSOLUTE
    src\SPI_1\SPI_1.cpp                      0x00000000   Number         0  spi_1.o ABSOLUTE
    src\SPI_DOT\SPI_DOT.cpp                  0x00000000   Number         0  spi_dot.o ABSOLUTE
    src\TSOP\TSOP.cpp                        0x00000000   Number         0  tsop.o ABSOLUTE
    src\Vec2b\Vec2b.cpp                      0x00000000   Number         0  vec2b.o ABSOLUTE
    src\Voltage\Voltage.cpp                  0x00000000   Number         0  voltage.o ABSOLUTE
    src\\BallSensor\\BallSensor.cpp          0x00000000   Number         0  ballsensor.o ABSOLUTE
    src\\Button\\Button.cpp                  0x00000000   Number         0  button.o ABSOLUTE
    src\\Forward\\Forward.cpp                0x00000000   Number         0  forward.o ABSOLUTE
    src\\Goalkeeper\\Goalkeeper.cpp          0x00000000   Number         0  goalkeeper.o ABSOLUTE
    src\\I2C\\I2C.cpp                        0x00000000   Number         0  i2c.o ABSOLUTE
    src\\IMU_SPI\\IMU_SPI.cpp                0x00000000   Number         0  imu_spi.o ABSOLUTE
    src\\IMU_USART\\IMU_USART.cpp            0x00000000   Number         0  imu_usart.o ABSOLUTE
    src\\IR_Locator\\IR_Locator.cpp          0x00000000   Number         0  ir_locator.o ABSOLUTE
    src\\Motor\\Motor.cpp                    0x00000000   Number         0  motor.o ABSOLUTE
    src\\OpenMV\\OpenMV.cpp                  0x00000000   Number         0  openmv.o ABSOLUTE
    src\\Pin\\Pin.cpp                        0x00000000   Number         0  pin.o ABSOLUTE
    src\\Processing_coord\\Processing_coord.cpp 0x00000000   Number         0  processing_coord.o ABSOLUTE
    src\\Queues_ball\\Queues_ball.cpp        0x00000000   Number         0  queues_ball.o ABSOLUTE
    src\\SPI_1\\SPI_1.cpp                    0x00000000   Number         0  spi_1.o ABSOLUTE
    src\\SPI_DOT\\SPI_DOT.cpp                0x00000000   Number         0  spi_dot.o ABSOLUTE
    src\\TSOP\\TSOP.cpp                      0x00000000   Number         0  tsop.o ABSOLUTE
    src\\Vec2b\\Vec2b.cpp                    0x00000000   Number         0  vec2b.o ABSOLUTE
    src\\Voltage\\Voltage.cpp                0x00000000   Number         0  voltage.o ABSOLUTE
    src\\adc\\adc.cpp                        0x00000000   Number         0  adc.o ABSOLUTE
    src\\dma\\dma.cpp                        0x00000000   Number         0  dma.o ABSOLUTE
    src\\external\\retarget.cpp              0x00000000   Number         0  retarget.o ABSOLUTE
    src\\kicker\\kicker.cpp                  0x00000000   Number         0  kicker.o ABSOLUTE
    src\\main\\main.cpp                      0x00000000   Number         0  main.o ABSOLUTE
    src\\mpu9250\\mpu9250_spi.cpp            0x00000000   Number         0  mpu9250_spi.o ABSOLUTE
    src\\omniplatform\\omniplatform.cpp      0x00000000   Number         0  omniplatform.o ABSOLUTE
    src\\spl4\\src\\misc.c                   0x00000000   Number         0  misc.o ABSOLUTE
    src\\spl4\\src\\stm32f4xx_adc.c          0x00000000   Number         0  stm32f4xx_adc.o ABSOLUTE
    src\\spl4\\src\\stm32f4xx_crc.c          0x00000000   Number         0  stm32f4xx_crc.o ABSOLUTE
    src\\spl4\\src\\stm32f4xx_dac.c          0x00000000   Number         0  stm32f4xx_dac.o ABSOLUTE
    src\\spl4\\src\\stm32f4xx_dma.c          0x00000000   Number         0  stm32f4xx_dma.o ABSOLUTE
    src\\spl4\\src\\stm32f4xx_flash.c        0x00000000   Number         0  stm32f4xx_flash.o ABSOLUTE
    src\\spl4\\src\\stm32f4xx_gpio.c         0x00000000   Number         0  stm32f4xx_gpio.o ABSOLUTE
    src\\spl4\\src\\stm32f4xx_i2c.c          0x00000000   Number         0  stm32f4xx_i2c.o ABSOLUTE
    src\\spl4\\src\\stm32f4xx_rcc.c          0x00000000   Number         0  stm32f4xx_rcc.o ABSOLUTE
    src\\spl4\\src\\stm32f4xx_spi.c          0x00000000   Number         0  stm32f4xx_spi.o ABSOLUTE
    src\\spl4\\src\\stm32f4xx_tim.c          0x00000000   Number         0  stm32f4xx_tim.o ABSOLUTE
    src\\spl4\\src\\stm32f4xx_usart.c        0x00000000   Number         0  stm32f4xx_usart.o ABSOLUTE
    src\\time_service\\time_service.cpp      0x00000000   Number         0  time_service.o ABSOLUTE
    src\\usart1\\usart1.cpp                  0x00000000   Number         0  usart1.o ABSOLUTE
    src\\usart2\\usart2.cpp                  0x00000000   Number         0  usart2.o ABSOLUTE
    src\\usart3\\usart3.cpp                  0x00000000   Number         0  usart3.o ABSOLUTE
    src\\usart6\\usart6.cpp                  0x00000000   Number         0  usart6.o ABSOLUTE
    src\adc\adc.cpp                          0x00000000   Number         0  adc.o ABSOLUTE
    src\dma\dma.cpp                          0x00000000   Number         0  dma.o ABSOLUTE
    src\external\retarget.cpp                0x00000000   Number         0  retarget.o ABSOLUTE
    src\kicker\kicker.cpp                    0x00000000   Number         0  kicker.o ABSOLUTE
    src\main\main.cpp                        0x00000000   Number         0  main.o ABSOLUTE
    src\mpu9250\mpu9250_spi.cpp              0x00000000   Number         0  mpu9250_spi.o ABSOLUTE
    src\omniplatform\omniplatform.cpp        0x00000000   Number         0  omniplatform.o ABSOLUTE
    src\spl4\src\misc.c                      0x00000000   Number         0  misc.o ABSOLUTE
    src\spl4\src\stm32f4xx_adc.c             0x00000000   Number         0  stm32f4xx_adc.o ABSOLUTE
    src\spl4\src\stm32f4xx_crc.c             0x00000000   Number         0  stm32f4xx_crc.o ABSOLUTE
    src\spl4\src\stm32f4xx_dac.c             0x00000000   Number         0  stm32f4xx_dac.o ABSOLUTE
    src\spl4\src\stm32f4xx_dma.c             0x00000000   Number         0  stm32f4xx_dma.o ABSOLUTE
    src\spl4\src\stm32f4xx_flash.c           0x00000000   Number         0  stm32f4xx_flash.o ABSOLUTE
    src\spl4\src\stm32f4xx_gpio.c            0x00000000   Number         0  stm32f4xx_gpio.o ABSOLUTE
    src\spl4\src\stm32f4xx_i2c.c             0x00000000   Number         0  stm32f4xx_i2c.o ABSOLUTE
    src\spl4\src\stm32f4xx_rcc.c             0x00000000   Number         0  stm32f4xx_rcc.o ABSOLUTE
    src\spl4\src\stm32f4xx_spi.c             0x00000000   Number         0  stm32f4xx_spi.o ABSOLUTE
    src\spl4\src\stm32f4xx_tim.c             0x00000000   Number         0  stm32f4xx_tim.o ABSOLUTE
    src\spl4\src\stm32f4xx_usart.c           0x00000000   Number         0  stm32f4xx_usart.o ABSOLUTE
    src\time_service\time_service.cpp        0x00000000   Number         0  time_service.o ABSOLUTE
    src\usart1\usart1.cpp                    0x00000000   Number         0  usart1.o ABSOLUTE
    src\usart2\usart2.cpp                    0x00000000   Number         0  usart2.o ABSOLUTE
    src\usart3\usart3.cpp                    0x00000000   Number         0  usart3.o ABSOLUTE
    src\usart6\usart6.cpp                    0x00000000   Number         0  usart6.o ABSOLUTE
    RESET                                    0x08000000   Section      392  startup_stm32f407xx.o(RESET)
    !!!main                                  0x08000188   Section        8  __main.o(!!!main)
    !!!scatter                               0x08000190   Section       52  __scatter.o(!!!scatter)
    !!dczerorl2                              0x080001c4   Section       90  __dczerorl2.o(!!dczerorl2)
    !!handler_zi                             0x08000220   Section       28  __scatter_zi.o(!!handler_zi)
    .ARM.Collect$$libinit$$00000000          0x0800023c   Section        2  libinit.o(.ARM.Collect$$libinit$$00000000)
    .ARM.Collect$$libinit$$00000001          0x0800023e   Section        4  libinit2.o(.ARM.Collect$$libinit$$00000001)
    .ARM.Collect$$libinit$$00000004          0x08000242   Section        0  libinit2.o(.ARM.Collect$$libinit$$00000004)
    .ARM.Collect$$libinit$$0000000A          0x08000242   Section        0  libinit2.o(.ARM.Collect$$libinit$$0000000A)
    .ARM.Collect$$libinit$$0000000C          0x08000242   Section        0  libinit2.o(.ARM.Collect$$libinit$$0000000C)
    .ARM.Collect$$libinit$$0000000E          0x08000242   Section        0  libinit2.o(.ARM.Collect$$libinit$$0000000E)
    .ARM.Collect$$libinit$$00000011          0x08000242   Section        0  libinit2.o(.ARM.Collect$$libinit$$00000011)
    .ARM.Collect$$libinit$$00000013          0x08000242   Section        0  libinit2.o(.ARM.Collect$$libinit$$00000013)
    .ARM.Collect$$libinit$$00000015          0x08000242   Section        0  libinit2.o(.ARM.Collect$$libinit$$00000015)
    .ARM.Collect$$libinit$$00000017          0x08000242   Section        0  libinit2.o(.ARM.Collect$$libinit$$00000017)
    .ARM.Collect$$libinit$$00000019          0x08000242   Section        0  libinit2.o(.ARM.Collect$$libinit$$00000019)
    .ARM.Collect$$libinit$$0000001B          0x08000242   Section        0  libinit2.o(.ARM.Collect$$libinit$$0000001B)
    .ARM.Collect$$libinit$$0000001D          0x08000242   Section        0  libinit2.o(.ARM.Collect$$libinit$$0000001D)
    .ARM.Collect$$libinit$$0000001F          0x08000242   Section        0  libinit2.o(.ARM.Collect$$libinit$$0000001F)
    .ARM.Collect$$libinit$$00000021          0x08000242   Section        0  libinit2.o(.ARM.Collect$$libinit$$00000021)
    .ARM.Collect$$libinit$$00000023          0x08000242   Section        0  libinit2.o(.ARM.Collect$$libinit$$00000023)
    .ARM.Collect$$libinit$$00000025          0x08000242   Section        0  libinit2.o(.ARM.Collect$$libinit$$00000025)
    .ARM.Collect$$libinit$$0000002C          0x08000242   Section        0  libinit2.o(.ARM.Collect$$libinit$$0000002C)
    .ARM.Collect$$libinit$$0000002E          0x08000242   Section        0  libinit2.o(.ARM.Collect$$libinit$$0000002E)
    .ARM.Collect$$libinit$$00000030          0x08000242   Section        0  libinit2.o(.ARM.Collect$$libinit$$00000030)
    .ARM.Collect$$libinit$$00000031          0x08000242   Section        4  libinit2.o(.ARM.Collect$$libinit$$00000031)
    .ARM.Collect$$libinit$$00000032          0x08000246   Section        0  libinit2.o(.ARM.Collect$$libinit$$00000032)
    .ARM.Collect$$libinit$$00000033          0x08000246   Section        2  libinit2.o(.ARM.Collect$$libinit$$00000033)
    .ARM.Collect$$libshutdown$$00000000      0x08000248   Section        2  libshutdown.o(.ARM.Collect$$libshutdown$$00000000)
    .ARM.Collect$$libshutdown$$00000002      0x0800024a   Section        0  libshutdown2.o(.ARM.Collect$$libshutdown$$00000002)
    .ARM.Collect$$libshutdown$$00000004      0x0800024a   Section        0  libshutdown2.o(.ARM.Collect$$libshutdown$$00000004)
    .ARM.Collect$$libshutdown$$00000006      0x0800024a   Section        0  libshutdown2.o(.ARM.Collect$$libshutdown$$00000006)
    .ARM.Collect$$libshutdown$$00000009      0x0800024a   Section        0  libshutdown2.o(.ARM.Collect$$libshutdown$$00000009)
    .ARM.Collect$$libshutdown$$0000000C      0x0800024a   Section        0  libshutdown2.o(.ARM.Collect$$libshutdown$$0000000C)
    .ARM.Collect$$libshutdown$$0000000E      0x0800024a   Section        0  libshutdown2.o(.ARM.Collect$$libshutdown$$0000000E)
    .ARM.Collect$$libshutdown$$00000011      0x0800024a   Section        0  libshutdown2.o(.ARM.Collect$$libshutdown$$00000011)
    .ARM.Collect$$libshutdown$$00000012      0x0800024a   Section        2  libshutdown2.o(.ARM.Collect$$libshutdown$$00000012)
    .ARM.Collect$$rtentry$$00000000          0x0800024c   Section        0  __rtentry.o(.ARM.Collect$$rtentry$$00000000)
    .ARM.Collect$$rtentry$$00000002          0x0800024c   Section        0  __rtentry2.o(.ARM.Collect$$rtentry$$00000002)
    .ARM.Collect$$rtentry$$00000004          0x0800024c   Section        6  __rtentry4.o(.ARM.Collect$$rtentry$$00000004)
    .ARM.Collect$$rtentry$$00000009          0x08000252   Section        0  __rtentry2.o(.ARM.Collect$$rtentry$$00000009)
    .ARM.Collect$$rtentry$$0000000A          0x08000252   Section        4  __rtentry2.o(.ARM.Collect$$rtentry$$0000000A)
    .ARM.Collect$$rtentry$$0000000C          0x08000256   Section        0  __rtentry2.o(.ARM.Collect$$rtentry$$0000000C)
    .ARM.Collect$$rtentry$$0000000D          0x08000256   Section        8  __rtentry2.o(.ARM.Collect$$rtentry$$0000000D)
    .ARM.Collect$$rtexit$$00000000           0x0800025e   Section        2  rtexit.o(.ARM.Collect$$rtexit$$00000000)
    .ARM.Collect$$rtexit$$00000002           0x08000260   Section        0  rtexit2.o(.ARM.Collect$$rtexit$$00000002)
    .ARM.Collect$$rtexit$$00000003           0x08000260   Section        4  rtexit2.o(.ARM.Collect$$rtexit$$00000003)
    .ARM.Collect$$rtexit$$00000004           0x08000264   Section        6  rtexit2.o(.ARM.Collect$$rtexit$$00000004)
    .text                                    0x0800026c   Section       64  startup_stm32f407xx.o(.text)
    $v0                                      0x0800026c   Number         0  startup_stm32f407xx.o(.text)
    .text                                    0x080002ac   Section        2  use_no_semi.o(.text)
    .text                                    0x080002ae   Section      100  rt_memcpy_w.o(.text)
    .text                                    0x08000312   Section        0  heapauxi.o(.text)
    .text                                    0x08000318   Section        0  init_aeabi.o(.text)
    .text                                    0x0800033c   Section        0  _rserrno.o(.text)
    .text                                    0x08000354   Section        8  rt_errno_addr_intlibspace.o(.text)
    .text                                    0x0800035c   Section        8  libspace.o(.text)
    .text                                    0x08000364   Section       74  sys_stackheap_outer.o(.text)
    .text                                    0x080003ae   Section        0  exit.o(.text)
    i.ADC_Cmd                                0x080003c0   Section        0  stm32f4xx_adc.o(i.ADC_Cmd)
    i.ADC_CommonInit                         0x080003d8   Section        0  stm32f4xx_adc.o(i.ADC_CommonInit)
    i.ADC_DMACmd                             0x08000408   Section        0  stm32f4xx_adc.o(i.ADC_DMACmd)
    i.ADC_DMARequestAfterLastTransferCmd     0x0800041e   Section        0  stm32f4xx_adc.o(i.ADC_DMARequestAfterLastTransferCmd)
    i.ADC_EOCOnEachRegularChannelCmd         0x08000434   Section        0  stm32f4xx_adc.o(i.ADC_EOCOnEachRegularChannelCmd)
    i.ADC_Init                               0x0800044c   Section        0  stm32f4xx_adc.o(i.ADC_Init)
    i.ADC_RegularChannelConfig               0x080004a0   Section        0  stm32f4xx_adc.o(i.ADC_RegularChannelConfig)
    i.ADC_SoftwareStartConv                  0x08000558   Section        0  stm32f4xx_adc.o(i.ADC_SoftwareStartConv)
    i.DMA_Cmd                                0x08000562   Section        0  stm32f4xx_dma.o(i.DMA_Cmd)
    i.DMA_DeInit                             0x08000578   Section        0  stm32f4xx_dma.o(i.DMA_DeInit)
    i.DMA_Init                               0x080006d0   Section        0  stm32f4xx_dma.o(i.DMA_Init)
    i.GPIO_Init                              0x08000728   Section        0  stm32f4xx_gpio.o(i.GPIO_Init)
    i.GPIO_PinAFConfig                       0x080007b8   Section        0  stm32f4xx_gpio.o(i.GPIO_PinAFConfig)
    i.GPIO_ReadInputData                     0x080007fe   Section        0  stm32f4xx_gpio.o(i.GPIO_ReadInputData)
    i.GPIO_ResetBits                         0x08000806   Section        0  stm32f4xx_gpio.o(i.GPIO_ResetBits)
    i.GPIO_SetBits                           0x0800080a   Section        0  stm32f4xx_gpio.o(i.GPIO_SetBits)
    i.RCC_AHB1PeriphClockCmd                 0x08000810   Section        0  stm32f4xx_rcc.o(i.RCC_AHB1PeriphClockCmd)
    i.RCC_APB1PeriphClockCmd                 0x08000830   Section        0  stm32f4xx_rcc.o(i.RCC_APB1PeriphClockCmd)
    i.RCC_APB2PeriphClockCmd                 0x08000850   Section        0  stm32f4xx_rcc.o(i.RCC_APB2PeriphClockCmd)
    i.RCC_GetClocksFreq                      0x08000870   Section        0  stm32f4xx_rcc.o(i.RCC_GetClocksFreq)
    i.SPI1_IRQHandler                        0x08000958   Section        0  spi_1.o(i.SPI1_IRQHandler)
    i.SPI_I2S_GetFlagStatus                  0x080009c4   Section        0  stm32f4xx_spi.o(i.SPI_I2S_GetFlagStatus)
    i.SetSysClock                            0x080009d8   Section        0  system_stm32f4xx.o(i.SetSysClock)
    SetSysClock                              0x080009d9   Thumb Code   262  system_stm32f4xx.o(i.SetSysClock)
    i.SysTick_Handler                        0x08000ae8   Section        0  time_service.o(i.SysTick_Handler)
    i.SystemInit                             0x08000b00   Section        0  system_stm32f4xx.o(i.SystemInit)
    i.TIM_BDTRConfig                         0x08000b68   Section        0  stm32f4xx_tim.o(i.TIM_BDTRConfig)
    i.TIM_Cmd                                0x08000b88   Section        0  stm32f4xx_tim.o(i.TIM_Cmd)
    i.TIM_CtrlPWMOutputs                     0x08000ba0   Section        0  stm32f4xx_tim.o(i.TIM_CtrlPWMOutputs)
    i.TIM_OC1Init                            0x08000bc0   Section        0  stm32f4xx_tim.o(i.TIM_OC1Init)
    i.TIM_OC2Init                            0x08000c3c   Section        0  stm32f4xx_tim.o(i.TIM_OC2Init)
    i.TIM_OC3Init                            0x08000ce0   Section        0  stm32f4xx_tim.o(i.TIM_OC3Init)
    i.TIM_OC4Init                            0x08000d80   Section        0  stm32f4xx_tim.o(i.TIM_OC4Init)
    i.TIM_SetCompare1                        0x08000df8   Section        0  stm32f4xx_tim.o(i.TIM_SetCompare1)
    i.TIM_SetCompare2                        0x08000dfc   Section        0  stm32f4xx_tim.o(i.TIM_SetCompare2)
    i.TIM_SetCompare3                        0x08000e00   Section        0  stm32f4xx_tim.o(i.TIM_SetCompare3)
    i.TIM_SetCompare4                        0x08000e04   Section        0  stm32f4xx_tim.o(i.TIM_SetCompare4)
    i.TIM_TimeBaseInit                       0x08000e08   Section        0  stm32f4xx_tim.o(i.TIM_TimeBaseInit)
    i.USART1_IRQHandler                      0x08000e8c   Section        0  usart1.o(i.USART1_IRQHandler)
    i.USART2_IRQHandler                      0x08000f2c   Section        0  usart2.o(i.USART2_IRQHandler)
    i.USART3_IRQHandler                      0x08000fd4   Section        0  usart3.o(i.USART3_IRQHandler)
    i.USART6_IRQHandler                      0x0800107c   Section        0  usart6.o(i.USART6_IRQHandler)
    i.USART_ClearITPendingBit                0x08001124   Section        0  stm32f4xx_usart.o(i.USART_ClearITPendingBit)
    i.USART_Cmd                              0x08001142   Section        0  stm32f4xx_usart.o(i.USART_Cmd)
    i.USART_ITConfig                         0x0800115a   Section        0  stm32f4xx_usart.o(i.USART_ITConfig)
    i.USART_Init                             0x080011a4   Section        0  stm32f4xx_usart.o(i.USART_Init)
    i.USART_StructInit                       0x08001278   Section        0  stm32f4xx_usart.o(i.USART_StructInit)
    i._ZN10BallSensor10ballInGripEv          0x08001290   Section        0  ballsensor.o(i._ZN10BallSensor10ballInGripEv)
    i._ZN10BallSensor18ballLongTimeInGripEv  0x08001390   Section        0  ballsensor.o(i._ZN10BallSensor18ballLongTimeInGripEv)
    i._ZN10BallSensor8getValueEv             0x080013ba   Section        0  ballsensor.o(i._ZN10BallSensor8getValueEv)
    i._ZN10BallSensorC1ER3Dma                0x080013d4   Section        0  ballsensor.o(i._ZN10BallSensorC1ER3Dma)
    i._ZN10Goalkeeper12setLeaveTimeEs        0x080013f8   Section        0  goalkeeper.o(i._ZN10Goalkeeper12setLeaveTimeEs)
    i._ZN10Goalkeeper13dist2GoalLongEv       0x080013fc   Section        0  goalkeeper.o(i._ZN10Goalkeeper13dist2GoalLongEv)
    i._ZN10Goalkeeper16angleStopLeavingEf    0x08001410   Section        0  goalkeeper.o(i._ZN10Goalkeeper16angleStopLeavingEf)
    i._ZN10Goalkeeper16changeFromReturnEv    0x08001478   Section        0  goalkeeper.o(i._ZN10Goalkeeper16changeFromReturnEv)
    i._ZN10Goalkeeper16getGoalkeeperPosEv    0x080014b0   Section        0  goalkeeper.o(i._ZN10Goalkeeper16getGoalkeeperPosEv)
    i._ZN10Goalkeeper17getTargetRadiusesEv   0x08001524   Section        0  goalkeeper.o(i._ZN10Goalkeeper17getTargetRadiusesEv)
    i._ZN10Goalkeeper18getVecToGoalCenterEv  0x080015ac   Section        0  goalkeeper.o(i._ZN10Goalkeeper18getVecToGoalCenterEv)
    i._ZN10Goalkeeper19getCurrentLeaveTimeEs 0x08001770   Section        0  goalkeeper.o(i._ZN10Goalkeeper19getCurrentLeaveTimeEs)
    i._ZN10Goalkeeper19getTargetGoalkeeperEv 0x0800181c   Section        0  goalkeeper.o(i._ZN10Goalkeeper19getTargetGoalkeeperEv)
    i._ZN10Goalkeeper19setAngleLeaveStatusEv 0x080018a0   Section        0  goalkeeper.o(i._ZN10Goalkeeper19setAngleLeaveStatusEv)
    i._ZN10Goalkeeper20getVecToIntersectionEs 0x080018bc   Section        0  goalkeeper.o(i._ZN10Goalkeeper20getVecToIntersectionEs)
    i._ZN10GoalkeeperC1Ev                    0x08001ed0   Section        0  goalkeeper.o(i._ZN10GoalkeeperC1Ev)
    i._ZN12omniplatform11adduct0_360Ef       0x08001f1c   Section        0  omniplatform.o(i._ZN12omniplatform11adduct0_360Ef)
    i._ZN12omniplatform4moveEfffff           0x08001f58   Section        0  omniplatform.o(i._ZN12omniplatform4moveEfffff)
    i._ZN12omniplatform7disableEv            0x08002178   Section        0  omniplatform.o(i._ZN12omniplatform7disableEv)
    i._ZN12omniplatformC1ER5MotorS1_S1_S1_   0x0800219c   Section        0  omniplatform.o(i._ZN12omniplatformC1ER5MotorS1_S1_S1_)
    i._ZN12time_service4initEv               0x080021e0   Section        0  time_service.o(i._ZN12time_service4initEv)
    i._ZN12time_service5delayEj              0x08002240   Section        0  time_service.o(i._ZN12time_service5delayEj)
    i._ZN12time_service6millisEv             0x08002264   Section        0  time_service.o(i._ZN12time_service6millisEv)
    i._ZN12time_service9startTimeEv          0x08002270   Section        0  time_service.o(i._ZN12time_service9startTimeEv)
    i._ZN14VoltageDividor10getVoltageEv      0x08002284   Section        0  voltage.o(i._ZN14VoltageDividor10getVoltageEv)
    i._ZN14VoltageDividor10voltageLowEf      0x080022d0   Section        0  voltage.o(i._ZN14VoltageDividor10voltageLowEf)
    i._ZN14VoltageDividorC1ER3Dma            0x080022e8   Section        0  voltage.o(i._ZN14VoltageDividorC1ER3Dma)
    i._ZN15ProcessingCoord10ballInBackEfh    0x080022f8   Section        0  processing_coord.o(i._ZN15ProcessingCoord10ballInBackEfh)
    i._ZN15ProcessingCoord10checkXLeftEsh    0x0800249c   Section        0  processing_coord.o(i._ZN15ProcessingCoord10checkXLeftEsh)
    i._ZN15ProcessingCoord10checkYDownEs     0x080024d8   Section        0  processing_coord.o(i._ZN15ProcessingCoord10checkYDownEs)
    i._ZN15ProcessingCoord11checkXRightEsh   0x080024ea   Section        0  processing_coord.o(i._ZN15ProcessingCoord11checkXRightEsh)
    i._ZN15ProcessingCoord13getVecToPointEss 0x08002524   Section        0  processing_coord.o(i._ZN15ProcessingCoord13getVecToPointEss)
    i._ZN15ProcessingCoord15getTarget2EnemyEv 0x0800265c   Section        0  processing_coord.o(i._ZN15ProcessingCoord15getTarget2EnemyEv)
    i._ZN15ProcessingCoord19suitableParams2KickEv 0x080026e0   Section        0  processing_coord.o(i._ZN15ProcessingCoord19suitableParams2KickEv)
    i._ZN15ProcessingCoord6adductEs          0x080027d0   Section        0  processing_coord.o(i._ZN15ProcessingCoord6adductEs)
    i._ZN15ProcessingCoord7setGoalEh         0x080027f0   Section        0  processing_coord.o(i._ZN15ProcessingCoord7setGoalEh)
    i._ZN15ProcessingCoord8checkYUpEs        0x080027f4   Section        0  processing_coord.o(i._ZN15ProcessingCoord8checkYUpEs)
    i._ZN15ProcessingCoord8distanceEffff     0x08002806   Section        0  processing_coord.o(i._ZN15ProcessingCoord8distanceEffff)
    i._ZN15ProcessingCoord9adduct180Es       0x08002850   Section        0  processing_coord.o(i._ZN15ProcessingCoord9adduct180Es)
    i._ZN15ProcessingCoord9setMaxLenEf       0x08002870   Section        0  processing_coord.o(i._ZN15ProcessingCoord9setMaxLenEf)
    i._ZN15ProcessingCoord9setParamsEsssss   0x08002876   Section        0  processing_coord.o(i._ZN15ProcessingCoord9setParamsEsssss)
    i._ZN15ProcessingCoordC1Ev               0x08002888   Section        0  processing_coord.o(i._ZN15ProcessingCoordC1Ev)
    i._ZN3Adc10adcDmaInitEv                  0x080028b6   Section        0  adc.o(i._ZN3Adc10adcDmaInitEv)
    i._ZN3Adc10setChannelEv                  0x080028da   Section        0  adc.o(i._ZN3Adc10setChannelEv)
    i._ZN3Adc12getRCCPeriphEP11ADC_TypeDef   0x08002900   Section        0  adc.o(i._ZN3Adc12getRCCPeriphEP11ADC_TypeDef)
    i._ZN3Adc6getADCEv                       0x08002928   Section        0  adc.o(i._ZN3Adc6getADCEv)
    i._ZN3Adc7adcInitEh                      0x0800292e   Section        0  adc.o(i._ZN3Adc7adcInitEh)
    i._ZN3Adc8startADCEv                     0x08002956   Section        0  adc.o(i._ZN3Adc8startADCEv)
    i._ZN3Adc9getCyclesEh                    0x08002992   Section        0  adc.o(i._ZN3Adc9getCyclesEh)
    i._ZN3AdcC1EP11ADC_TypeDefhh             0x080029b8   Section        0  adc.o(i._ZN3AdcC1EP11ADC_TypeDefhh)
    i._ZN3Dma10dataReturnEh                  0x080029f0   Section        0  dma.o(i._ZN3Dma10dataReturnEh)
    i._ZN3Dma12adcInitInDmaEh                0x08002a00   Section        0  dma.o(i._ZN3Dma12adcInitInDmaEh)
    i._ZN3Dma7dmaInitEP18DMA_Stream_TypeDefjj 0x08002a2a   Section        0  dma.o(i._ZN3Dma7dmaInitEP18DMA_Stream_TypeDefjj)
    i._ZN3DmaC1EjR3AdcP18DMA_Stream_TypeDefjjh 0x08002a96   Section        0  dma.o(i._ZN3DmaC1EjR3AdcP18DMA_Stream_TypeDefjjh)
    i._ZN3Pin12RCC_ClockCmdEv                0x08002ad4   Section        0  pin.o(i._ZN3Pin12RCC_ClockCmdEv)
    i._ZN3Pin12setTimParamsEt                0x08002c08   Section        0  pin.o(i._ZN3Pin12setTimParamsEt)
    i._ZN3Pin13setAFforUSARTEt               0x08002cfc   Section        0  pin.o(i._ZN3Pin13setAFforUSARTEt)
    i._ZN3Pin3pwmEj                          0x08002d24   Section        0  pin.o(i._ZN3Pin3pwmEj)
    i._ZN3Pin3setEb                          0x08002d68   Section        0  pin.o(i._ZN3Pin3setEb)
    i._ZN3Pin6getPinEv                       0x08002d88   Section        0  pin.o(i._ZN3Pin6getPinEv)
    i._ZN3Pin6setBitEv                       0x08002d8e   Section        0  pin.o(i._ZN3Pin6setBitEv)
    i._ZN3Pin6setPinEh                       0x08002d9e   Section        0  pin.o(i._ZN3Pin6setPinEh)
    i._ZN3Pin7pwmInitEsjh                    0x08002e6c   Section        0  pin.o(i._ZN3Pin7pwmInitEsjh)
    i._ZN3Pin7readPinEv                      0x08002f98   Section        0  pin.o(i._ZN3Pin7readPinEv)
    i._ZN3Pin7setGPIOEc                      0x08002fb0   Section        0  pin.o(i._ZN3Pin7setGPIOEc)
    i._ZN3Pin8getGPIOxEv                     0x08003024   Section        0  pin.o(i._ZN3Pin8getGPIOxEv)
    i._ZN3Pin8resetBitEv                     0x0800302a   Section        0  pin.o(i._ZN3Pin8resetBitEv)
    i._ZN3Pin9getPeriodEv                    0x0800303a   Section        0  pin.o(i._ZN3Pin9getPeriodEv)
    i._ZN3PinC1Echt                          0x08003044   Section        0  pin.o(i._ZN3PinC1Echt)
    i._ZN4TSOP11angleOffsetEddd              0x08003278   Section        0  tsop.o(i._ZN4TSOP11angleOffsetEddd)
    i._ZN4TSOP11convertDistEd                0x0800342c   Section        0  tsop.o(i._ZN4TSOP11convertDistEd)
    i._ZN4TSOP11updateTSOPsEv                0x080034d8   Section        0  tsop.o(i._ZN4TSOP11updateTSOPsEv)
    i._ZN4TSOP6adductEs                      0x080035f0   Section        0  tsop.o(i._ZN4TSOP6adductEs)
    i._ZN4TSOP7ballFarEf                     0x08003610   Section        0  tsop.o(i._ZN4TSOP7ballFarEf)
    i._ZN4TSOP7distBadEs                     0x0800364c   Section        0  tsop.o(i._ZN4TSOP7distBadEs)
    i._ZN4TSOP7getDistEv                     0x0800365c   Section        0  tsop.o(i._ZN4TSOP7getDistEv)
    i._ZN4TSOP8getAngleEv                    0x08003662   Section        0  tsop.o(i._ZN4TSOP8getAngleEv)
    i._ZN4TSOP9calculateEv                   0x08003668   Section        0  tsop.o(i._ZN4TSOP9calculateEv)
    i._ZN4TSOPC1ER3PinS1_S1_S1_S1_S1_        0x08003798   Section        0  tsop.o(i._ZN4TSOPC1ER3PinS1_S1_S1_S1_S1_)
    i._ZN5Motor11getMaxSpeedEv               0x08003818   Section        0  motor.o(i._ZN5Motor11getMaxSpeedEv)
    i._ZN5Motor2goEs                         0x08003824   Section        0  motor.o(i._ZN5Motor2goEs)
    i._ZN5Motor7disableEv                    0x08003890   Section        0  motor.o(i._ZN5Motor7disableEv)
    i._ZN5MotorC1ER3PinhS1_h                 0x080038a8   Section        0  motor.o(i._ZN5MotorC1ER3PinhS1_h)
    i._ZN5Vec2b8changeToES_                  0x080038f0   Section        0  vec2b.o(i._ZN5Vec2b8changeToES_)
    i._ZN5Vec2bC1Edd                         0x08003c88   Section        0  vec2b.o(i._ZN5Vec2bC1Edd)
    i._ZN5Vec2bC1Ev                          0x08003c94   Section        0  vec2b.o(i._ZN5Vec2bC1Ev)
    i._ZN5Vec2bmLERKf                        0x08003cb0   Section        0  vec2b.o(i._ZN5Vec2bmLERKf)
    i._ZN5Vec2bplERKS_                       0x08003cf8   Section        0  vec2b.o(i._ZN5Vec2bplERKS_)
    i._ZN5uart110usart1InitEjfh              0x08003f14   Section        0  usart1.o(i._ZN5uart110usart1InitEjfh)
    i._ZN5uart14readEv                       0x0800407c   Section        0  usart1.o(i._ZN5uart14readEv)
    i._ZN5uart19availableEv                  0x080040c4   Section        0  usart1.o(i._ZN5uart19availableEv)
    i._ZN5uart210usart2InitEjfh              0x080040f8   Section        0  usart2.o(i._ZN5uart210usart2InitEjfh)
    i._ZN5uart24readEv                       0x08004260   Section        0  usart2.o(i._ZN5uart24readEv)
    i._ZN5uart29availableEv                  0x080042a8   Section        0  usart2.o(i._ZN5uart29availableEv)
    i._ZN5uart310usart3InitEjfh              0x080042dc   Section        0  usart3.o(i._ZN5uart310usart3InitEjfh)
    i._ZN5uart34readEv                       0x08004444   Section        0  usart3.o(i._ZN5uart34readEv)
    i._ZN5uart39availableEv                  0x0800448c   Section        0  usart3.o(i._ZN5uart39availableEv)
    i._ZN5uart610usart6InitEjfh              0x080044c0   Section        0  usart6.o(i._ZN5uart610usart6InitEjfh)
    i._ZN5uart64readEv                       0x08004628   Section        0  usart6.o(i._ZN5uart64readEv)
    i._ZN5uart69availableEv                  0x08004670   Section        0  usart6.o(i._ZN5uart69availableEv)
    i._ZN6Button7pressedEv                   0x080046a4   Section        0  button.o(i._ZN6Button7pressedEv)
    i._ZN6ButtonC1E3Pinb                     0x08004784   Section        0  button.o(i._ZN6ButtonC1E3Pinb)
    i._ZN6Kicker12getDMASignalEv             0x080047ac   Section        0  kicker.o(i._ZN6Kicker12getDMASignalEv)
    i._ZN6Kicker15setKickerStatusEb          0x080047c0   Section        0  kicker.o(i._ZN6Kicker15setKickerStatusEb)
    i._ZN6Kicker4openEv                      0x08004878   Section        0  kicker.o(i._ZN6Kicker4openEv)
    i._ZN6Kicker5closeEv                     0x08004884   Section        0  kicker.o(i._ZN6Kicker5closeEv)
    i._ZN6Kicker7canKickEv                   0x08004890   Section        0  kicker.o(i._ZN6Kicker7canKickEv)
    i._ZN6KickerC1ER3PinR3Dma                0x08004898   Section        0  kicker.o(i._ZN6KickerC1ER3PinR3Dma)
    i._ZN6OpenMV10initCoordsEv               0x080048b8   Section        0  openmv.o(i._ZN6OpenMV10initCoordsEv)
    i._ZN6OpenMV11adductionMVEs              0x080048d0   Section        0  openmv.o(i._ZN6OpenMV11adductionMVEs)
    i._ZN6OpenMV11getDistBlueEv              0x080048f0   Section        0  openmv.o(i._ZN6OpenMV11getDistBlueEv)
    i._ZN6OpenMV12getAngleBlueEv             0x080048f8   Section        0  openmv.o(i._ZN6OpenMV12getAngleBlueEv)
    i._ZN6OpenMV13getDistYellowEv            0x08004900   Section        0  openmv.o(i._ZN6OpenMV13getDistYellowEv)
    i._ZN6OpenMV14getAngleYellowEv           0x08004908   Section        0  openmv.o(i._ZN6OpenMV14getAngleYellowEv)
    i._ZN6OpenMV4crc8EPVhh                   0x08004910   Section        0  openmv.o(i._ZN6OpenMV4crc8EPVhh)
    i._ZN6OpenMV4getXEv                      0x0800494a   Section        0  openmv.o(i._ZN6OpenMV4getXEv)
    i._ZN6OpenMV4getYEv                      0x0800495c   Section        0  openmv.o(i._ZN6OpenMV4getYEv)
    i._ZN6OpenMV4readEv                      0x0800496e   Section        0  openmv.o(i._ZN6OpenMV4readEv)
    i._ZN6OpenMV9calculateEsbb               0x08004a98   Section        0  openmv.o(i._ZN6OpenMV9calculateEsbb)
    i._ZN6OpenMV9initUSARTEh                 0x08004d54   Section        0  openmv.o(i._ZN6OpenMV9initUSARTEh)
    i._ZN6OpenMVC1ER3PinS1_h                 0x08004dac   Section        0  openmv.o(i._ZN6OpenMVC1ER3PinS1_h)
    i._ZN7Forward10myGoalLineEss             0x08004de8   Section        0  forward.o(i._ZN7Forward10myGoalLineEss)
    i._ZN7Forward10nearMyGoalEv              0x08004e60   Section        0  forward.o(i._ZN7Forward10nearMyGoalEv)
    i._ZN7Forward10robotInOUTEv              0x08004f90   Section        0  forward.o(i._ZN7Forward10robotInOUTEv)
    i._ZN7Forward10setVec2OutEh5Vec2b        0x08004fa4   Section        0  forward.o(i._ZN7Forward10setVec2OutEh5Vec2b)
    i._ZN7Forward11getBallSideEf             0x080051a0   Section        0  forward.o(i._ZN7Forward11getBallSideEf)
    i._ZN7Forward11inEnemyGoalEv             0x080051cc   Section        0  forward.o(i._ZN7Forward11inEnemyGoalEv)
    i._ZN7Forward11resetCountsEv             0x08005202   Section        0  forward.o(i._ZN7Forward11resetCountsEv)
    i._ZN7Forward11vec2bOnGoalEff            0x0800520c   Section        0  forward.o(i._ZN7Forward11vec2bOnGoalEff)
    i._ZN7Forward12robotNearOUTEh            0x08005434   Section        0  forward.o(i._ZN7Forward12robotNearOUTEh)
    i._ZN7Forward13enemyGoalLineEss          0x08005494   Section        0  forward.o(i._ZN7Forward13enemyGoalLineEss)
    i._ZN7Forward13projectionOnYE5Vec2b      0x08005510   Section        0  forward.o(i._ZN7Forward13projectionOnYE5Vec2b)
    i._ZN7Forward14isMyGoalCircleEssss       0x080055f8   Section        0  forward.o(i._ZN7Forward14isMyGoalCircleEssss)
    i._ZN7Forward15setResOUTVectorE7OutPair5Vec2b 0x080056e4   Section        0  forward.o(i._ZN7Forward15setResOUTVectorE7OutPair5Vec2b)
    i._ZN7Forward16robotInFreeFieldEv        0x080057b4   Section        0  forward.o(i._ZN7Forward16robotInFreeFieldEv)
    i._ZN7Forward17getVecForMyCircleEss      0x080057c8   Section        0  forward.o(i._ZN7Forward17getVecForMyCircleEss)
    i._ZN7Forward17isEnemyGoalCircleEssss    0x0800587c   Section        0  forward.o(i._ZN7Forward17isEnemyGoalCircleEssss)
    i._ZN7Forward20getVecForEnemyCircleEss   0x08005994   Section        0  forward.o(i._ZN7Forward20getVecForEnemyCircleEss)
    i._ZN7Forward8inMyGoalEv                 0x08005ac8   Section        0  forward.o(i._ZN7Forward8inMyGoalEv)
    i._ZN7Forward9ballInOUTEf                0x08005b00   Section        0  forward.o(i._ZN7Forward9ballInOUTEf)
    i._ZN7Forward9checkOUTsEv                0x08005c04   Section        0  forward.o(i._ZN7Forward9checkOUTsEv)
    i._ZN7ForwardC1Ev                        0x08005d3e   Section        0  forward.o(i._ZN7ForwardC1Ev)
    i._ZN7OutPair6setOutEh                   0x08005d5a   Section        0  forward.o(i._ZN7OutPair6setOutEh)
    i._ZN7OutPairC1Ev                        0x08005d6a   Section        0  main.o(i._ZN7OutPairC1Ev)
    i._ZN7OutPairaSERKS_                     0x08005d72   Section        0  main.o(i._ZN7OutPairaSERKS_)
    i._ZN8Asterisk10calibratedEv             0x08005d7c   Section        0  main.o(i._ZN8Asterisk10calibratedEv)
    i._ZN8Asterisk15forwardStrategyEv        0x08005d88   Section        0  main.o(i._ZN8Asterisk15forwardStrategyEv)
    i._ZN8Asterisk18goalkeeperStrategyEv     0x080064b0   Section        0  main.o(i._ZN8Asterisk18goalkeeperStrategyEv)
    i._ZN8Asterisk20getVec2bToBallFollowEv   0x08006fc4   Section        0  main.o(i._ZN8Asterisk20getVec2bToBallFollowEv)
    i._ZN8Asterisk4initEhhh                  0x080072a4   Section        0  main.o(i._ZN8Asterisk4initEhhh)
    i._ZN8Asterisk6updateEv                  0x080074c8   Section        0  main.o(i._ZN8Asterisk6updateEv)
    i._ZN8Asterisk7getRoleEv                 0x08007a38   Section        0  main.o(i._ZN8Asterisk7getRoleEv)
    i._ZN8Asterisk9mustLeaveEv               0x08007a44   Section        0  main.o(i._ZN8Asterisk9mustLeaveEv)
    i._ZN8gyro_imu11adduct0_360Ef            0x08007bbc   Section        0  imu_usart.o(i._ZN8gyro_imu11adduct0_360Ef)
    i._ZN8gyro_imu11getRotationEv            0x08007bf8   Section        0  imu_usart.o(i._ZN8gyro_imu11getRotationEv)
    i._ZN8gyro_imu12setZeroAngleEv           0x08007c00   Section        0  imu_usart.o(i._ZN8gyro_imu12setZeroAngleEv)
    i._ZN8gyro_imu13calculateSoftEffh        0x08007cec   Section        0  imu_usart.o(i._ZN8gyro_imu13calculateSoftEffh)
    i._ZN8gyro_imu14getMaxRotationEv         0x08007da0   Section        0  imu_usart.o(i._ZN8gyro_imu14getMaxRotationEv)
    i._ZN8gyro_imu15getCurrentAngleEv        0x08007da8   Section        0  imu_usart.o(i._ZN8gyro_imu15getCurrentAngleEv)
    i._ZN8gyro_imu20setRotationForTargetEv   0x08007db0   Section        0  imu_usart.o(i._ZN8gyro_imu20setRotationForTargetEv)
    i._ZN8gyro_imu4readEv                    0x08007e10   Section        0  imu_usart.o(i._ZN8gyro_imu4readEv)
    i._ZN8gyro_imu6adductEs                  0x08007f20   Section        0  imu_usart.o(i._ZN8gyro_imu6adductEs)
    i._ZN8gyro_imu9getTargetEv               0x08007f40   Section        0  imu_usart.o(i._ZN8gyro_imu9getTargetEv)
    i._ZN8gyro_imu9initUSARTEh               0x08007f52   Section        0  imu_usart.o(i._ZN8gyro_imu9initUSARTEh)
    i._ZN8gyro_imu9setTargetEf               0x08007fa8   Section        0  imu_usart.o(i._ZN8gyro_imu9setTargetEf)
    i._ZN8gyro_imuC1ER3PinS1_h               0x08007fcc   Section        0  imu_usart.o(i._ZN8gyro_imuC1ER3PinS1_h)
    i._ZN9BallVec2b12changeValuesEb          0x08007ffc   Section        0  queues_ball.o(i._ZN9BallVec2b12changeValuesEb)
    i._ZN9BallVec2b16getDerivativeAngEv      0x080082b2   Section        0  queues_ball.o(i._ZN9BallVec2b16getDerivativeAngEv)
    i._ZN9BallVec2b17getDerivativeDistEv     0x080082bc   Section        0  queues_ball.o(i._ZN9BallVec2b17getDerivativeDistEv)
    i._ZN9BallVec2b18setTransitionBy360Ev    0x080082c8   Section        0  queues_ball.o(i._ZN9BallVec2b18setTransitionBy360Ev)
    i._ZN9BallVec2b4pushE5Vec2bx             0x080083d4   Section        0  queues_ball.o(i._ZN9BallVec2b4pushE5Vec2bx)
    i._ZN9BallVec2b6adductEd                 0x080085c0   Section        0  queues_ball.o(i._ZN9BallVec2b6adductEd)
    i._ZN9BallVec2b9calculateEv              0x08008648   Section        0  queues_ball.o(i._ZN9BallVec2b9calculateEv)
    i._ZN9BallVec2bC1Ev                      0x08008b6c   Section        0  queues_ball.o(i._ZN9BallVec2bC1Ev)
    i._ZN9Vec2bTime3setEddjs                 0x08008c20   Section        0  queues_ball.o(i._ZN9Vec2bTime3setEddjs)
    i._ZN9Vec2bTime6getLenEv                 0x08008c32   Section        0  queues_ball.o(i._ZN9Vec2bTime6getLenEv)
    i._ZN9Vec2bTime7correctEv                0x08008c38   Section        0  queues_ball.o(i._ZN9Vec2bTime7correctEv)
    i._ZN9Vec2bTime7getTimeEv                0x08008c98   Section        0  queues_ball.o(i._ZN9Vec2bTime7getTimeEv)
    i._ZN9Vec2bTime8getAngleEv               0x08008c9e   Section        0  queues_ball.o(i._ZN9Vec2bTime8getAngleEv)
    i._ZN9Vec2bTimeC1Ev                      0x08008ca4   Section        0  queues_ball.o(i._ZN9Vec2bTimeC1Ev)
    i._ZSt3absd                              0x08008cb2   Section        0  main.o(i._ZSt3absd)
    i._ZSt3absf                              0x08008cd2   Section        0  main.o(i._ZSt3absf)
    i._ZSt3cosf                              0x08008cdc   Section        0  openmv.o(i._ZSt3cosf)
    i._ZSt3powdi                             0x08008cf4   Section        0  queues_ball.o(i._ZSt3powdi)
    i._ZSt3powff                             0x08008d28   Section        0  goalkeeper.o(i._ZSt3powff)
    i._ZSt3powfi                             0x08008d48   Section        0  goalkeeper.o(i._ZSt3powfi)
    i._ZSt3sinf                              0x08008d6a   Section        0  openmv.o(i._ZSt3sinf)
    i._ZSt4sqrtf                             0x08008d82   Section        0  processing_coord.o(i._ZSt4sqrtf)
    i._ZSt5atan2ff                           0x08008d9a   Section        0  main.o(i._ZSt5atan2ff)
    i.__ARM_fpclassify                       0x08008dba   Section        0  fpclassify.o(i.__ARM_fpclassify)
    i.__ARM_fpclassifyf                      0x08008dea   Section        0  fpclassifyf.o(i.__ARM_fpclassifyf)
    i.__aeabi_vec_ctor_nocookie_nodtor       0x08008e10   Section        0  aeabi_vec_ctor_nocookie_nodtor.o(i.__aeabi_vec_ctor_nocookie_nodtor)
    i.__hardfp_atan                          0x08008e38   Section        0  atan.o(i.__hardfp_atan)
    i.__hardfp_atan2                         0x08009110   Section        0  atan2.o(i.__hardfp_atan2)
    i.__hardfp_atan2f                        0x08009310   Section        0  atan2f.o(i.__hardfp_atan2f)
    i.__hardfp_cos                           0x080095c0   Section        0  cos.o(i.__hardfp_cos)
    i.__hardfp_cosf                          0x08009688   Section        0  cosf.o(i.__hardfp_cosf)
    i.__hardfp_fabs                          0x080097d8   Section        0  fabs.o(i.__hardfp_fabs)
    i.__hardfp_pow                           0x080097f0   Section        0  pow.o(i.__hardfp_pow)
    i.__hardfp_powf                          0x0800a440   Section        0  powf.o(i.__hardfp_powf)
    i.__hardfp_sin                           0x0800aaa8   Section        0  sin.o(i.__hardfp_sin)
    i.__hardfp_sinf                          0x0800ab70   Section        0  sinf.o(i.__hardfp_sinf)
    i.__hardfp_sqrt                          0x0800ad00   Section        0  sqrt.o(i.__hardfp_sqrt)
    i.__hardfp_sqrtf                         0x0800ad7a   Section        0  sqrtf.o(i.__hardfp_sqrtf)
    i.__ieee754_rem_pio2                     0x0800adb8   Section        0  rred.o(i.__ieee754_rem_pio2)
    i.__kernel_cos                           0x0800b1f0   Section        0  cos_i.o(i.__kernel_cos)
    i.__kernel_poly                          0x0800b360   Section        0  poly.o(i.__kernel_poly)
    i.__kernel_sin                           0x0800b458   Section        0  sin_i.o(i.__kernel_sin)
    i.__mathlib_dbl_divzero                  0x0800b588   Section        0  dunder.o(i.__mathlib_dbl_divzero)
    i.__mathlib_dbl_infnan                   0x0800b5b8   Section        0  dunder.o(i.__mathlib_dbl_infnan)
    i.__mathlib_dbl_infnan2                  0x0800b5cc   Section        0  dunder.o(i.__mathlib_dbl_infnan2)
    i.__mathlib_dbl_invalid                  0x0800b5e0   Section        0  dunder.o(i.__mathlib_dbl_invalid)
    i.__mathlib_dbl_overflow                 0x0800b600   Section        0  dunder.o(i.__mathlib_dbl_overflow)
    i.__mathlib_dbl_underflow                0x0800b620   Section        0  dunder.o(i.__mathlib_dbl_underflow)
    i.__mathlib_flt_divzero                  0x0800b640   Section        0  funder.o(i.__mathlib_flt_divzero)
    i.__mathlib_flt_infnan                   0x0800b654   Section        0  funder.o(i.__mathlib_flt_infnan)
    i.__mathlib_flt_infnan2                  0x0800b65a   Section        0  funder.o(i.__mathlib_flt_infnan2)
    i.__mathlib_flt_invalid                  0x0800b660   Section        0  funder.o(i.__mathlib_flt_invalid)
    i.__mathlib_flt_overflow                 0x0800b670   Section        0  funder.o(i.__mathlib_flt_overflow)
    i.__mathlib_flt_underflow                0x0800b680   Section        0  funder.o(i.__mathlib_flt_underflow)
    i.__mathlib_rredf2                       0x0800b690   Section        0  rredf.o(i.__mathlib_rredf2)
    i.__sti___8_main_cpp_ab1d1ed5            0x0800b7e4   Section        0  main.o(i.__sti___8_main_cpp_ab1d1ed5)
    __sti___8_main_cpp_ab1d1ed5              0x0800b7e5   Thumb Code   908  main.o(i.__sti___8_main_cpp_ab1d1ed5)
    i._sys_exit                              0x0800bc90   Section        0  retarget.o(i._sys_exit)
    i.atan                                   0x0800bc94   Section        0  atan.o(i.atan)
    i.fabs                                   0x0800bca4   Section        0  fabs.o(i.fabs)
    i.main                                   0x0800bcbc   Section        0  main.o(i.main)
    i.sqrt                                   0x0800beac   Section        0  sqrt.o(i.sqrt)
    x$fpl$basic                              0x0800bf1a   Section       24  basic.o(x$fpl$basic)
    $v0                                      0x0800bf1a   Number         0  basic.o(x$fpl$basic)
    x$fpl$d2f                                0x0800bf34   Section       98  d2f.o(x$fpl$d2f)
    $v0                                      0x0800bf34   Number         0  d2f.o(x$fpl$d2f)
    x$fpl$dadd                               0x0800bf98   Section      336  daddsub_clz.o(x$fpl$dadd)
    $v0                                      0x0800bf98   Number         0  daddsub_clz.o(x$fpl$dadd)
    _dadd1                                   0x0800bfa9   Thumb Code     0  daddsub_clz.o(x$fpl$dadd)
    x$fpl$dcheck1                            0x0800c0e8   Section       16  dcheck1.o(x$fpl$dcheck1)
    $v0                                      0x0800c0e8   Number         0  dcheck1.o(x$fpl$dcheck1)
    x$fpl$dcmpinf                            0x0800c0f8   Section       24  dcmpi.o(x$fpl$dcmpinf)
    $v0                                      0x0800c0f8   Number         0  dcmpi.o(x$fpl$dcmpinf)
    x$fpl$ddiv                               0x0800c110   Section      688  ddiv.o(x$fpl$ddiv)
    $v0                                      0x0800c110   Number         0  ddiv.o(x$fpl$ddiv)
    ddiv_entry                               0x0800c117   Thumb Code     0  ddiv.o(x$fpl$ddiv)
    x$fpl$deqf                               0x0800c3c0   Section      120  deqf.o(x$fpl$deqf)
    $v0                                      0x0800c3c0   Number         0  deqf.o(x$fpl$deqf)
    x$fpl$dfix                               0x0800c438   Section       94  dfix.o(x$fpl$dfix)
    $v0                                      0x0800c438   Number         0  dfix.o(x$fpl$dfix)
    x$fpl$dflt                               0x0800c496   Section       46  dflt_clz.o(x$fpl$dflt)
    $v0                                      0x0800c496   Number         0  dflt_clz.o(x$fpl$dflt)
    x$fpl$dfltll                             0x0800c4c4   Section      162  dfltll_clz.o(x$fpl$dfltll)
    $v0                                      0x0800c4c4   Number         0  dfltll_clz.o(x$fpl$dfltll)
    x$fpl$dfltu                              0x0800c566   Section       38  dflt_clz.o(x$fpl$dfltu)
    $v0                                      0x0800c566   Number         0  dflt_clz.o(x$fpl$dfltu)
    x$fpl$dfltull                            0x0800c58c   Section      138  dfltll_clz.o(x$fpl$dfltull)
    $v0                                      0x0800c58c   Number         0  dfltll_clz.o(x$fpl$dfltull)
    x$fpl$dleqf                              0x0800c618   Section      120  dleqf.o(x$fpl$dleqf)
    $v0                                      0x0800c618   Number         0  dleqf.o(x$fpl$dleqf)
    x$fpl$dmul                               0x0800c690   Section      340  dmul.o(x$fpl$dmul)
    $v0                                      0x0800c690   Number         0  dmul.o(x$fpl$dmul)
    x$fpl$dnaninf                            0x0800c7e4   Section      156  dnaninf.o(x$fpl$dnaninf)
    $v0                                      0x0800c7e4   Number         0  dnaninf.o(x$fpl$dnaninf)
    x$fpl$dretinf                            0x0800c880   Section       12  dretinf.o(x$fpl$dretinf)
    $v0                                      0x0800c880   Number         0  dretinf.o(x$fpl$dretinf)
    x$fpl$drleqf                             0x0800c88c   Section      108  drleqf.o(x$fpl$drleqf)
    $v0                                      0x0800c88c   Number         0  drleqf.o(x$fpl$drleqf)
    x$fpl$drsb                               0x0800c8f8   Section       22  daddsub_clz.o(x$fpl$drsb)
    $v0                                      0x0800c8f8   Number         0  daddsub_clz.o(x$fpl$drsb)
    x$fpl$dsqrt                              0x0800c910   Section      408  dsqrt_umaal.o(x$fpl$dsqrt)
    $v0                                      0x0800c910   Number         0  dsqrt_umaal.o(x$fpl$dsqrt)
    x$fpl$dsub                               0x0800caa8   Section      468  daddsub_clz.o(x$fpl$dsub)
    $v0                                      0x0800caa8   Number         0  daddsub_clz.o(x$fpl$dsub)
    _dsub1                                   0x0800cab9   Thumb Code     0  daddsub_clz.o(x$fpl$dsub)
    x$fpl$f2d                                0x0800cc7c   Section       86  f2d.o(x$fpl$f2d)
    $v0                                      0x0800cc7c   Number         0  f2d.o(x$fpl$f2d)
    x$fpl$fnaninf                            0x0800ccd2   Section      140  fnaninf.o(x$fpl$fnaninf)
    $v0                                      0x0800ccd2   Number         0  fnaninf.o(x$fpl$fnaninf)
    x$fpl$fpinit                             0x0800cd5e   Section       10  fpinit.o(x$fpl$fpinit)
    $v0                                      0x0800cd5e   Number         0  fpinit.o(x$fpl$fpinit)
    x$fpl$fretinf                            0x0800cd68   Section       10  fretinf.o(x$fpl$fretinf)
    $v0                                      0x0800cd68   Number         0  fretinf.o(x$fpl$fretinf)
    x$fpl$retnan                             0x0800cd72   Section      100  retnan.o(x$fpl$retnan)
    $v0                                      0x0800cd72   Number         0  retnan.o(x$fpl$retnan)
    x$fpl$scalbn                             0x0800cdd6   Section       92  scalbn.o(x$fpl$scalbn)
    $v0                                      0x0800cdd6   Number         0  scalbn.o(x$fpl$scalbn)
    x$fpl$trapveneer                         0x0800ce32   Section       48  trapv.o(x$fpl$trapveneer)
    $v0                                      0x0800ce32   Number         0  trapv.o(x$fpl$trapveneer)
    .constdata                               0x0800ce62   Section       61  retarget.o(.constdata)
    x$fpl$usenofp                            0x0800ce62   Section        0  usenofp.o(x$fpl$usenofp)
    __tagsym$$used                           0x0800ce62   Number         0  retarget.o(.constdata)
    date_time_commit                         0x0800ce62   Data          61  retarget.o(.constdata)
    .constdata                               0x0800cea0   Section      136  pow.o(.constdata)
    bp                                       0x0800cea0   Data          16  pow.o(.constdata)
    dp_h                                     0x0800ceb0   Data          16  pow.o(.constdata)
    dp_l                                     0x0800cec0   Data          16  pow.o(.constdata)
    L                                        0x0800ced0   Data          48  pow.o(.constdata)
    P                                        0x0800cf00   Data          40  pow.o(.constdata)
    .constdata                               0x0800cf28   Section      320  powf.o(.constdata)
    table                                    0x0800cf28   Data         128  powf.o(.constdata)
    powersof2to1over16top                    0x0800cfa8   Data          64  powf.o(.constdata)
    powersof2to1over16bot                    0x0800cfe8   Data          64  powf.o(.constdata)
    powersof2to1over16all                    0x0800d028   Data          64  powf.o(.constdata)
    .constdata                               0x0800d068   Section      152  atan.o(.constdata)
    atanhi                                   0x0800d068   Data          32  atan.o(.constdata)
    atanlo                                   0x0800d088   Data          32  atan.o(.constdata)
    aTodd                                    0x0800d0a8   Data          40  atan.o(.constdata)
    aTeven                                   0x0800d0d0   Data          48  atan.o(.constdata)
    .constdata                               0x0800d100   Section       48  cos_i.o(.constdata)
    C                                        0x0800d100   Data          48  cos_i.o(.constdata)
    .constdata                               0x0800d130   Section        8  qnan.o(.constdata)
    .constdata                               0x0800d138   Section      200  rred.o(.constdata)
    pio2s                                    0x0800d138   Data          48  rred.o(.constdata)
    twooverpi                                0x0800d168   Data         152  rred.o(.constdata)
    .constdata                               0x0800d200   Section       32  rredf.o(.constdata)
    twooverpi                                0x0800d200   Data          32  rredf.o(.constdata)
    .constdata                               0x0800d220   Section       40  sin_i.o(.constdata)
    S                                        0x0800d220   Data          40  sin_i.o(.constdata)
    .init_array                              0x0800d268   Section        4  main.o(.init_array)
    .init_array                              0x0800d26c   Section        0  init_aeabi.o(.init_array)
    .data                                    0x20000000   Section      284  main.o(.data)
    .data                                    0x2000011c   Section        4  goalkeeper.o(.data)
    errOld                                   0x2000011c   Data           4  goalkeeper.o(.data)
    .data                                    0x20000120   Section        8  time_service.o(.data)
    .data                                    0x20000128   Section       25  usart1.o(.data)
    .data                                    0x20000142   Section       25  usart2.o(.data)
    .data                                    0x2000015c   Section       25  usart3.o(.data)
    .data                                    0x20000176   Section       25  usart6.o(.data)
    .data                                    0x20000190   Section       22  spi_1.o(.data)
    .data                                    0x200001a6   Section       16  stm32f4xx_rcc.o(.data)
    APBAHBPrescTable                         0x200001a6   Data          16  stm32f4xx_rcc.o(.data)
    .bss                                     0x200001b8   Section     7964  main.o(.bss)
    .bss                                     0x200020d4   Section       32  spi_1.o(.bss)
    .bss                                     0x200020f4   Section       96  libspace.o(.bss)
    HEAP                                     0x20002158   Section     3840  startup_stm32f407xx.o(HEAP)
    Heap_Mem                                 0x20002158   Data        3840  startup_stm32f407xx.o(HEAP)
    STACK                                    0x20003058   Section     4080  startup_stm32f407xx.o(STACK)
    Stack_Mem                                0x20003058   Data        4080  startup_stm32f407xx.o(STACK)
    __initial_sp                             0x20004048   Data           0  startup_stm32f407xx.o(STACK)

    Global Symbols

    Symbol Name                              Value     Ov Type        Size  Object(Section)

    BuildAttributes$$THM_ISAv4$E$P$D$K$B$S$7EM$VFPi3$EXTD16$VFPS$VFMA$PE$A:L22UL41UL21$X:L11$S22US41US21$IEEE1$IW$USESV6$~STKCKD$USESV7$~SHL$OTIME$ROPI$IEEEX$EBA8$UX$STANDARDLIB$REQ8$PRES8$EABIv2 0x00000000   Number         0  anon$$obj.o ABSOLUTE
    __ARM_use_no_argv                        0x00000000   Number         0  main.o ABSOLUTE
    SHT$$ARM_EXIDX$$Base                      - Undefined Reference
    SHT$$ARM_EXIDX$$Limit                     - Undefined Reference
    __ARM_exceptions_init                     - Undefined Weak Reference
    __aeabi_unwind_cpp_pr1                    - Undefined Weak Reference
    __aeabi_unwind_cpp_pr2                    - Undefined Weak Reference
    __alloca_initialize                       - Undefined Weak Reference
    __arm_fini_                               - Undefined Weak Reference
    __arm_preinit_                            - Undefined Weak Reference
    __cxa_begin_cleanup                       - Undefined Weak Reference
    __cxa_call_unexpected                     - Undefined Weak Reference
    __cxa_finalize                            - Undefined Weak Reference
    __cxa_type_match                          - Undefined Weak Reference
    __rt_locale                               - Undefined Weak Reference
    __sigvec_lookup                           - Undefined Weak Reference
    __user_heap_extent                        - Undefined Weak Reference
    _atexit_init                              - Undefined Weak Reference
    _call_atexit_fns                          - Undefined Weak Reference
    _clock_init                               - Undefined Weak Reference
    _fp_trap_init                             - Undefined Weak Reference
    _fp_trap_shutdown                         - Undefined Weak Reference
    _get_lc_collate                           - Undefined Weak Reference
    _get_lc_ctype                             - Undefined Weak Reference
    _get_lc_monetary                          - Undefined Weak Reference
    _get_lc_numeric                           - Undefined Weak Reference
    _get_lc_time                              - Undefined Weak Reference
    _getenv_init                              - Undefined Weak Reference
    _handle_redirection                       - Undefined Weak Reference
    _initio                                   - Undefined Weak Reference
    _mutex_acquire                            - Undefined Weak Reference
    _mutex_free                               - Undefined Weak Reference
    _mutex_release                            - Undefined Weak Reference
    _rand_init                                - Undefined Weak Reference
    _signal_finish                            - Undefined Weak Reference
    _signal_init                              - Undefined Weak Reference
    _terminateio                              - Undefined Weak Reference
    __Vectors_Size                           0x00000188   Number         0  startup_stm32f407xx.o ABSOLUTE
    __Vectors                                0x08000000   Data           4  startup_stm32f407xx.o(RESET)
    __Vectors_End                            0x08000188   Data           0  startup_stm32f407xx.o(RESET)
    __main                                   0x08000189   Thumb Code     8  __main.o(!!!main)
    __scatterload                            0x08000191   Thumb Code     0  __scatter.o(!!!scatter)
    __scatterload_rt2                        0x08000191   Thumb Code    44  __scatter.o(!!!scatter)
    __scatterload_rt2_thumb_only             0x08000191   Thumb Code     0  __scatter.o(!!!scatter)
    __scatterload_null                       0x0800019f   Thumb Code     0  __scatter.o(!!!scatter)
    __decompress                             0x080001c5   Thumb Code    90  __dczerorl2.o(!!dczerorl2)
    __decompress1                            0x080001c5   Thumb Code     0  __dczerorl2.o(!!dczerorl2)
    __scatterload_zeroinit                   0x08000221   Thumb Code    28  __scatter_zi.o(!!handler_zi)
    __rt_lib_init                            0x0800023d   Thumb Code     0  libinit.o(.ARM.Collect$$libinit$$00000000)
    __rt_lib_init_fp_1                       0x0800023f   Thumb Code     0  libinit2.o(.ARM.Collect$$libinit$$00000001)
    __rt_lib_init_alloca_1                   0x08000243   Thumb Code     0  libinit2.o(.ARM.Collect$$libinit$$0000002E)
    __rt_lib_init_argv_1                     0x08000243   Thumb Code     0  libinit2.o(.ARM.Collect$$libinit$$0000002C)
    __rt_lib_init_atexit_1                   0x08000243   Thumb Code     0  libinit2.o(.ARM.Collect$$libinit$$0000001B)
    __rt_lib_init_clock_1                    0x08000243   Thumb Code     0  libinit2.o(.ARM.Collect$$libinit$$00000021)
    __rt_lib_init_cpp_2                      0x08000243   Thumb Code     0  libinit2.o(.ARM.Collect$$libinit$$00000031)
    __rt_lib_init_exceptions_1               0x08000243   Thumb Code     0  libinit2.o(.ARM.Collect$$libinit$$00000030)
    __rt_lib_init_fp_trap_1                  0x08000243   Thumb Code     0  libinit2.o(.ARM.Collect$$libinit$$0000001F)
    __rt_lib_init_getenv_1                   0x08000243   Thumb Code     0  libinit2.o(.ARM.Collect$$libinit$$00000023)
    __rt_lib_init_heap_1                     0x08000243   Thumb Code     0  libinit2.o(.ARM.Collect$$libinit$$0000000A)
    __rt_lib_init_lc_collate_1               0x08000243   Thumb Code     0  libinit2.o(.ARM.Collect$$libinit$$00000011)
    __rt_lib_init_lc_ctype_1                 0x08000243   Thumb Code     0  libinit2.o(.ARM.Collect$$libinit$$00000013)
    __rt_lib_init_lc_monetary_1              0x08000243   Thumb Code     0  libinit2.o(.ARM.Collect$$libinit$$00000015)
    __rt_lib_init_lc_numeric_1               0x08000243   Thumb Code     0  libinit2.o(.ARM.Collect$$libinit$$00000017)
    __rt_lib_init_lc_time_1                  0x08000243   Thumb Code     0  libinit2.o(.ARM.Collect$$libinit$$00000019)
    __rt_lib_init_preinit_1                  0x08000243   Thumb Code     0  libinit2.o(.ARM.Collect$$libinit$$00000004)
    __rt_lib_init_rand_1                     0x08000243   Thumb Code     0  libinit2.o(.ARM.Collect$$libinit$$0000000E)
    __rt_lib_init_signal_1                   0x08000243   Thumb Code     0  libinit2.o(.ARM.Collect$$libinit$$0000001D)
    __rt_lib_init_stdio_1                    0x08000243   Thumb Code     0  libinit2.o(.ARM.Collect$$libinit$$00000025)
    __rt_lib_init_user_alloc_1               0x08000243   Thumb Code     0  libinit2.o(.ARM.Collect$$libinit$$0000000C)
    __rt_lib_init_cpp_1                      0x08000247   Thumb Code     0  libinit2.o(.ARM.Collect$$libinit$$00000032)
    __rt_lib_init_return                     0x08000247   Thumb Code     0  libinit2.o(.ARM.Collect$$libinit$$00000033)
    __rt_lib_shutdown                        0x08000249   Thumb Code     0  libshutdown.o(.ARM.Collect$$libshutdown$$00000000)
    __rt_lib_shutdown_cpp_1                  0x0800024b   Thumb Code     0  libshutdown2.o(.ARM.Collect$$libshutdown$$00000004)
    __rt_lib_shutdown_fini_1                 0x0800024b   Thumb Code     0  libshutdown2.o(.ARM.Collect$$libshutdown$$00000002)
    __rt_lib_shutdown_fp_trap_1              0x0800024b   Thumb Code     0  libshutdown2.o(.ARM.Collect$$libshutdown$$00000009)
    __rt_lib_shutdown_heap_1                 0x0800024b   Thumb Code     0  libshutdown2.o(.ARM.Collect$$libshutdown$$00000011)
    __rt_lib_shutdown_return                 0x0800024b   Thumb Code     0  libshutdown2.o(.ARM.Collect$$libshutdown$$00000012)
    __rt_lib_shutdown_signal_1               0x0800024b   Thumb Code     0  libshutdown2.o(.ARM.Collect$$libshutdown$$0000000C)
    __rt_lib_shutdown_stdio_1                0x0800024b   Thumb Code     0  libshutdown2.o(.ARM.Collect$$libshutdown$$00000006)
    __rt_lib_shutdown_user_alloc_1           0x0800024b   Thumb Code     0  libshutdown2.o(.ARM.Collect$$libshutdown$$0000000E)
    __rt_entry                               0x0800024d   Thumb Code     0  __rtentry.o(.ARM.Collect$$rtentry$$00000000)
    __rt_entry_presh_1                       0x0800024d   Thumb Code     0  __rtentry2.o(.ARM.Collect$$rtentry$$00000002)
    __rt_entry_sh                            0x0800024d   Thumb Code     0  __rtentry4.o(.ARM.Collect$$rtentry$$00000004)
    __rt_entry_li                            0x08000253   Thumb Code     0  __rtentry2.o(.ARM.Collect$$rtentry$$0000000A)
    __rt_entry_postsh_1                      0x08000253   Thumb Code     0  __rtentry2.o(.ARM.Collect$$rtentry$$00000009)
    __rt_entry_main                          0x08000257   Thumb Code     0  __rtentry2.o(.ARM.Collect$$rtentry$$0000000D)
    __rt_entry_postli_1                      0x08000257   Thumb Code     0  __rtentry2.o(.ARM.Collect$$rtentry$$0000000C)
    __rt_exit                                0x0800025f   Thumb Code     0  rtexit.o(.ARM.Collect$$rtexit$$00000000)
    __rt_exit_ls                             0x08000261   Thumb Code     0  rtexit2.o(.ARM.Collect$$rtexit$$00000003)
    __rt_exit_prels_1                        0x08000261   Thumb Code     0  rtexit2.o(.ARM.Collect$$rtexit$$00000002)
    __rt_exit_exit                           0x08000265   Thumb Code     0  rtexit2.o(.ARM.Collect$$rtexit$$00000004)
    Reset_Handler                            0x0800026d   Thumb Code     8  startup_stm32f407xx.o(.text)
    NMI_Handler                              0x08000275   Thumb Code     2  startup_stm32f407xx.o(.text)
    HardFault_Handler                        0x08000277   Thumb Code     2  startup_stm32f407xx.o(.text)
    MemManage_Handler                        0x08000279   Thumb Code     2  startup_stm32f407xx.o(.text)
    BusFault_Handler                         0x0800027b   Thumb Code     2  startup_stm32f407xx.o(.text)
    UsageFault_Handler                       0x0800027d   Thumb Code     2  startup_stm32f407xx.o(.text)
    SVC_Handler                              0x0800027f   Thumb Code     2  startup_stm32f407xx.o(.text)
    DebugMon_Handler                         0x08000281   Thumb Code     2  startup_stm32f407xx.o(.text)
    PendSV_Handler                           0x08000283   Thumb Code     2  startup_stm32f407xx.o(.text)
    ADC_IRQHandler                           0x08000287   Thumb Code     0  startup_stm32f407xx.o(.text)
    CAN1_RX0_IRQHandler                      0x08000287   Thumb Code     0  startup_stm32f407xx.o(.text)
    CAN1_RX1_IRQHandler                      0x08000287   Thumb Code     0  startup_stm32f407xx.o(.text)
    CAN1_SCE_IRQHandler                      0x08000287   Thumb Code     0  startup_stm32f407xx.o(.text)
    CAN1_TX_IRQHandler                       0x08000287   Thumb Code     0  startup_stm32f407xx.o(.text)
    CAN2_RX0_IRQHandler                      0x08000287   Thumb Code     0  startup_stm32f407xx.o(.text)
    CAN2_RX1_IRQHandler                      0x08000287   Thumb Code     0  startup_stm32f407xx.o(.text)
    CAN2_SCE_IRQHandler                      0x08000287   Thumb Code     0  startup_stm32f407xx.o(.text)
    CAN2_TX_IRQHandler                       0x08000287   Thumb Code     0  startup_stm32f407xx.o(.text)
    DCMI_IRQHandler                          0x08000287   Thumb Code     0  startup_stm32f407xx.o(.text)
    DMA1_Stream0_IRQHandler                  0x08000287   Thumb Code     0  startup_stm32f407xx.o(.text)
    DMA1_Stream1_IRQHandler                  0x08000287   Thumb Code     0  startup_stm32f407xx.o(.text)
    DMA1_Stream2_IRQHandler                  0x08000287   Thumb Code     0  startup_stm32f407xx.o(.text)
    DMA1_Stream3_IRQHandler                  0x08000287   Thumb Code     0  startup_stm32f407xx.o(.text)
    DMA1_Stream4_IRQHandler                  0x08000287   Thumb Code     0  startup_stm32f407xx.o(.text)
    DMA1_Stream5_IRQHandler                  0x08000287   Thumb Code     0  startup_stm32f407xx.o(.text)
    DMA1_Stream6_IRQHandler                  0x08000287   Thumb Code     0  startup_stm32f407xx.o(.text)
    DMA1_Stream7_IRQHandler                  0x08000287   Thumb Code     0  startup_stm32f407xx.o(.text)
    DMA2_Stream0_IRQHandler                  0x08000287   Thumb Code     0  startup_stm32f407xx.o(.text)
    DMA2_Stream1_IRQHandler                  0x08000287   Thumb Code     0  startup_stm32f407xx.o(.text)
    DMA2_Stream2_IRQHandler                  0x08000287   Thumb Code     0  startup_stm32f407xx.o(.text)
    DMA2_Stream3_IRQHandler                  0x08000287   Thumb Code     0  startup_stm32f407xx.o(.text)
    DMA2_Stream4_IRQHandler                  0x08000287   Thumb Code     0  startup_stm32f407xx.o(.text)
    DMA2_Stream5_IRQHandler                  0x08000287   Thumb Code     0  startup_stm32f407xx.o(.text)
    DMA2_Stream6_IRQHandler                  0x08000287   Thumb Code     0  startup_stm32f407xx.o(.text)
    DMA2_Stream7_IRQHandler                  0x08000287   Thumb Code     0  startup_stm32f407xx.o(.text)
    ETH_IRQHandler                           0x08000287   Thumb Code     0  startup_stm32f407xx.o(.text)
    ETH_WKUP_IRQHandler                      0x08000287   Thumb Code     0  startup_stm32f407xx.o(.text)
    EXTI0_IRQHandler                         0x08000287   Thumb Code     0  startup_stm32f407xx.o(.text)
    EXTI15_10_IRQHandler                     0x08000287   Thumb Code     0  startup_stm32f407xx.o(.text)
    EXTI1_IRQHandler                         0x08000287   Thumb Code     0  startup_stm32f407xx.o(.text)
    EXTI2_IRQHandler                         0x08000287   Thumb Code     0  startup_stm32f407xx.o(.text)
    EXTI3_IRQHandler                         0x08000287   Thumb Code     0  startup_stm32f407xx.o(.text)
    EXTI4_IRQHandler                         0x08000287   Thumb Code     0  startup_stm32f407xx.o(.text)
    EXTI9_5_IRQHandler                       0x08000287   Thumb Code     0  startup_stm32f407xx.o(.text)
    FLASH_IRQHandler                         0x08000287   Thumb Code     0  startup_stm32f407xx.o(.text)
    FMC_IRQHandler                           0x08000287   Thumb Code     0  startup_stm32f407xx.o(.text)
    FPU_IRQHandler                           0x08000287   Thumb Code     0  startup_stm32f407xx.o(.text)
    HASH_RNG_IRQHandler                      0x08000287   Thumb Code     0  startup_stm32f407xx.o(.text)
    I2C1_ER_IRQHandler                       0x08000287   Thumb Code     0  startup_stm32f407xx.o(.text)
    I2C1_EV_IRQHandler                       0x08000287   Thumb Code     0  startup_stm32f407xx.o(.text)
    I2C2_ER_IRQHandler                       0x08000287   Thumb Code     0  startup_stm32f407xx.o(.text)
    I2C2_EV_IRQHandler                       0x08000287   Thumb Code     0  startup_stm32f407xx.o(.text)
    I2C3_ER_IRQHandler                       0x08000287   Thumb Code     0  startup_stm32f407xx.o(.text)
    I2C3_EV_IRQHandler                       0x08000287   Thumb Code     0  startup_stm32f407xx.o(.text)
    OTG_FS_IRQHandler                        0x08000287   Thumb Code     0  startup_stm32f407xx.o(.text)
    OTG_FS_WKUP_IRQHandler                   0x08000287   Thumb Code     0  startup_stm32f407xx.o(.text)
    OTG_HS_EP1_IN_IRQHandler                 0x08000287   Thumb Code     0  startup_stm32f407xx.o(.text)
    OTG_HS_EP1_OUT_IRQHandler                0x08000287   Thumb Code     0  startup_stm32f407xx.o(.text)
    OTG_HS_IRQHandler                        0x08000287   Thumb Code     0  startup_stm32f407xx.o(.text)
    OTG_HS_WKUP_IRQHandler                   0x08000287   Thumb Code     0  startup_stm32f407xx.o(.text)
    PVD_IRQHandler                           0x08000287   Thumb Code     0  startup_stm32f407xx.o(.text)
    RCC_IRQHandler                           0x08000287   Thumb Code     0  startup_stm32f407xx.o(.text)
    RTC_Alarm_IRQHandler                     0x08000287   Thumb Code     0  startup_stm32f407xx.o(.text)
    RTC_WKUP_IRQHandler                      0x08000287   Thumb Code     0  startup_stm32f407xx.o(.text)
    SDIO_IRQHandler                          0x08000287   Thumb Code     0  startup_stm32f407xx.o(.text)
    SPI2_IRQHandler                          0x08000287   Thumb Code     0  startup_stm32f407xx.o(.text)
    SPI3_IRQHandler                          0x08000287   Thumb Code     0  startup_stm32f407xx.o(.text)
    TAMP_STAMP_IRQHandler                    0x08000287   Thumb Code     0  startup_stm32f407xx.o(.text)
    TIM1_BRK_TIM9_IRQHandler                 0x08000287   Thumb Code     0  startup_stm32f407xx.o(.text)
    TIM1_CC_IRQHandler                       0x08000287   Thumb Code     0  startup_stm32f407xx.o(.text)
    TIM1_TRG_COM_TIM11_IRQHandler            0x08000287   Thumb Code     0  startup_stm32f407xx.o(.text)
    TIM1_UP_TIM10_IRQHandler                 0x08000287   Thumb Code     0  startup_stm32f407xx.o(.text)
    TIM2_IRQHandler                          0x08000287   Thumb Code     0  startup_stm32f407xx.o(.text)
    TIM3_IRQHandler                          0x08000287   Thumb Code     0  startup_stm32f407xx.o(.text)
    TIM4_IRQHandler                          0x08000287   Thumb Code     0  startup_stm32f407xx.o(.text)
    TIM5_IRQHandler                          0x08000287   Thumb Code     0  startup_stm32f407xx.o(.text)
    TIM6_DAC_IRQHandler                      0x08000287   Thumb Code     0  startup_stm32f407xx.o(.text)
    TIM7_IRQHandler                          0x08000287   Thumb Code     0  startup_stm32f407xx.o(.text)
    TIM8_BRK_TIM12_IRQHandler                0x08000287   Thumb Code     0  startup_stm32f407xx.o(.text)
    TIM8_CC_IRQHandler                       0x08000287   Thumb Code     0  startup_stm32f407xx.o(.text)
    TIM8_TRG_COM_TIM14_IRQHandler            0x08000287   Thumb Code     0  startup_stm32f407xx.o(.text)
    TIM8_UP_TIM13_IRQHandler                 0x08000287   Thumb Code     0  startup_stm32f407xx.o(.text)
    UART4_IRQHandler                         0x08000287   Thumb Code     0  startup_stm32f407xx.o(.text)
    UART5_IRQHandler                         0x08000287   Thumb Code     0  startup_stm32f407xx.o(.text)
    WWDG_IRQHandler                          0x08000287   Thumb Code     0  startup_stm32f407xx.o(.text)
    __user_initial_stackheap                 0x08000289   Thumb Code     0  startup_stm32f407xx.o(.text)
    __semihosting$guard                      0x080002ad   Thumb Code     0  use_no_semi.o(.text)
    __use_no_semihosting_swi                 0x080002ad   Thumb Code     2  use_no_semi.o(.text)
    __aeabi_memcpy4                          0x080002af   Thumb Code     0  rt_memcpy_w.o(.text)
    __aeabi_memcpy8                          0x080002af   Thumb Code     0  rt_memcpy_w.o(.text)
    __rt_memcpy_w                            0x080002af   Thumb Code   100  rt_memcpy_w.o(.text)
    _memcpy_lastbytes_aligned                0x080002f7   Thumb Code     0  rt_memcpy_w.o(.text)
    __use_two_region_memory                  0x08000313   Thumb Code     2  heapauxi.o(.text)
    __rt_heap_escrow                         0x08000315   Thumb Code     2  heapauxi.o(.text)
    __rt_heap_expand                         0x08000317   Thumb Code     2  heapauxi.o(.text)
    __cpp_initialize__aeabi_                 0x08000319   Thumb Code    26  init_aeabi.o(.text)
    __read_errno                             0x0800033d   Thumb Code    10  _rserrno.o(.text)
    __set_errno                              0x08000347   Thumb Code    12  _rserrno.o(.text)
    __aeabi_errno_addr                       0x08000355   Thumb Code     8  rt_errno_addr_intlibspace.o(.text)
    __errno$intlibspace                      0x08000355   Thumb Code     0  rt_errno_addr_intlibspace.o(.text)
    __rt_errno_addr$intlibspace              0x08000355   Thumb Code     0  rt_errno_addr_intlibspace.o(.text)
    __user_libspace                          0x0800035d   Thumb Code     8  libspace.o(.text)
    __user_perproc_libspace                  0x0800035d   Thumb Code     0  libspace.o(.text)
    __user_perthread_libspace                0x0800035d   Thumb Code     0  libspace.o(.text)
    __user_setup_stackheap                   0x08000365   Thumb Code    74  sys_stackheap_outer.o(.text)
    exit                                     0x080003af   Thumb Code    18  exit.o(.text)
    ADC_Cmd                                  0x080003c1   Thumb Code    22  stm32f4xx_adc.o(i.ADC_Cmd)
    ADC_CommonInit                           0x080003d9   Thumb Code    34  stm32f4xx_adc.o(i.ADC_CommonInit)
    ADC_DMACmd                               0x08000409   Thumb Code    22  stm32f4xx_adc.o(i.ADC_DMACmd)
    ADC_DMARequestAfterLastTransferCmd       0x0800041f   Thumb Code    22  stm32f4xx_adc.o(i.ADC_DMARequestAfterLastTransferCmd)
    ADC_EOCOnEachRegularChannelCmd           0x08000435   Thumb Code    22  stm32f4xx_adc.o(i.ADC_EOCOnEachRegularChannelCmd)
    ADC_Init                                 0x0800044d   Thumb Code    74  stm32f4xx_adc.o(i.ADC_Init)
    ADC_RegularChannelConfig                 0x080004a1   Thumb Code   184  stm32f4xx_adc.o(i.ADC_RegularChannelConfig)
    ADC_SoftwareStartConv                    0x08000559   Thumb Code    10  stm32f4xx_adc.o(i.ADC_SoftwareStartConv)
    DMA_Cmd                                  0x08000563   Thumb Code    22  stm32f4xx_dma.o(i.DMA_Cmd)
    DMA_DeInit                               0x08000579   Thumb Code   324  stm32f4xx_dma.o(i.DMA_DeInit)
    DMA_Init                                 0x080006d1   Thumb Code    82  stm32f4xx_dma.o(i.DMA_Init)
    GPIO_Init                                0x08000729   Thumb Code   144  stm32f4xx_gpio.o(i.GPIO_Init)
    GPIO_PinAFConfig                         0x080007b9   Thumb Code    70  stm32f4xx_gpio.o(i.GPIO_PinAFConfig)
    GPIO_ReadInputData                       0x080007ff   Thumb Code     8  stm32f4xx_gpio.o(i.GPIO_ReadInputData)
    GPIO_ResetBits                           0x08000807   Thumb Code     4  stm32f4xx_gpio.o(i.GPIO_ResetBits)
    GPIO_SetBits                             0x0800080b   Thumb Code     4  stm32f4xx_gpio.o(i.GPIO_SetBits)
    RCC_AHB1PeriphClockCmd                   0x08000811   Thumb Code    26  stm32f4xx_rcc.o(i.RCC_AHB1PeriphClockCmd)
    RCC_APB1PeriphClockCmd                   0x08000831   Thumb Code    26  stm32f4xx_rcc.o(i.RCC_APB1PeriphClockCmd)
    RCC_APB2PeriphClockCmd                   0x08000851   Thumb Code    26  stm32f4xx_rcc.o(i.RCC_APB2PeriphClockCmd)
    RCC_GetClocksFreq                        0x08000871   Thumb Code   214  stm32f4xx_rcc.o(i.RCC_GetClocksFreq)
    SPI1_IRQHandler                          0x08000959   Thumb Code    92  spi_1.o(i.SPI1_IRQHandler)
    SPI_I2S_GetFlagStatus                    0x080009c5   Thumb Code    18  stm32f4xx_spi.o(i.SPI_I2S_GetFlagStatus)
    SysTick_Handler                          0x08000ae9   Thumb Code    20  time_service.o(i.SysTick_Handler)
    SystemInit                               0x08000b01   Thumb Code    88  system_stm32f4xx.o(i.SystemInit)
    TIM_BDTRConfig                           0x08000b69   Thumb Code    32  stm32f4xx_tim.o(i.TIM_BDTRConfig)
    TIM_Cmd                                  0x08000b89   Thumb Code    24  stm32f4xx_tim.o(i.TIM_Cmd)
    TIM_CtrlPWMOutputs                       0x08000ba1   Thumb Code    30  stm32f4xx_tim.o(i.TIM_CtrlPWMOutputs)
    TIM_OC1Init                              0x08000bc1   Thumb Code   114  stm32f4xx_tim.o(i.TIM_OC1Init)
    TIM_OC2Init                              0x08000c3d   Thumb Code   154  stm32f4xx_tim.o(i.TIM_OC2Init)
    TIM_OC3Init                              0x08000ce1   Thumb Code   150  stm32f4xx_tim.o(i.TIM_OC3Init)
    TIM_OC4Init                              0x08000d81   Thumb Code   112  stm32f4xx_tim.o(i.TIM_OC4Init)
    TIM_SetCompare1                          0x08000df9   Thumb Code     4  stm32f4xx_tim.o(i.TIM_SetCompare1)
    TIM_SetCompare2                          0x08000dfd   Thumb Code     4  stm32f4xx_tim.o(i.TIM_SetCompare2)
    TIM_SetCompare3                          0x08000e01   Thumb Code     4  stm32f4xx_tim.o(i.TIM_SetCompare3)
    TIM_SetCompare4                          0x08000e05   Thumb Code     4  stm32f4xx_tim.o(i.TIM_SetCompare4)
    TIM_TimeBaseInit                         0x08000e09   Thumb Code   104  stm32f4xx_tim.o(i.TIM_TimeBaseInit)
    USART1_IRQHandler                        0x08000e8d   Thumb Code   132  usart1.o(i.USART1_IRQHandler)
    USART2_IRQHandler                        0x08000f2d   Thumb Code   138  usart2.o(i.USART2_IRQHandler)
    USART3_IRQHandler                        0x08000fd5   Thumb Code   138  usart3.o(i.USART3_IRQHandler)
    USART6_IRQHandler                        0x0800107d   Thumb Code   138  usart6.o(i.USART6_IRQHandler)
    USART_ClearITPendingBit                  0x08001125   Thumb Code    30  stm32f4xx_usart.o(i.USART_ClearITPendingBit)
    USART_Cmd                                0x08001143   Thumb Code    24  stm32f4xx_usart.o(i.USART_Cmd)
    USART_ITConfig                           0x0800115b   Thumb Code    74  stm32f4xx_usart.o(i.USART_ITConfig)
    USART_Init                               0x080011a5   Thumb Code   204  stm32f4xx_usart.o(i.USART_Init)
    USART_StructInit                         0x08001279   Thumb Code    24  stm32f4xx_usart.o(i.USART_StructInit)
    BallSensor::ballInGrip()                 0x08001291   Thumb Code   230  ballsensor.o(i._ZN10BallSensor10ballInGripEv)
    BallSensor::ballLongTimeInGrip()         0x08001391   Thumb Code    42  ballsensor.o(i._ZN10BallSensor18ballLongTimeInGripEv)
    BallSensor::getValue()                   0x080013bb   Thumb Code    24  ballsensor.o(i._ZN10BallSensor8getValueEv)
    BallSensor::BallSensor(Dma&)             0x080013d5   Thumb Code    32  ballsensor.o(i._ZN10BallSensorC1ER3Dma)
    BallSensor::BallSensor__sub_object(Dma&) 0x080013d5   Thumb Code     0  ballsensor.o(i._ZN10BallSensorC1ER3Dma)
    Goalkeeper::setLeaveTime(short)          0x080013f9   Thumb Code     4  goalkeeper.o(i._ZN10Goalkeeper12setLeaveTimeEs)
    Goalkeeper::dist2GoalLong()              0x080013fd   Thumb Code    18  goalkeeper.o(i._ZN10Goalkeeper13dist2GoalLongEv)
    Goalkeeper::angleStopLeaving(float)      0x08001411   Thumb Code   100  goalkeeper.o(i._ZN10Goalkeeper16angleStopLeavingEf)
    Goalkeeper::changeFromReturn()           0x08001479   Thumb Code    46  goalkeeper.o(i._ZN10Goalkeeper16changeFromReturnEv)
    Goalkeeper::getGoalkeeperPos()           0x080014b1   Thumb Code   108  goalkeeper.o(i._ZN10Goalkeeper16getGoalkeeperPosEv)
    Goalkeeper::getTargetRadiuses()          0x08001525   Thumb Code   118  goalkeeper.o(i._ZN10Goalkeeper17getTargetRadiusesEv)
    Goalkeeper::getVecToGoalCenter()         0x080015ad   Thumb Code   424  goalkeeper.o(i._ZN10Goalkeeper18getVecToGoalCenterEv)
    Goalkeeper::getCurrentLeaveTime(short)   0x08001771   Thumb Code   162  goalkeeper.o(i._ZN10Goalkeeper19getCurrentLeaveTimeEs)
    Goalkeeper::getTargetGoalkeeper()        0x0800181d   Thumb Code   116  goalkeeper.o(i._ZN10Goalkeeper19getTargetGoalkeeperEv)
    Goalkeeper::setAngleLeaveStatus()        0x080018a1   Thumb Code    28  goalkeeper.o(i._ZN10Goalkeeper19setAngleLeaveStatusEv)
    Goalkeeper::getVecToIntersection(short)  0x080018bd   Thumb Code  1530  goalkeeper.o(i._ZN10Goalkeeper20getVecToIntersectionEs)
    Goalkeeper::Goalkeeper()                 0x08001ed1   Thumb Code    70  goalkeeper.o(i._ZN10GoalkeeperC1Ev)
    Goalkeeper::Goalkeeper__sub_object()     0x08001ed1   Thumb Code     0  goalkeeper.o(i._ZN10GoalkeeperC1Ev)
    omniplatform::adduct0_360(float)         0x08001f1d   Thumb Code    54  omniplatform.o(i._ZN12omniplatform11adduct0_360Ef)
    omniplatform::move(float, float, float, float, float) 0x08001f59   Thumb Code   516  omniplatform.o(i._ZN12omniplatform4moveEfffff)
    omniplatform::disable()                  0x08002179   Thumb Code    36  omniplatform.o(i._ZN12omniplatform7disableEv)
    omniplatform::omniplatform(Motor&, Motor&, Motor&, Motor&) 0x0800219d   Thumb Code    68  omniplatform.o(i._ZN12omniplatformC1ER5MotorS1_S1_S1_)
    omniplatform::omniplatform__sub_object(Motor&, Motor&, Motor&, Motor&) 0x0800219d   Thumb Code     0  omniplatform.o(i._ZN12omniplatformC1ER5MotorS1_S1_S1_)
    time_service::init()                     0x080021e1   Thumb Code    86  time_service.o(i._ZN12time_service4initEv)
    time_service::delay(unsigned)            0x08002241   Thumb Code    32  time_service.o(i._ZN12time_service5delayEj)
    time_service::millis()                   0x08002265   Thumb Code     8  time_service.o(i._ZN12time_service6millisEv)
    time_service::startTime()                0x08002271   Thumb Code    18  time_service.o(i._ZN12time_service9startTimeEv)
    VoltageDividor::getVoltage()             0x08002285   Thumb Code    62  voltage.o(i._ZN14VoltageDividor10getVoltageEv)
    VoltageDividor::voltageLow(float)        0x080022d1   Thumb Code    24  voltage.o(i._ZN14VoltageDividor10voltageLowEf)
    VoltageDividor::VoltageDividor(Dma&)     0x080022e9   Thumb Code    12  voltage.o(i._ZN14VoltageDividorC1ER3Dma)
    VoltageDividor::VoltageDividor__sub_object(Dma&) 0x080022e9   Thumb Code     0  voltage.o(i._ZN14VoltageDividorC1ER3Dma)
    ProcessingCoord::ballInBack(float, unsigned char) 0x080022f9   Thumb Code   406  processing_coord.o(i._ZN15ProcessingCoord10ballInBackEfh)
    ProcessingCoord::checkXLeft(short, unsigned char) 0x0800249d   Thumb Code    60  processing_coord.o(i._ZN15ProcessingCoord10checkXLeftEsh)
    ProcessingCoord::checkYDown(short)       0x080024d9   Thumb Code    18  processing_coord.o(i._ZN15ProcessingCoord10checkYDownEs)
    ProcessingCoord::checkXRight(short, unsigned char) 0x080024eb   Thumb Code    58  processing_coord.o(i._ZN15ProcessingCoord11checkXRightEsh)
    ProcessingCoord::getVecToPoint(short, short) 0x08002525   Thumb Code   296  processing_coord.o(i._ZN15ProcessingCoord13getVecToPointEss)
    ProcessingCoord::getTarget2Enemy()       0x0800265d   Thumb Code   116  processing_coord.o(i._ZN15ProcessingCoord15getTarget2EnemyEv)
    ProcessingCoord::suitableParams2Kick()   0x080026e1   Thumb Code   230  processing_coord.o(i._ZN15ProcessingCoord19suitableParams2KickEv)
    ProcessingCoord::adduct(short)           0x080027d1   Thumb Code    32  processing_coord.o(i._ZN15ProcessingCoord6adductEs)
    ProcessingCoord::setGoal(unsigned char)  0x080027f1   Thumb Code     4  processing_coord.o(i._ZN15ProcessingCoord7setGoalEh)
    ProcessingCoord::checkYUp(short)         0x080027f5   Thumb Code    18  processing_coord.o(i._ZN15ProcessingCoord8checkYUpEs)
    ProcessingCoord::distance(float, float, float, float) 0x08002807   Thumb Code    74  processing_coord.o(i._ZN15ProcessingCoord8distanceEffff)
    ProcessingCoord::adduct180(short)        0x08002851   Thumb Code    32  processing_coord.o(i._ZN15ProcessingCoord9adduct180Es)
    ProcessingCoord::setMaxLen(float)        0x08002871   Thumb Code     6  processing_coord.o(i._ZN15ProcessingCoord9setMaxLenEf)
    ProcessingCoord::setParams(short, short, short, short, short) 0x08002877   Thumb Code    18  processing_coord.o(i._ZN15ProcessingCoord9setParamsEsssss)
    ProcessingCoord::ProcessingCoord()       0x08002889   Thumb Code    46  processing_coord.o(i._ZN15ProcessingCoordC1Ev)
    ProcessingCoord::ProcessingCoord__sub_object() 0x08002889   Thumb Code     0  processing_coord.o(i._ZN15ProcessingCoordC1Ev)
    Adc::adcDmaInit()                        0x080028b7   Thumb Code    36  adc.o(i._ZN3Adc10adcDmaInitEv)
    Adc::setChannel()                        0x080028db   Thumb Code    36  adc.o(i._ZN3Adc10setChannelEv)
    Adc::getRCCPeriph(ADC_TypeDef*)          0x08002901   Thumb Code    32  adc.o(i._ZN3Adc12getRCCPeriphEP11ADC_TypeDef)
    Adc::getADC()                            0x08002929   Thumb Code     6  adc.o(i._ZN3Adc6getADCEv)
    Adc::adcInit(unsigned char)              0x0800292f   Thumb Code    40  adc.o(i._ZN3Adc7adcInitEh)
    Adc::startADC()                          0x08002957   Thumb Code    60  adc.o(i._ZN3Adc8startADCEv)
    Adc::getCycles(unsigned char)            0x08002993   Thumb Code    38  adc.o(i._ZN3Adc9getCyclesEh)
    Adc::Adc(ADC_TypeDef*, unsigned char, unsigned char) 0x080029b9   Thumb Code    56  adc.o(i._ZN3AdcC1EP11ADC_TypeDefhh)
    Adc::Adc__sub_object(ADC_TypeDef*, unsigned char, unsigned char) 0x080029b9   Thumb Code     0  adc.o(i._ZN3AdcC1EP11ADC_TypeDefhh)
    Dma::dataReturn(unsigned char)           0x080029f1   Thumb Code    16  dma.o(i._ZN3Dma10dataReturnEh)
    Dma::adcInitInDma(unsigned char)         0x08002a01   Thumb Code    42  dma.o(i._ZN3Dma12adcInitInDmaEh)
    Dma::dmaInit(DMA_Stream_TypeDef*, unsigned, unsigned) 0x08002a2b   Thumb Code   108  dma.o(i._ZN3Dma7dmaInitEP18DMA_Stream_TypeDefjj)
    Dma::Dma(unsigned, Adc&, DMA_Stream_TypeDef*, unsigned, unsigned, unsigned char) 0x08002a97   Thumb Code    60  dma.o(i._ZN3DmaC1EjR3AdcP18DMA_Stream_TypeDefjjh)
    Dma::Dma__sub_object(unsigned, Adc&, DMA_Stream_TypeDef*, unsigned, unsigned, unsigned char) 0x08002a97   Thumb Code     0  dma.o(i._ZN3DmaC1EjR3AdcP18DMA_Stream_TypeDefjjh)
    Pin::RCC_ClockCmd()                      0x08002ad5   Thumb Code   256  pin.o(i._ZN3Pin12RCC_ClockCmdEv)
    Pin::setTimParams(unsigned short)        0x08002c09   Thumb Code   198  pin.o(i._ZN3Pin12setTimParamsEt)
    Pin::setAFforUSART(unsigned short)       0x08002cfd   Thumb Code    40  pin.o(i._ZN3Pin13setAFforUSARTEt)
    Pin::pwm(unsigned)                       0x08002d25   Thumb Code    68  pin.o(i._ZN3Pin3pwmEj)
    Pin::set(bool)                           0x08002d69   Thumb Code    32  pin.o(i._ZN3Pin3setEb)
    Pin::getPin()                            0x08002d89   Thumb Code     6  pin.o(i._ZN3Pin6getPinEv)
    Pin::setBit()                            0x08002d8f   Thumb Code    16  pin.o(i._ZN3Pin6setBitEv)
    Pin::setPin(unsigned char)               0x08002d9f   Thumb Code   204  pin.o(i._ZN3Pin6setPinEh)
    Pin::pwmInit(short, unsigned, unsigned char) 0x08002e6d   Thumb Code   292  pin.o(i._ZN3Pin7pwmInitEsjh)
    Pin::readPin()                           0x08002f99   Thumb Code    24  pin.o(i._ZN3Pin7readPinEv)
    Pin::setGPIO(char)                       0x08002fb1   Thumb Code    78  pin.o(i._ZN3Pin7setGPIOEc)
    Pin::getGPIOx()                          0x08003025   Thumb Code     6  pin.o(i._ZN3Pin8getGPIOxEv)
    Pin::resetBit()                          0x0800302b   Thumb Code    16  pin.o(i._ZN3Pin8resetBitEv)
    Pin::getPeriod()                         0x0800303b   Thumb Code     8  pin.o(i._ZN3Pin9getPeriodEv)
    Pin::Pin(char, unsigned char, unsigned short) 0x08003045   Thumb Code   528  pin.o(i._ZN3PinC1Echt)
    Pin::Pin__sub_object(char, unsigned char, unsigned short) 0x08003045   Thumb Code     0  pin.o(i._ZN3PinC1Echt)
    TSOP::angleOffset(double, double, double) 0x08003279   Thumb Code   370  tsop.o(i._ZN4TSOP11angleOffsetEddd)
    TSOP::convertDist(double)                0x0800342d   Thumb Code   146  tsop.o(i._ZN4TSOP11convertDistEd)
    TSOP::updateTSOPs()                      0x080034d9   Thumb Code   280  tsop.o(i._ZN4TSOP11updateTSOPsEv)
    TSOP::adduct(short)                      0x080035f1   Thumb Code    32  tsop.o(i._ZN4TSOP6adductEs)
    TSOP::ballFar(float)                     0x08003611   Thumb Code    50  tsop.o(i._ZN4TSOP7ballFarEf)
    TSOP::distBad(short)                     0x0800364d   Thumb Code    16  tsop.o(i._ZN4TSOP7distBadEs)
    TSOP::getDist()                          0x0800365d   Thumb Code     6  tsop.o(i._ZN4TSOP7getDistEv)
    TSOP::getAngle()                         0x08003663   Thumb Code     6  tsop.o(i._ZN4TSOP8getAngleEv)
    TSOP::calculate()                        0x08003669   Thumb Code   282  tsop.o(i._ZN4TSOP9calculateEv)
    TSOP::TSOP(Pin&, Pin&, Pin&, Pin&, Pin&, Pin&) 0x08003799   Thumb Code   124  tsop.o(i._ZN4TSOPC1ER3PinS1_S1_S1_S1_S1_)
    TSOP::TSOP__sub_object(Pin&, Pin&, Pin&, Pin&, Pin&, Pin&) 0x08003799   Thumb Code     0  tsop.o(i._ZN4TSOPC1ER3PinS1_S1_S1_S1_S1_)
    Motor::getMaxSpeed()                     0x08003819   Thumb Code    12  motor.o(i._ZN5Motor11getMaxSpeedEv)
    Motor::go(short)                         0x08003825   Thumb Code   108  motor.o(i._ZN5Motor2goEs)
    Motor::disable()                         0x08003891   Thumb Code    24  motor.o(i._ZN5Motor7disableEv)
    Motor::Motor(Pin&, unsigned char, Pin&, unsigned char) 0x080038a9   Thumb Code    70  motor.o(i._ZN5MotorC1ER3PinhS1_h)
    Motor::Motor__sub_object(Pin&, unsigned char, Pin&, unsigned char) 0x080038a9   Thumb Code     0  motor.o(i._ZN5MotorC1ER3PinhS1_h)
    Vec2b::changeTo(Vec2b)                   0x080038f1   Thumb Code   870  vec2b.o(i._ZN5Vec2b8changeToES_)
    Vec2b::Vec2b(double, double)             0x08003c89   Thumb Code    10  vec2b.o(i._ZN5Vec2bC1Edd)
    Vec2b::Vec2b__sub_object(double, double) 0x08003c89   Thumb Code     0  vec2b.o(i._ZN5Vec2bC1Edd)
    Vec2b::Vec2b()                           0x08003c95   Thumb Code    18  vec2b.o(i._ZN5Vec2bC1Ev)
    Vec2b::Vec2b__sub_object()               0x08003c95   Thumb Code     0  vec2b.o(i._ZN5Vec2bC1Ev)
    Vec2b::operator *=(const float&)         0x08003cb1   Thumb Code    70  vec2b.o(i._ZN5Vec2bmLERKf)
    Vec2b::operator +(const Vec2b&)          0x08003cf9   Thumb Code   524  vec2b.o(i._ZN5Vec2bplERKS_)
    uart1::usart1Init(unsigned, float, unsigned char) 0x08003f15   Thumb Code   308  usart1.o(i._ZN5uart110usart1InitEjfh)
    uart1::read()                            0x0800407d   Thumb Code    62  usart1.o(i._ZN5uart14readEv)
    uart1::available()                       0x080040c5   Thumb Code    44  usart1.o(i._ZN5uart19availableEv)
    uart2::usart2Init(unsigned, float, unsigned char) 0x080040f9   Thumb Code   308  usart2.o(i._ZN5uart210usart2InitEjfh)
    uart2::read()                            0x08004261   Thumb Code    62  usart2.o(i._ZN5uart24readEv)
    uart2::available()                       0x080042a9   Thumb Code    44  usart2.o(i._ZN5uart29availableEv)
    uart3::usart3Init(unsigned, float, unsigned char) 0x080042dd   Thumb Code   308  usart3.o(i._ZN5uart310usart3InitEjfh)
    uart3::read()                            0x08004445   Thumb Code    62  usart3.o(i._ZN5uart34readEv)
    uart3::available()                       0x0800448d   Thumb Code    44  usart3.o(i._ZN5uart39availableEv)
    uart6::usart6Init(unsigned, float, unsigned char) 0x080044c1   Thumb Code   308  usart6.o(i._ZN5uart610usart6InitEjfh)
    uart6::read()                            0x08004629   Thumb Code    62  usart6.o(i._ZN5uart64readEv)
    uart6::available()                       0x08004671   Thumb Code    44  usart6.o(i._ZN5uart69availableEv)
    Button::pressed()                        0x080046a5   Thumb Code   224  button.o(i._ZN6Button7pressedEv)
    Button::Button(Pin, bool)                0x08004785   Thumb Code    40  button.o(i._ZN6ButtonC1E3Pinb)
    Button::Button__sub_object(Pin, bool)    0x08004785   Thumb Code     0  button.o(i._ZN6ButtonC1E3Pinb)
    Kicker::getDMASignal()                   0x080047ad   Thumb Code    18  kicker.o(i._ZN6Kicker12getDMASignalEv)
    Kicker::setKickerStatus(bool)            0x080047c1   Thumb Code   172  kicker.o(i._ZN6Kicker15setKickerStatusEb)
    Kicker::open()                           0x08004879   Thumb Code    12  kicker.o(i._ZN6Kicker4openEv)
    Kicker::close()                          0x08004885   Thumb Code    12  kicker.o(i._ZN6Kicker5closeEv)
    Kicker::canKick()                        0x08004891   Thumb Code     6  kicker.o(i._ZN6Kicker7canKickEv)
    Kicker::Kicker(Pin&, Dma&)               0x08004899   Thumb Code    26  kicker.o(i._ZN6KickerC1ER3PinR3Dma)
    Kicker::Kicker__sub_object(Pin&, Dma&)   0x08004899   Thumb Code     0  kicker.o(i._ZN6KickerC1ER3PinR3Dma)
    OpenMV::initCoords()                     0x080048b9   Thumb Code    18  openmv.o(i._ZN6OpenMV10initCoordsEv)
    OpenMV::adductionMV(short)               0x080048d1   Thumb Code    32  openmv.o(i._ZN6OpenMV11adductionMVEs)
    OpenMV::getDistBlue()                    0x080048f1   Thumb Code     8  openmv.o(i._ZN6OpenMV11getDistBlueEv)
    OpenMV::getAngleBlue()                   0x080048f9   Thumb Code     8  openmv.o(i._ZN6OpenMV12getAngleBlueEv)
    OpenMV::getDistYellow()                  0x08004901   Thumb Code     8  openmv.o(i._ZN6OpenMV13getDistYellowEv)
    OpenMV::getAngleYellow()                 0x08004909   Thumb Code     8  openmv.o(i._ZN6OpenMV14getAngleYellowEv)
    OpenMV::crc8(volatile unsigned char*, unsigned char) 0x08004911   Thumb Code    58  openmv.o(i._ZN6OpenMV4crc8EPVhh)
    OpenMV::getX()                           0x0800494b   Thumb Code    18  openmv.o(i._ZN6OpenMV4getXEv)
    OpenMV::getY()                           0x0800495d   Thumb Code    18  openmv.o(i._ZN6OpenMV4getYEv)
    OpenMV::read()                           0x0800496f   Thumb Code   296  openmv.o(i._ZN6OpenMV4readEv)
    OpenMV::calculate(short, bool, bool)     0x08004a99   Thumb Code   680  openmv.o(i._ZN6OpenMV9calculateEsbb)
    OpenMV::initUSART(unsigned char)         0x08004d55   Thumb Code    86  openmv.o(i._ZN6OpenMV9initUSARTEh)
    OpenMV::OpenMV(Pin&, Pin&, unsigned char) 0x08004dad   Thumb Code    56  openmv.o(i._ZN6OpenMVC1ER3PinS1_h)
    OpenMV::OpenMV__sub_object(Pin&, Pin&, unsigned char) 0x08004dad   Thumb Code     0  openmv.o(i._ZN6OpenMVC1ER3PinS1_h)
    Forward::myGoalLine(short, short)        0x08004de9   Thumb Code   112  forward.o(i._ZN7Forward10myGoalLineEss)
    Forward::nearMyGoal()                    0x08004e61   Thumb Code   284  forward.o(i._ZN7Forward10nearMyGoalEv)
    Forward::robotInOUT()                    0x08004f91   Thumb Code    18  forward.o(i._ZN7Forward10robotInOUTEv)
    Forward::setVec2Out(unsigned char, Vec2b) 0x08004fa5   Thumb Code   500  forward.o(i._ZN7Forward10setVec2OutEh5Vec2b)
    Forward::getBallSide(float)              0x080051a1   Thumb Code    38  forward.o(i._ZN7Forward11getBallSideEf)
    Forward::inEnemyGoal()                   0x080051cd   Thumb Code    54  forward.o(i._ZN7Forward11inEnemyGoalEv)
    Forward::resetCounts()                   0x08005203   Thumb Code     8  forward.o(i._ZN7Forward11resetCountsEv)
    Forward::vec2bOnGoal(float, float)       0x0800520d   Thumb Code   528  forward.o(i._ZN7Forward11vec2bOnGoalEff)
    Forward::robotNearOUT(unsigned char)     0x08005435   Thumb Code    94  forward.o(i._ZN7Forward12robotNearOUTEh)
    Forward::enemyGoalLine(short, short)     0x08005495   Thumb Code   116  forward.o(i._ZN7Forward13enemyGoalLineEss)
    Forward::projectionOnY(Vec2b)            0x08005511   Thumb Code   224  forward.o(i._ZN7Forward13projectionOnYE5Vec2b)
    Forward::isMyGoalCircle(short, short, short, short) 0x080055f9   Thumb Code   214  forward.o(i._ZN7Forward14isMyGoalCircleEssss)
    Forward::setResOUTVector(OutPair, Vec2b) 0x080056e5   Thumb Code   198  forward.o(i._ZN7Forward15setResOUTVectorE7OutPair5Vec2b)
    Forward::robotInFreeField()              0x080057b5   Thumb Code    18  forward.o(i._ZN7Forward16robotInFreeFieldEv)
    Forward::getVecForMyCircle(short, short) 0x080057c9   Thumb Code   170  forward.o(i._ZN7Forward17getVecForMyCircleEss)
    Forward::isEnemyGoalCircle(short, short, short, short) 0x0800587d   Thumb Code   246  forward.o(i._ZN7Forward17isEnemyGoalCircleEssss)
    Forward::getVecForEnemyCircle(short, short) 0x08005995   Thumb Code   290  forward.o(i._ZN7Forward20getVecForEnemyCircleEss)
    Forward::inMyGoal()                      0x08005ac9   Thumb Code    54  forward.o(i._ZN7Forward8inMyGoalEv)
    Forward::ballInOUT(float)                0x08005b01   Thumb Code   236  forward.o(i._ZN7Forward9ballInOUTEf)
    Forward::checkOUTs()                     0x08005c05   Thumb Code   314  forward.o(i._ZN7Forward9checkOUTsEv)
    Forward::Forward()                       0x08005d3f   Thumb Code    28  forward.o(i._ZN7ForwardC1Ev)
    Forward::Forward__sub_object()           0x08005d3f   Thumb Code     0  forward.o(i._ZN7ForwardC1Ev)
    OutPair::setOut(unsigned char)           0x08005d5b   Thumb Code    16  forward.o(i._ZN7OutPair6setOutEh)
    OutPair::OutPair()                       0x08005d6b   Thumb Code     8  main.o(i._ZN7OutPairC1Ev)
    OutPair::OutPair__sub_object()           0x08005d6b   Thumb Code     0  main.o(i._ZN7OutPairC1Ev)
    OutPair::operator =(const OutPair&)      0x08005d73   Thumb Code    10  main.o(i._ZN7OutPairaSERKS_)
    Asterisk::calibrated()                   0x08005d7d   Thumb Code     6  main.o(i._ZN8Asterisk10calibratedEv)
    Asterisk::forwardStrategy()              0x08005d89   Thumb Code  1756  main.o(i._ZN8Asterisk15forwardStrategyEv)
    Asterisk::goalkeeperStrategy()           0x080064b1   Thumb Code  2746  main.o(i._ZN8Asterisk18goalkeeperStrategyEv)
    Asterisk::getVec2bToBallFollow()         0x08006fc5   Thumb Code   618  main.o(i._ZN8Asterisk20getVec2bToBallFollowEv)
    Asterisk::init(unsigned char, unsigned char, unsigned char) 0x080072a5   Thumb Code   360  main.o(i._ZN8Asterisk4initEhhh)
    Asterisk::update()                       0x080074c9   Thumb Code  1344  main.o(i._ZN8Asterisk6updateEv)
    Asterisk::getRole()                      0x08007a39   Thumb Code     6  main.o(i._ZN8Asterisk7getRoleEv)
    Asterisk::mustLeave()                    0x08007a45   Thumb Code   302  main.o(i._ZN8Asterisk9mustLeaveEv)
    gyro_imu::adduct0_360(float)             0x08007bbd   Thumb Code    54  imu_usart.o(i._ZN8gyro_imu11adduct0_360Ef)
    gyro_imu::getRotation()                  0x08007bf9   Thumb Code     8  imu_usart.o(i._ZN8gyro_imu11getRotationEv)
    gyro_imu::setZeroAngle()                 0x08007c01   Thumb Code   232  imu_usart.o(i._ZN8gyro_imu12setZeroAngleEv)
    gyro_imu::calculateSoft(float, float, unsigned char) 0x08007ced   Thumb Code   164  imu_usart.o(i._ZN8gyro_imu13calculateSoftEffh)
    gyro_imu::getMaxRotation()               0x08007da1   Thumb Code     8  imu_usart.o(i._ZN8gyro_imu14getMaxRotationEv)
    gyro_imu::getCurrentAngle()              0x08007da9   Thumb Code     8  imu_usart.o(i._ZN8gyro_imu15getCurrentAngleEv)
    gyro_imu::setRotationForTarget()         0x08007db1   Thumb Code    86  imu_usart.o(i._ZN8gyro_imu20setRotationForTargetEv)
    gyro_imu::read()                         0x08007e11   Thumb Code   268  imu_usart.o(i._ZN8gyro_imu4readEv)
    gyro_imu::adduct(short)                  0x08007f21   Thumb Code    32  imu_usart.o(i._ZN8gyro_imu6adductEs)
    gyro_imu::getTarget()                    0x08007f41   Thumb Code    18  imu_usart.o(i._ZN8gyro_imu9getTargetEv)
    gyro_imu::initUSART(unsigned char)       0x08007f53   Thumb Code    86  imu_usart.o(i._ZN8gyro_imu9initUSARTEh)
    gyro_imu::setTarget(float)               0x08007fa9   Thumb Code    26  imu_usart.o(i._ZN8gyro_imu9setTargetEf)
    gyro_imu::gyro_imu(Pin&, Pin&, unsigned char) 0x08007fcd   Thumb Code    42  imu_usart.o(i._ZN8gyro_imuC1ER3PinS1_h)
    gyro_imu::gyro_imu__sub_object(Pin&, Pin&, unsigned char) 0x08007fcd   Thumb Code     0  imu_usart.o(i._ZN8gyro_imuC1ER3PinS1_h)
    BallVec2b::changeValues(bool)            0x08007ffd   Thumb Code   694  queues_ball.o(i._ZN9BallVec2b12changeValuesEb)
    BallVec2b::getDerivativeAng()            0x080082b3   Thumb Code    10  queues_ball.o(i._ZN9BallVec2b16getDerivativeAngEv)
    BallVec2b::getDerivativeDist()           0x080082bd   Thumb Code    10  queues_ball.o(i._ZN9BallVec2b17getDerivativeDistEv)
    BallVec2b::setTransitionBy360()          0x080082c9   Thumb Code   244  queues_ball.o(i._ZN9BallVec2b18setTransitionBy360Ev)
    BallVec2b::push(Vec2b, long long)        0x080083d5   Thumb Code   492  queues_ball.o(i._ZN9BallVec2b4pushE5Vec2bx)
    BallVec2b::adduct(double)                0x080085c1   Thumb Code   110  queues_ball.o(i._ZN9BallVec2b6adductEd)
    BallVec2b::calculate()                   0x08008649   Thumb Code  1314  queues_ball.o(i._ZN9BallVec2b9calculateEv)
    BallVec2b::BallVec2b()                   0x08008b6d   Thumb Code   160  queues_ball.o(i._ZN9BallVec2bC1Ev)
    BallVec2b::BallVec2b__sub_object()       0x08008b6d   Thumb Code     0  queues_ball.o(i._ZN9BallVec2bC1Ev)
    Vec2bTime::set(double, double, unsigned, short) 0x08008c21   Thumb Code    18  queues_ball.o(i._ZN9Vec2bTime3setEddjs)
    Vec2bTime::getLen()                      0x08008c33   Thumb Code     6  queues_ball.o(i._ZN9Vec2bTime6getLenEv)
    Vec2bTime::correct()                     0x08008c39   Thumb Code    86  queues_ball.o(i._ZN9Vec2bTime7correctEv)
    Vec2bTime::getTime()                     0x08008c99   Thumb Code     6  queues_ball.o(i._ZN9Vec2bTime7getTimeEv)
    Vec2bTime::getAngle()                    0x08008c9f   Thumb Code     6  queues_ball.o(i._ZN9Vec2bTime8getAngleEv)
    Vec2bTime::Vec2bTime()                   0x08008ca5   Thumb Code    14  queues_ball.o(i._ZN9Vec2bTimeC1Ev)
    Vec2bTime::Vec2bTime__sub_object()       0x08008ca5   Thumb Code     0  queues_ball.o(i._ZN9Vec2bTimeC1Ev)
    std::abs(double)                         0x08008cb3   Thumb Code    32  main.o(i._ZSt3absd)
    std::abs(float)                          0x08008cd3   Thumb Code    10  main.o(i._ZSt3absf)
    std::cos(float)                          0x08008cdd   Thumb Code    24  openmv.o(i._ZSt3cosf)
    std::pow(double, int)                    0x08008cf5   Thumb Code    52  queues_ball.o(i._ZSt3powdi)
    std::pow(float, float)                   0x08008d29   Thumb Code    32  goalkeeper.o(i._ZSt3powff)
    std::pow(float, int)                     0x08008d49   Thumb Code    34  goalkeeper.o(i._ZSt3powfi)
    std::sin(float)                          0x08008d6b   Thumb Code    24  openmv.o(i._ZSt3sinf)
    std::sqrt(float)                         0x08008d83   Thumb Code    24  processing_coord.o(i._ZSt4sqrtf)
    std::atan2(float, float)                 0x08008d9b   Thumb Code    32  main.o(i._ZSt5atan2ff)
    __ARM_fpclassify                         0x08008dbb   Thumb Code    48  fpclassify.o(i.__ARM_fpclassify)
    __ARM_fpclassifyf                        0x08008deb   Thumb Code    38  fpclassifyf.o(i.__ARM_fpclassifyf)
    __aeabi_vec_ctor_nocookie_nodtor         0x08008e11   Thumb Code    36  aeabi_vec_ctor_nocookie_nodtor.o(i.__aeabi_vec_ctor_nocookie_nodtor)
    __hardfp_atan                            0x08008e39   Thumb Code   622  atan.o(i.__hardfp_atan)
    __hardfp_atan2                           0x08009111   Thumb Code   448  atan2.o(i.__hardfp_atan2)
    __hardfp_atan2f                          0x08009311   Thumb Code   594  atan2f.o(i.__hardfp_atan2f)
    __hardfp_cos                             0x080095c1   Thumb Code   180  cos.o(i.__hardfp_cos)
    __hardfp_cosf                            0x08009689   Thumb Code   280  cosf.o(i.__hardfp_cosf)
    __hardfp_fabs                            0x080097d9   Thumb Code    20  fabs.o(i.__hardfp_fabs)
    __hardfp_pow                             0x080097f1   Thumb Code  3072  pow.o(i.__hardfp_pow)
    __hardfp_powf                            0x0800a441   Thumb Code  1606  powf.o(i.__hardfp_powf)
    __mathlib_powf                           0x0800a441   Thumb Code     0  powf.o(i.__hardfp_powf)
    __hardfp_sin                             0x0800aaa9   Thumb Code   180  sin.o(i.__hardfp_sin)
    __hardfp_sinf                            0x0800ab71   Thumb Code   344  sinf.o(i.__hardfp_sinf)
    __hardfp_sqrt                            0x0800ad01   Thumb Code   122  sqrt.o(i.__hardfp_sqrt)
    __hardfp_sqrtf                           0x0800ad7b   Thumb Code    58  sqrtf.o(i.__hardfp_sqrtf)
    __ieee754_rem_pio2                       0x0800adb9   Thumb Code   938  rred.o(i.__ieee754_rem_pio2)
    __kernel_cos                             0x0800b1f1   Thumb Code   322  cos_i.o(i.__kernel_cos)
    __kernel_poly                            0x0800b361   Thumb Code   248  poly.o(i.__kernel_poly)
    __kernel_sin                             0x0800b459   Thumb Code   280  sin_i.o(i.__kernel_sin)
    __mathlib_dbl_divzero                    0x0800b589   Thumb Code    28  dunder.o(i.__mathlib_dbl_divzero)
    __mathlib_dbl_infnan                     0x0800b5b9   Thumb Code    20  dunder.o(i.__mathlib_dbl_infnan)
    __mathlib_dbl_infnan2                    0x0800b5cd   Thumb Code    20  dunder.o(i.__mathlib_dbl_infnan2)
    __mathlib_dbl_invalid                    0x0800b5e1   Thumb Code    24  dunder.o(i.__mathlib_dbl_invalid)
    __mathlib_dbl_overflow                   0x0800b601   Thumb Code    24  dunder.o(i.__mathlib_dbl_overflow)
    __mathlib_dbl_underflow                  0x0800b621   Thumb Code    24  dunder.o(i.__mathlib_dbl_underflow)
    __mathlib_flt_divzero                    0x0800b641   Thumb Code    14  funder.o(i.__mathlib_flt_divzero)
    __mathlib_flt_infnan                     0x0800b655   Thumb Code     6  funder.o(i.__mathlib_flt_infnan)
    __mathlib_flt_infnan2                    0x0800b65b   Thumb Code     6  funder.o(i.__mathlib_flt_infnan2)
    __mathlib_flt_invalid                    0x0800b661   Thumb Code    10  funder.o(i.__mathlib_flt_invalid)
    __mathlib_flt_overflow                   0x0800b671   Thumb Code    10  funder.o(i.__mathlib_flt_overflow)
    __mathlib_flt_underflow                  0x0800b681   Thumb Code    10  funder.o(i.__mathlib_flt_underflow)
    __mathlib_rredf2                         0x0800b691   Thumb Code   316  rredf.o(i.__mathlib_rredf2)
    _sys_exit                                0x0800bc91   Thumb Code     4  retarget.o(i._sys_exit)
    atan                                     0x0800bc95   Thumb Code    16  atan.o(i.atan)
    fabs                                     0x0800bca5   Thumb Code    24  fabs.o(i.fabs)
    main                                     0x0800bcbd   Thumb Code   402  main.o(i.main)
    sqrt                                     0x0800bead   Thumb Code   110  sqrt.o(i.sqrt)
    __aeabi_dneg                             0x0800bf1b   Thumb Code     0  basic.o(x$fpl$basic)
    _dneg                                    0x0800bf1b   Thumb Code     6  basic.o(x$fpl$basic)
    __aeabi_fneg                             0x0800bf21   Thumb Code     0  basic.o(x$fpl$basic)
    _fneg                                    0x0800bf21   Thumb Code     6  basic.o(x$fpl$basic)
    _dabs                                    0x0800bf27   Thumb Code     6  basic.o(x$fpl$basic)
    _fabs                                    0x0800bf2d   Thumb Code     6  basic.o(x$fpl$basic)
    __aeabi_d2f                              0x0800bf35   Thumb Code     0  d2f.o(x$fpl$d2f)
    _d2f                                     0x0800bf35   Thumb Code    98  d2f.o(x$fpl$d2f)
    __aeabi_dadd                             0x0800bf99   Thumb Code     0  daddsub_clz.o(x$fpl$dadd)
    _dadd                                    0x0800bf99   Thumb Code   332  daddsub_clz.o(x$fpl$dadd)
    __fpl_dcheck_NaN1                        0x0800c0e9   Thumb Code    10  dcheck1.o(x$fpl$dcheck1)
    __fpl_dcmp_Inf                           0x0800c0f9   Thumb Code    24  dcmpi.o(x$fpl$dcmpinf)
    __aeabi_ddiv                             0x0800c111   Thumb Code     0  ddiv.o(x$fpl$ddiv)
    _ddiv                                    0x0800c111   Thumb Code   552  ddiv.o(x$fpl$ddiv)
    __aeabi_cdcmpeq                          0x0800c3c1   Thumb Code     0  deqf.o(x$fpl$deqf)
    _dcmpeq                                  0x0800c3c1   Thumb Code   120  deqf.o(x$fpl$deqf)
    __aeabi_d2iz                             0x0800c439   Thumb Code     0  dfix.o(x$fpl$dfix)
    _dfix                                    0x0800c439   Thumb Code    94  dfix.o(x$fpl$dfix)
    __aeabi_i2d                              0x0800c497   Thumb Code     0  dflt_clz.o(x$fpl$dflt)
    _dflt                                    0x0800c497   Thumb Code    46  dflt_clz.o(x$fpl$dflt)
    __aeabi_l2d                              0x0800c4c5   Thumb Code     0  dfltll_clz.o(x$fpl$dfltll)
    _ll_sto_d                                0x0800c4c5   Thumb Code   162  dfltll_clz.o(x$fpl$dfltll)
    __aeabi_ui2d                             0x0800c567   Thumb Code     0  dflt_clz.o(x$fpl$dfltu)
    _dfltu                                   0x0800c567   Thumb Code    38  dflt_clz.o(x$fpl$dfltu)
    __aeabi_ul2d                             0x0800c58d   Thumb Code     0  dfltll_clz.o(x$fpl$dfltull)
    _ll_uto_d                                0x0800c58d   Thumb Code   138  dfltll_clz.o(x$fpl$dfltull)
    __aeabi_cdcmple                          0x0800c619   Thumb Code     0  dleqf.o(x$fpl$dleqf)
    _dcmple                                  0x0800c619   Thumb Code   120  dleqf.o(x$fpl$dleqf)
    __fpl_dcmple_InfNaN                      0x0800c67b   Thumb Code     0  dleqf.o(x$fpl$dleqf)
    __aeabi_dmul                             0x0800c691   Thumb Code     0  dmul.o(x$fpl$dmul)
    _dmul                                    0x0800c691   Thumb Code   332  dmul.o(x$fpl$dmul)
    __fpl_dnaninf                            0x0800c7e5   Thumb Code   156  dnaninf.o(x$fpl$dnaninf)
    __fpl_dretinf                            0x0800c881   Thumb Code    12  dretinf.o(x$fpl$dretinf)
    __aeabi_cdrcmple                         0x0800c88d   Thumb Code     0  drleqf.o(x$fpl$drleqf)
    _drcmple                                 0x0800c88d   Thumb Code   108  drleqf.o(x$fpl$drleqf)
    __aeabi_drsub                            0x0800c8f9   Thumb Code     0  daddsub_clz.o(x$fpl$drsb)
    _drsb                                    0x0800c8f9   Thumb Code    22  daddsub_clz.o(x$fpl$drsb)
    _dsqrt                                   0x0800c911   Thumb Code   404  dsqrt_umaal.o(x$fpl$dsqrt)
    __aeabi_dsub                             0x0800caa9   Thumb Code     0  daddsub_clz.o(x$fpl$dsub)
    _dsub                                    0x0800caa9   Thumb Code   464  daddsub_clz.o(x$fpl$dsub)
    __aeabi_f2d                              0x0800cc7d   Thumb Code     0  f2d.o(x$fpl$f2d)
    _f2d                                     0x0800cc7d   Thumb Code    86  f2d.o(x$fpl$f2d)
    __fpl_fnaninf                            0x0800ccd3   Thumb Code   140  fnaninf.o(x$fpl$fnaninf)
    _fp_init                                 0x0800cd5f   Thumb Code    10  fpinit.o(x$fpl$fpinit)
    __fplib_config_fpu_vfp                   0x0800cd67   Thumb Code     0  fpinit.o(x$fpl$fpinit)
    __fplib_config_pureend_doubles           0x0800cd67   Thumb Code     0  fpinit.o(x$fpl$fpinit)
    __fpl_fretinf                            0x0800cd69   Thumb Code    10  fretinf.o(x$fpl$fretinf)
    __fpl_return_NaN                         0x0800cd73   Thumb Code   100  retnan.o(x$fpl$retnan)
    __ARM_scalbn                             0x0800cdd7   Thumb Code    92  scalbn.o(x$fpl$scalbn)
    __fpl_cmpreturn                          0x0800ce33   Thumb Code    48  trapv.o(x$fpl$trapveneer)
    __I$use$fp                               0x0800ce62   Number         0  usenofp.o(x$fpl$usenofp)
    __mathlib_zero                           0x0800d130   Data           8  qnan.o(.constdata)
    Region$$Table$$Base                      0x0800d248   Number         0  anon$$obj.o(Region$$Table)
    Region$$Table$$Limit                     0x0800d268   Number         0  anon$$obj.o(Region$$Table)
    SHT$$INIT_ARRAY$$Base                    0x0800d268   Number         0  main.o(.init_array)
    SHT$$INIT_ARRAY$$Limit                   0x0800d26c   Number         0  init_aeabi.o(.init_array)
    Asterisk::outStatus                      0x20000000   Data           2  main.o(.data)
    Asterisk::outStatusNow                   0x20000002   Data           2  main.o(.data)
    Asterisk::ang                            0x20000004   Data           4  main.o(.data)
    Asterisk::dist                           0x20000008   Data           4  main.o(.data)
    Asterisk::imuCalibrated                  0x2000000c   Data           1  main.o(.data)
    Asterisk::pow                            0x2000000e   Data           2  main.o(.data)
    Asterisk::angleIMU                       0x20000010   Data           4  main.o(.data)
    Asterisk::angSoft                        0x20000014   Data           4  main.o(.data)
    Asterisk::distSoft                       0x20000018   Data           4  main.o(.data)
    Asterisk::angRes                         0x2000001c   Data           4  main.o(.data)
    Asterisk::distOld                        0x20000020   Data           4  main.o(.data)
    Asterisk::angOld                         0x20000024   Data           4  main.o(.data)
    Asterisk::t                              0x20000028   Data           8  main.o(.data)
    Asterisk::timeNotSeenBall                0x20000030   Data           8  main.o(.data)
    Asterisk::timeUpdateQueue                0x20000038   Data           8  main.o(.data)
    Asterisk::timeCheckLeave                 0x20000040   Data           8  main.o(.data)
    Asterisk::timeInLeaving                  0x20000048   Data           8  main.o(.data)
    Asterisk::timeCalibrEnd                  0x20000050   Data           8  main.o(.data)
    Asterisk::timeOUT                        0x20000058   Data           8  main.o(.data)
    Asterisk::timeBallFront                  0x20000060   Data           8  main.o(.data)
    Asterisk::timeMotorsWork                 0x20000068   Data           8  main.o(.data)
    Asterisk::x                              0x20000070   Data           2  main.o(.data)
    Asterisk::y                              0x20000072   Data           2  main.o(.data)
    Asterisk::xGkReturn                      0x20000074   Data           2  main.o(.data)
    Asterisk::yGkReturn                      0x20000076   Data           2  main.o(.data)
    Asterisk::angRaw                         0x20000078   Data           4  main.o(.data)
    Asterisk::angRawOld                      0x2000007c   Data           4  main.o(.data)
    Asterisk::distRaw                        0x20000080   Data           4  main.o(.data)
    Asterisk::distRaw2                       0x20000084   Data           4  main.o(.data)
    Asterisk::distSoftOld                    0x20000088   Data           4  main.o(.data)
    Asterisk::myGoal                         0x2000008c   Data           1  main.o(.data)
    Asterisk::myRole                         0x2000008d   Data           1  main.o(.data)
    Asterisk::myGoalOld                      0x2000008e   Data           1  main.o(.data)
    Asterisk::myRoleOld                      0x2000008f   Data           1  main.o(.data)
    Asterisk::dBl                            0x20000090   Data           2  main.o(.data)
    Asterisk::dYe                            0x20000092   Data           2  main.o(.data)
    Asterisk::angBlue                        0x20000094   Data           2  main.o(.data)
    Asterisk::angYellow                      0x20000096   Data           2  main.o(.data)
    Asterisk::targetRaw                      0x20000098   Data           4  main.o(.data)
    Asterisk::target                         0x2000009c   Data           4  main.o(.data)
    Asterisk::speedForward                   0x200000a0   Data           8  main.o(.data)
    Asterisk::angleBallGoal                  0x200000a8   Data           2  main.o(.data)
    Asterisk::angToGoal                      0x200000aa   Data           2  main.o(.data)
    Asterisk::doesntSeeGoals                 0x200000ac   Data           1  main.o(.data)
    Asterisk::ang0_360                       0x200000ae   Data           2  main.o(.data)
    Asterisk::angY                           0x200000b0   Data           2  main.o(.data)
    Asterisk::myMode                         0x200000b2   Data           1  main.o(.data)
    Asterisk::seeBall                        0x200000b3   Data           1  main.o(.data)
    Asterisk::motorsWork                     0x200000b4   Data           1  main.o(.data)
    Asterisk::neverTurnMotors                0x200000b5   Data           1  main.o(.data)
    Asterisk::robotMustLeave                 0x200000b6   Data           1  main.o(.data)
    Asterisk::robotInOutOld                  0x200000b7   Data           1  main.o(.data)
    Asterisk::inLeave                        0x200000b8   Data           1  main.o(.data)
    Asterisk::inReturn                       0x200000b9   Data           1  main.o(.data)
    Asterisk::goFromOUT                      0x200000ba   Data           1  main.o(.data)
    Asterisk::goFromOutTime                  0x200000bb   Data           1  main.o(.data)
    Asterisk::kLen                           0x200000c0   Data           8  main.o(.data)
    Asterisk::kAng                           0x200000c8   Data           8  main.o(.data)
    Asterisk::volt                           0x200000d0   Data           8  main.o(.data)
    Asterisk::currLeaveTime                  0x200000d8   Data           2  main.o(.data)
    Asterisk::usart6Available                0x200000da   Data           2  main.o(.data)
    Asterisk::robotInOUT                     0x200000dc   Data           1  main.o(.data)
    Asterisk::xYellow                        0x200000e0   Data           4  main.o(.data)
    Asterisk::yYellow                        0x200000e4   Data           4  main.o(.data)
    Asterisk::xBlue                          0x200000e8   Data           4  main.o(.data)
    Asterisk::yBlue                          0x200000ec   Data           4  main.o(.data)
    Asterisk::capacitorADC                   0x200000f0   Data           4  main.o(.data)
    Asterisk::nearOUT                        0x200000f4   Data           1  main.o(.data)
    Asterisk::ballGrip                       0x200000f5   Data           1  main.o(.data)
    Asterisk::readed                         0x200000f6   Data           1  main.o(.data)
    Asterisk::ballVal                        0x200000f8   Data           2  main.o(.data)
    Asterisk::globalAng2Ball                 0x200000fc   Data           4  main.o(.data)
    Asterisk::detownDir                      0x20000100   Data           1  main.o(.data)
    Asterisk::byEnemyGoalGK                  0x20000101   Data           1  main.o(.data)
    Asterisk::timeDetown                     0x20000102   Data           1  main.o(.data)
    Asterisk::xReturn                        0x20000104   Data           4  main.o(.data)
    Asterisk::yReturn                        0x20000108   Data           4  main.o(.data)
    Asterisk::globalAng                      0x2000010c   Data           4  main.o(.data)
    Asterisk::NEED_TO_CALIBRATE              0x20000110   Data           1  main.o(.data)
    Asterisk::voltageDiv                     0x20000114   Data           8  main.o(.data)
    time_service::tim                        0x20000120   Data           8  time_service.o(.data)
    uart1::rx                                0x20000128   Data           8  usart1.o(.data)
    uart1::_rxCnt                            0x20000130   Data           2  usart1.o(.data)
    uart1::_txCnt                            0x20000132   Data           2  usart1.o(.data)
    uart1::tx                                0x20000134   Data           8  usart1.o(.data)
    uart1::_sendCnt                          0x2000013c   Data           2  usart1.o(.data)
    uart1::_readCnt                          0x2000013e   Data           2  usart1.o(.data)
    uart1::flag                              0x20000140   Data           1  usart1.o(.data)
    uart2::rx                                0x20000142   Data           8  usart2.o(.data)
    uart2::_rxCnt                            0x2000014a   Data           2  usart2.o(.data)
    uart2::_txCnt                            0x2000014c   Data           2  usart2.o(.data)
    uart2::tx                                0x2000014e   Data           8  usart2.o(.data)
    uart2::_sendCnt                          0x20000156   Data           2  usart2.o(.data)
    uart2::_readCnt                          0x20000158   Data           2  usart2.o(.data)
    uart2::flag                              0x2000015a   Data           1  usart2.o(.data)
    uart3::rx                                0x2000015c   Data           8  usart3.o(.data)
    uart3::_rxCnt                            0x20000164   Data           2  usart3.o(.data)
    uart3::_txCnt                            0x20000166   Data           2  usart3.o(.data)
    uart3::tx                                0x20000168   Data           8  usart3.o(.data)
    uart3::_sendCnt                          0x20000170   Data           2  usart3.o(.data)
    uart3::_readCnt                          0x20000172   Data           2  usart3.o(.data)
    uart3::flag                              0x20000174   Data           1  usart3.o(.data)
    uart6::rx                                0x20000176   Data           8  usart6.o(.data)
    uart6::_rxCnt                            0x2000017e   Data           2  usart6.o(.data)
    uart6::_txCnt                            0x20000180   Data           2  usart6.o(.data)
    uart6::tx                                0x20000182   Data           8  usart6.o(.data)
    uart6::_sendCnt                          0x2000018a   Data           2  usart6.o(.data)
    uart6::_readCnt                          0x2000018c   Data           2  usart6.o(.data)
    uart6::flag                              0x2000018e   Data           1  usart6.o(.data)
    SPI_1::_spi_mode                         0x20000190   Data           4  spi_1.o(.data)
    SPI_1::_spi_direction                    0x20000194   Data           4  spi_1.o(.data)
    SPI_1::_baud_rate                        0x20000198   Data           4  spi_1.o(.data)
    SPI_1::_first_bit                        0x2000019c   Data           4  spi_1.o(.data)
    SPI_1::_cur_rx_read                      0x200001a0   Data           2  spi_1.o(.data)
    SPI_1::_cur_rx_write                     0x200001a2   Data           2  spi_1.o(.data)
    SPI_1::_buf_size                         0x200001a4   Data           2  spi_1.o(.data)
    Asterisk::currentVector                  0x200001b8   Data          16  main.o(.bss)
    Asterisk::goToBall                       0x200001c8   Data          16  main.o(.bss)
    Asterisk::goOUT                          0x200001d8   Data          16  main.o(.bss)
    Asterisk::goTo                           0x200001e8   Data          16  main.o(.bss)
    Asterisk::tssps_                         0x200001f8   Data          32  main.o(.bss)
    Asterisk::voltageDividerPin              0x20000218   Data          64  main.o(.bss)
    Asterisk::voltageDividerPinADC           0x20000258   Data          64  main.o(.bss)
    Asterisk::voltageDividerDMA              0x20000298   Data          80  main.o(.bss)
    Asterisk::ballSensPin                    0x200002e8   Data          64  main.o(.bss)
    Asterisk::ballSensADC                    0x20000328   Data          64  main.o(.bss)
    Asterisk::ballSensDMA                    0x20000368   Data          80  main.o(.bss)
    Asterisk::ballSens                       0x200003b8   Data          24  main.o(.bss)
    Asterisk::tsop_in1                       0x200003d0   Data          64  main.o(.bss)
    Asterisk::tsop_in2                       0x20000410   Data          64  main.o(.bss)
    Asterisk::tsop_in3                       0x20000450   Data          64  main.o(.bss)
    Asterisk::tsop_in4                       0x20000490   Data          64  main.o(.bss)
    Asterisk::tsopPin1                       0x200004d0   Data          64  main.o(.bss)
    Asterisk::tsopPin2                       0x20000510   Data          64  main.o(.bss)
    Asterisk::tsops                          0x20000550   Data         424  main.o(.bss)
    Asterisk::tx_openMV                      0x200006f8   Data          64  main.o(.bss)
    Asterisk::rx_openMV                      0x20000738   Data          64  main.o(.bss)
    Asterisk::camera                         0x20000778   Data          40  main.o(.bss)
    Asterisk::reset_imu_pin                  0x200007a0   Data          64  main.o(.bss)
    Asterisk::tx_imu                         0x200007e0   Data          64  main.o(.bss)
    Asterisk::rx_imu                         0x20000820   Data          64  main.o(.bss)
    Asterisk::gyro                           0x20000860   Data          16  main.o(.bss)
    Asterisk::capacitorPin                   0x20000870   Data          64  main.o(.bss)
    Asterisk::capacitorPinADC                0x200008b0   Data          64  main.o(.bss)
    Asterisk::capacitor                      0x200008f0   Data          80  main.o(.bss)
    Asterisk::kickerPin                      0x20000940   Data          64  main.o(.bss)
    Asterisk::kicker                         0x20000980   Data          32  main.o(.bss)
    Asterisk::button1                        0x200009a0   Data          64  main.o(.bss)
    Asterisk::button2                        0x200009e0   Data          64  main.o(.bss)
    Asterisk::button3                        0x20000a20   Data          64  main.o(.bss)
    Asterisk::motorsButton                   0x20000a60   Data          80  main.o(.bss)
    Asterisk::butt2                          0x20000ab0   Data          80  main.o(.bss)
    Asterisk::goalButton                     0x20000b00   Data          80  main.o(.bss)
    Asterisk::swMotorPower                   0x20000b50   Data          64  main.o(.bss)
    Asterisk::swGoalChoose                   0x20000b90   Data          64  main.o(.bss)
    Asterisk::swRoleChoose                   0x20000bd0   Data          64  main.o(.bss)
    Asterisk::switcher                       0x20000c10   Data          64  main.o(.bss)
    Asterisk::goalSW                         0x20000c50   Data          80  main.o(.bss)
    Asterisk::roleSW                         0x20000ca0   Data          80  main.o(.bss)
    Asterisk::gkLED                          0x20000cf0   Data          64  main.o(.bss)
    Asterisk::forwLED                        0x20000d30   Data          64  main.o(.bss)
    Asterisk::blueGoalLED                    0x20000d70   Data          64  main.o(.bss)
    Asterisk::yellowGoalLED                  0x20000db0   Data          64  main.o(.bss)
    Asterisk::led1                           0x20000df0   Data          64  main.o(.bss)
    Asterisk::led2                           0x20000e30   Data          64  main.o(.bss)
    Asterisk::led3                           0x20000e70   Data          64  main.o(.bss)
    Asterisk::motor1in1                      0x20000eb0   Data          64  main.o(.bss)
    Asterisk::motor1in2                      0x20000ef0   Data          64  main.o(.bss)
    Asterisk::motor1                         0x20000f30   Data         128  main.o(.bss)
    Asterisk::motor2in1                      0x20000fb0   Data          64  main.o(.bss)
    Asterisk::motor2in2                      0x20000ff0   Data          64  main.o(.bss)
    Asterisk::motor2                         0x20001030   Data         128  main.o(.bss)
    Asterisk::motor3in1                      0x200010b0   Data          64  main.o(.bss)
    Asterisk::motor3in2                      0x200010f0   Data          64  main.o(.bss)
    Asterisk::motor3                         0x20001130   Data         128  main.o(.bss)
    Asterisk::motor4in1                      0x200011b0   Data          64  main.o(.bss)
    Asterisk::motor4in2                      0x200011f0   Data          64  main.o(.bss)
    Asterisk::motor4                         0x20001230   Data         128  main.o(.bss)
    Asterisk::omni                           0x200012b0   Data         512  main.o(.bss)
    Asterisk::ball                           0x200014b0   Data        3016  main.o(.bss)
    Asterisk::myForward                      0x20002078   Data          36  main.o(.bss)
    Asterisk::myGoalkeeper                   0x2000209c   Data          56  main.o(.bss)
    SPI_1::_rx_buffer                        0x200020d4   Data          32  spi_1.o(.bss)
    __libspace_start                         0x200020f4   Data          96  libspace.o(.bss)
    __temporary_stack_top$libspace           0x20002154   Data           0  libspace.o(.bss)



==============================================================================

Memory Map of the image

  Image Entry point : 0x08000189

  Load Region LR_IROM1 (Base: 0x08000000, Size: 0x0000d424, Max: 0x00100000, ABSOLUTE, COMPRESSED[0x0000d27c])

    Execution Region ER_IROM1 (Exec base: 0x08000000, Load base: 0x08000000, Size: 0x0000d26c, Max: 0x00100000, ABSOLUTE)

    Exec Addr    Load Addr    Size         Type   Attr      Idx    E Section Name        Object

    0x08000000   0x08000000   0x00000188   Data   RO         5509    RESET               startup_stm32f407xx.o
    0x08000188   0x08000188   0x00000008   Code   RO         5642  * !!!main             c_w.l(__main.o)
    0x08000190   0x08000190   0x00000034   Code   RO         6212    !!!scatter          c_w.l(__scatter.o)
    0x080001c4   0x080001c4   0x0000005a   Code   RO         6210    !!dczerorl2         c_w.l(__dczerorl2.o)
    0x0800021e   0x0800021e   0x00000002   PAD
    0x08000220   0x08000220   0x0000001c   Code   RO         6214    !!handler_zi        c_w.l(__scatter_zi.o)
    0x0800023c   0x0800023c   0x00000002   Code   RO         6018    .ARM.Collect$$libinit$$00000000  c_w.l(libinit.o)
    0x0800023e   0x0800023e   0x00000004   Code   RO         5842    .ARM.Collect$$libinit$$00000001  c_w.l(libinit2.o)
    0x08000242   0x08000242   0x00000000   Code   RO         5845    .ARM.Collect$$libinit$$00000004  c_w.l(libinit2.o)
    0x08000242   0x08000242   0x00000000   Code   RO         5848    .ARM.Collect$$libinit$$0000000A  c_w.l(libinit2.o)
    0x08000242   0x08000242   0x00000000   Code   RO         5850    .ARM.Collect$$libinit$$0000000C  c_w.l(libinit2.o)
    0x08000242   0x08000242   0x00000000   Code   RO         5852    .ARM.Collect$$libinit$$0000000E  c_w.l(libinit2.o)
    0x08000242   0x08000242   0x00000000   Code   RO         5855    .ARM.Collect$$libinit$$00000011  c_w.l(libinit2.o)
    0x08000242   0x08000242   0x00000000   Code   RO         5857    .ARM.Collect$$libinit$$00000013  c_w.l(libinit2.o)
    0x08000242   0x08000242   0x00000000   Code   RO         5859    .ARM.Collect$$libinit$$00000015  c_w.l(libinit2.o)
    0x08000242   0x08000242   0x00000000   Code   RO         5861    .ARM.Collect$$libinit$$00000017  c_w.l(libinit2.o)
    0x08000242   0x08000242   0x00000000   Code   RO         5863    .ARM.Collect$$libinit$$00000019  c_w.l(libinit2.o)
    0x08000242   0x08000242   0x00000000   Code   RO         5865    .ARM.Collect$$libinit$$0000001B  c_w.l(libinit2.o)
    0x08000242   0x08000242   0x00000000   Code   RO         5867    .ARM.Collect$$libinit$$0000001D  c_w.l(libinit2.o)
    0x08000242   0x08000242   0x00000000   Code   RO         5869    .ARM.Collect$$libinit$$0000001F  c_w.l(libinit2.o)
    0x08000242   0x08000242   0x00000000   Code   RO         5871    .ARM.Collect$$libinit$$00000021  c_w.l(libinit2.o)
    0x08000242   0x08000242   0x00000000   Code   RO         5873    .ARM.Collect$$libinit$$00000023  c_w.l(libinit2.o)
    0x08000242   0x08000242   0x00000000   Code   RO         5875    .ARM.Collect$$libinit$$00000025  c_w.l(libinit2.o)
    0x08000242   0x08000242   0x00000000   Code   RO         5879    .ARM.Collect$$libinit$$0000002C  c_w.l(libinit2.o)
    0x08000242   0x08000242   0x00000000   Code   RO         5881    .ARM.Collect$$libinit$$0000002E  c_w.l(libinit2.o)
    0x08000242   0x08000242   0x00000000   Code   RO         5883    .ARM.Collect$$libinit$$00000030  c_w.l(libinit2.o)
    0x08000242   0x08000242   0x00000004   Code   RO         5884    .ARM.Collect$$libinit$$00000031  c_w.l(libinit2.o)
    0x08000246   0x08000246   0x00000000   Code   RO         5885    .ARM.Collect$$libinit$$00000032  c_w.l(libinit2.o)
    0x08000246   0x08000246   0x00000002   Code   RO         5886    .ARM.Collect$$libinit$$00000033  c_w.l(libinit2.o)
    0x08000248   0x08000248   0x00000002   Code   RO         6167    .ARM.Collect$$libshutdown$$00000000  c_w.l(libshutdown.o)
    0x0800024a   0x0800024a   0x00000000   Code   RO         6173    .ARM.Collect$$libshutdown$$00000002  c_w.l(libshutdown2.o)
    0x0800024a   0x0800024a   0x00000000   Code   RO         6175    .ARM.Collect$$libshutdown$$00000004  c_w.l(libshutdown2.o)
    0x0800024a   0x0800024a   0x00000000   Code   RO         6177    .ARM.Collect$$libshutdown$$00000006  c_w.l(libshutdown2.o)
    0x0800024a   0x0800024a   0x00000000   Code   RO         6180    .ARM.Collect$$libshutdown$$00000009  c_w.l(libshutdown2.o)
    0x0800024a   0x0800024a   0x00000000   Code   RO         6183    .ARM.Collect$$libshutdown$$0000000C  c_w.l(libshutdown2.o)
    0x0800024a   0x0800024a   0x00000000   Code   RO         6185    .ARM.Collect$$libshutdown$$0000000E  c_w.l(libshutdown2.o)
    0x0800024a   0x0800024a   0x00000000   Code   RO         6188    .ARM.Collect$$libshutdown$$00000011  c_w.l(libshutdown2.o)
    0x0800024a   0x0800024a   0x00000002   Code   RO         6189    .ARM.Collect$$libshutdown$$00000012  c_w.l(libshutdown2.o)
    0x0800024c   0x0800024c   0x00000000   Code   RO         5839    .ARM.Collect$$rtentry$$00000000  c_w.l(__rtentry.o)
    0x0800024c   0x0800024c   0x00000000   Code   RO         5974    .ARM.Collect$$rtentry$$00000002  c_w.l(__rtentry2.o)
    0x0800024c   0x0800024c   0x00000006   Code   RO         5986    .ARM.Collect$$rtentry$$00000004  c_w.l(__rtentry4.o)
    0x08000252   0x08000252   0x00000000   Code   RO         5976    .ARM.Collect$$rtentry$$00000009  c_w.l(__rtentry2.o)
    0x08000252   0x08000252   0x00000004   Code   RO         5977    .ARM.Collect$$rtentry$$0000000A  c_w.l(__rtentry2.o)
    0x08000256   0x08000256   0x00000000   Code   RO         5979    .ARM.Collect$$rtentry$$0000000C  c_w.l(__rtentry2.o)
    0x08000256   0x08000256   0x00000008   Code   RO         5980    .ARM.Collect$$rtentry$$0000000D  c_w.l(__rtentry2.o)
    0x0800025e   0x0800025e   0x00000002   Code   RO         6028    .ARM.Collect$$rtexit$$00000000  c_w.l(rtexit.o)
    0x08000260   0x08000260   0x00000000   Code   RO         6107    .ARM.Collect$$rtexit$$00000002  c_w.l(rtexit2.o)
    0x08000260   0x08000260   0x00000004   Code   RO         6108    .ARM.Collect$$rtexit$$00000003  c_w.l(rtexit2.o)
    0x08000264   0x08000264   0x00000006   Code   RO         6109    .ARM.Collect$$rtexit$$00000004  c_w.l(rtexit2.o)
    0x0800026a   0x0800026a   0x00000002   PAD
    0x0800026c   0x0800026c   0x00000040   Code   RO         5510    .text               startup_stm32f407xx.o
    0x080002ac   0x080002ac   0x00000002   Code   RO         5636    .text               c_w.l(use_no_semi.o)
    0x080002ae   0x080002ae   0x00000064   Code   RO         5638    .text               c_w.l(rt_memcpy_w.o)
    0x08000312   0x08000312   0x00000006   Code   RO         5640    .text               c_w.l(heapauxi.o)
    0x08000318   0x08000318   0x00000024   Code   RO         5647    .text               c_w.l(init_aeabi.o)
    0x0800033c   0x0800033c   0x00000016   Code   RO         5840    .text               c_w.l(_rserrno.o)
    0x08000352   0x08000352   0x00000002   PAD
    0x08000354   0x08000354   0x00000008   Code   RO         5991    .text               c_w.l(rt_errno_addr_intlibspace.o)
    0x0800035c   0x0800035c   0x00000008   Code   RO         6002    .text               c_w.l(libspace.o)
    0x08000364   0x08000364   0x0000004a   Code   RO         6005    .text               c_w.l(sys_stackheap_outer.o)
    0x080003ae   0x080003ae   0x00000012   Code   RO         6007    .text               c_w.l(exit.o)
    0x080003c0   0x080003c0   0x00000016   Code   RO         3076    i.ADC_Cmd           stm32f4xx_adc.o
    0x080003d6   0x080003d6   0x00000002   PAD
    0x080003d8   0x080003d8   0x00000030   Code   RO         3077    i.ADC_CommonInit    stm32f4xx_adc.o
    0x08000408   0x08000408   0x00000016   Code   RO         3080    i.ADC_DMACmd        stm32f4xx_adc.o
    0x0800041e   0x0800041e   0x00000016   Code   RO         3081    i.ADC_DMARequestAfterLastTransferCmd  stm32f4xx_adc.o
    0x08000434   0x08000434   0x00000016   Code   RO         3085    i.ADC_EOCOnEachRegularChannelCmd  stm32f4xx_adc.o
    0x0800044a   0x0800044a   0x00000002   PAD
    0x0800044c   0x0800044c   0x00000054   Code   RO         3096    i.ADC_Init          stm32f4xx_adc.o
    0x080004a0   0x080004a0   0x000000b8   Code   RO         3101    i.ADC_RegularChannelConfig  stm32f4xx_adc.o
    0x08000558   0x08000558   0x0000000a   Code   RO         3103    i.ADC_SoftwareStartConv  stm32f4xx_adc.o
    0x08000562   0x08000562   0x00000016   Code   RO         3765    i.DMA_Cmd           stm32f4xx_dma.o
    0x08000578   0x08000578   0x00000158   Code   RO         3766    i.DMA_DeInit        stm32f4xx_dma.o
    0x080006d0   0x080006d0   0x00000058   Code   RO         3777    i.DMA_Init          stm32f4xx_dma.o
    0x08000728   0x08000728   0x00000090   Code   RO         3899    i.GPIO_Init         stm32f4xx_gpio.o
    0x080007b8   0x080007b8   0x00000046   Code   RO         3900    i.GPIO_PinAFConfig  stm32f4xx_gpio.o
    0x080007fe   0x080007fe   0x00000008   Code   RO         3902    i.GPIO_ReadInputData  stm32f4xx_gpio.o
    0x08000806   0x08000806   0x00000004   Code   RO         3906    i.GPIO_ResetBits    stm32f4xx_gpio.o
    0x0800080a   0x0800080a   0x00000004   Code   RO         3907    i.GPIO_SetBits      stm32f4xx_gpio.o
    0x0800080e   0x0800080e   0x00000002   PAD
    0x08000810   0x08000810   0x00000020   Code   RO         4234    i.RCC_AHB1PeriphClockCmd  stm32f4xx_rcc.o
    0x08000830   0x08000830   0x00000020   Code   RO         4243    i.RCC_APB1PeriphClockCmd  stm32f4xx_rcc.o
    0x08000850   0x08000850   0x00000020   Code   RO         4246    i.RCC_APB2PeriphClockCmd  stm32f4xx_rcc.o
    0x08000870   0x08000870   0x000000e8   Code   RO         4255    i.RCC_GetClocksFreq  stm32f4xx_rcc.o
    0x08000958   0x08000958   0x0000006c   Code   RO         2771    i.SPI1_IRQHandler   spi_1.o
    0x080009c4   0x080009c4   0x00000012   Code   RO         4589    i.SPI_I2S_GetFlagStatus  stm32f4xx_spi.o
    0x080009d6   0x080009d6   0x00000002   PAD
    0x080009d8   0x080009d8   0x00000110   Code   RO         5517    i.SetSysClock       system_stm32f4xx.o
    0x08000ae8   0x08000ae8   0x00000018   Code   RO         1831    i.SysTick_Handler   time_service.o
    0x08000b00   0x08000b00   0x00000068   Code   RO         5519    i.SystemInit        system_stm32f4xx.o
    0x08000b68   0x08000b68   0x00000020   Code   RO         4751    i.TIM_BDTRConfig    stm32f4xx_tim.o
    0x08000b88   0x08000b88   0x00000018   Code   RO         4762    i.TIM_Cmd           stm32f4xx_tim.o
    0x08000ba0   0x08000ba0   0x0000001e   Code   RO         4764    i.TIM_CtrlPWMOutputs  stm32f4xx_tim.o
    0x08000bbe   0x08000bbe   0x00000002   PAD
    0x08000bc0   0x08000bc0   0x0000007c   Code   RO         4791    i.TIM_OC1Init       stm32f4xx_tim.o
    0x08000c3c   0x08000c3c   0x000000a4   Code   RO         4796    i.TIM_OC2Init       stm32f4xx_tim.o
    0x08000ce0   0x08000ce0   0x000000a0   Code   RO         4801    i.TIM_OC3Init       stm32f4xx_tim.o
    0x08000d80   0x08000d80   0x00000078   Code   RO         4806    i.TIM_OC4Init       stm32f4xx_tim.o
    0x08000df8   0x08000df8   0x00000004   Code   RO         4824    i.TIM_SetCompare1   stm32f4xx_tim.o
    0x08000dfc   0x08000dfc   0x00000004   Code   RO         4825    i.TIM_SetCompare2   stm32f4xx_tim.o
    0x08000e00   0x08000e00   0x00000004   Code   RO         4826    i.TIM_SetCompare3   stm32f4xx_tim.o
    0x08000e04   0x08000e04   0x00000004   Code   RO         4827    i.TIM_SetCompare4   stm32f4xx_tim.o
    0x08000e08   0x08000e08   0x00000084   Code   RO         4834    i.TIM_TimeBaseInit  stm32f4xx_tim.o
    0x08000e8c   0x08000e8c   0x000000a0   Code   RO         2243    i.USART1_IRQHandler  usart1.o
    0x08000f2c   0x08000f2c   0x000000a8   Code   RO         2304    i.USART2_IRQHandler  usart2.o
    0x08000fd4   0x08000fd4   0x000000a8   Code   RO         2358    i.USART3_IRQHandler  usart3.o
    0x0800107c   0x0800107c   0x000000a8   Code   RO         2412    i.USART6_IRQHandler  usart6.o
    0x08001124   0x08001124   0x0000001e   Code   RO         5316    i.USART_ClearITPendingBit  stm32f4xx_usart.o
    0x08001142   0x08001142   0x00000018   Code   RO         5319    i.USART_Cmd         stm32f4xx_usart.o
    0x0800115a   0x0800115a   0x0000004a   Code   RO         5325    i.USART_ITConfig    stm32f4xx_usart.o
    0x080011a4   0x080011a4   0x000000d4   Code   RO         5326    i.USART_Init        stm32f4xx_usart.o
    0x08001278   0x08001278   0x00000018   Code   RO         5342    i.USART_StructInit  stm32f4xx_usart.o
    0x08001290   0x08001290   0x00000100   Code   RO         1594    i._ZN10BallSensor10ballInGripEv  ballsensor.o
    0x08001390   0x08001390   0x0000002a   Code   RO         1595    i._ZN10BallSensor18ballLongTimeInGripEv  ballsensor.o
    0x080013ba   0x080013ba   0x00000018   Code   RO         1596    i._ZN10BallSensor8getValueEv  ballsensor.o
    0x080013d2   0x080013d2   0x00000002   PAD
    0x080013d4   0x080013d4   0x00000024   Code   RO         1597    i._ZN10BallSensorC1ER3Dma  ballsensor.o
    0x080013f8   0x080013f8   0x00000004   Code   RO          392    i._ZN10Goalkeeper12setLeaveTimeEs  goalkeeper.o
    0x080013fc   0x080013fc   0x00000012   Code   RO          393    i._ZN10Goalkeeper13dist2GoalLongEv  goalkeeper.o
    0x0800140e   0x0800140e   0x00000002   PAD
    0x08001410   0x08001410   0x00000068   Code   RO          395    i._ZN10Goalkeeper16angleStopLeavingEf  goalkeeper.o
    0x08001478   0x08001478   0x00000038   Code   RO          396    i._ZN10Goalkeeper16changeFromReturnEv  goalkeeper.o
    0x080014b0   0x080014b0   0x00000074   Code   RO          397    i._ZN10Goalkeeper16getGoalkeeperPosEv  goalkeeper.o
    0x08001524   0x08001524   0x00000088   Code   RO          398    i._ZN10Goalkeeper17getTargetRadiusesEv  goalkeeper.o
    0x080015ac   0x080015ac   0x000001c4   Code   RO          399    i._ZN10Goalkeeper18getVecToGoalCenterEv  goalkeeper.o
    0x08001770   0x08001770   0x000000ac   Code   RO          400    i._ZN10Goalkeeper19getCurrentLeaveTimeEs  goalkeeper.o
    0x0800181c   0x0800181c   0x00000084   Code   RO          401    i._ZN10Goalkeeper19getTargetGoalkeeperEv  goalkeeper.o
    0x080018a0   0x080018a0   0x0000001c   Code   RO          402    i._ZN10Goalkeeper19setAngleLeaveStatusEv  goalkeeper.o
    0x080018bc   0x080018bc   0x00000614   Code   RO          404    i._ZN10Goalkeeper20getVecToIntersectionEs  goalkeeper.o
    0x08001ed0   0x08001ed0   0x0000004c   Code   RO          405    i._ZN10GoalkeeperC1Ev  goalkeeper.o
    0x08001f1c   0x08001f1c   0x0000003c   Code   RO         1373    i._ZN12omniplatform11adduct0_360Ef  omniplatform.o
    0x08001f58   0x08001f58   0x00000220   Code   RO         1374    i._ZN12omniplatform4moveEfffff  omniplatform.o
    0x08002178   0x08002178   0x00000024   Code   RO         1375    i._ZN12omniplatform7disableEv  omniplatform.o
    0x0800219c   0x0800219c   0x00000044   Code   RO         1376    i._ZN12omniplatformC1ER5MotorS1_S1_S1_  omniplatform.o
    0x080021e0   0x080021e0   0x00000060   Code   RO         1832    i._ZN12time_service4initEv  time_service.o
    0x08002240   0x08002240   0x00000024   Code   RO         1833    i._ZN12time_service5delayEj  time_service.o
    0x08002264   0x08002264   0x0000000c   Code   RO         1834    i._ZN12time_service6millisEv  time_service.o
    0x08002270   0x08002270   0x00000012   Code   RO         1836    i._ZN12time_service9startTimeEv  time_service.o
    0x08002282   0x08002282   0x00000002   PAD
    0x08002284   0x08002284   0x0000004c   Code   RO         1639    i._ZN14VoltageDividor10getVoltageEv  voltage.o
    0x080022d0   0x080022d0   0x00000018   Code   RO         1640    i._ZN14VoltageDividor10voltageLowEf  voltage.o
    0x080022e8   0x080022e8   0x00000010   Code   RO         1641    i._ZN14VoltageDividorC1ER3Dma  voltage.o
    0x080022f8   0x080022f8   0x000001a4   Code   RO          699    i._ZN15ProcessingCoord10ballInBackEfh  processing_coord.o
    0x0800249c   0x0800249c   0x0000003c   Code   RO          700    i._ZN15ProcessingCoord10checkXLeftEsh  processing_coord.o
    0x080024d8   0x080024d8   0x00000012   Code   RO          701    i._ZN15ProcessingCoord10checkYDownEs  processing_coord.o
    0x080024ea   0x080024ea   0x0000003a   Code   RO          702    i._ZN15ProcessingCoord11checkXRightEsh  processing_coord.o
    0x08002524   0x08002524   0x00000138   Code   RO          703    i._ZN15ProcessingCoord13getVecToPointEss  processing_coord.o
    0x0800265c   0x0800265c   0x00000084   Code   RO          705    i._ZN15ProcessingCoord15getTarget2EnemyEv  processing_coord.o
    0x080026e0   0x080026e0   0x000000f0   Code   RO          706    i._ZN15ProcessingCoord19suitableParams2KickEv  processing_coord.o
    0x080027d0   0x080027d0   0x00000020   Code   RO          708    i._ZN15ProcessingCoord6adductEs  processing_coord.o
    0x080027f0   0x080027f0   0x00000004   Code   RO          709    i._ZN15ProcessingCoord7setGoalEh  processing_coord.o
    0x080027f4   0x080027f4   0x00000012   Code   RO          710    i._ZN15ProcessingCoord8checkYUpEs  processing_coord.o
    0x08002806   0x08002806   0x0000004a   Code   RO          711    i._ZN15ProcessingCoord8distanceEffff  processing_coord.o
    0x08002850   0x08002850   0x00000020   Code   RO          712    i._ZN15ProcessingCoord9adduct180Es  processing_coord.o
    0x08002870   0x08002870   0x00000006   Code   RO          713    i._ZN15ProcessingCoord9setMaxLenEf  processing_coord.o
    0x08002876   0x08002876   0x00000012   Code   RO          714    i._ZN15ProcessingCoord9setParamsEsssss  processing_coord.o
    0x08002888   0x08002888   0x0000002e   Code   RO          715    i._ZN15ProcessingCoordC1Ev  processing_coord.o
    0x080028b6   0x080028b6   0x00000024   Code   RO         2466    i._ZN3Adc10adcDmaInitEv  adc.o
    0x080028da   0x080028da   0x00000024   Code   RO         2467    i._ZN3Adc10setChannelEv  adc.o
    0x080028fe   0x080028fe   0x00000002   PAD
    0x08002900   0x08002900   0x00000028   Code   RO         2468    i._ZN3Adc12getRCCPeriphEP11ADC_TypeDef  adc.o
    0x08002928   0x08002928   0x00000006   Code   RO         2470    i._ZN3Adc6getADCEv  adc.o
    0x0800292e   0x0800292e   0x00000028   Code   RO         2471    i._ZN3Adc7adcInitEh  adc.o
    0x08002956   0x08002956   0x0000003c   Code   RO         2473    i._ZN3Adc8startADCEv  adc.o
    0x08002992   0x08002992   0x00000026   Code   RO         2474    i._ZN3Adc9getCyclesEh  adc.o
    0x080029b8   0x080029b8   0x00000038   Code   RO         2475    i._ZN3AdcC1EP11ADC_TypeDefhh  adc.o
    0x080029f0   0x080029f0   0x00000010   Code   RO         2553    i._ZN3Dma10dataReturnEh  dma.o
    0x08002a00   0x08002a00   0x0000002a   Code   RO         2554    i._ZN3Dma12adcInitInDmaEh  dma.o
    0x08002a2a   0x08002a2a   0x0000006c   Code   RO         2556    i._ZN3Dma7dmaInitEP18DMA_Stream_TypeDefjj  dma.o
    0x08002a96   0x08002a96   0x0000003c   Code   RO         2558    i._ZN3DmaC1EjR3AdcP18DMA_Stream_TypeDefjjh  dma.o
    0x08002ad2   0x08002ad2   0x00000002   PAD
    0x08002ad4   0x08002ad4   0x00000134   Code   RO         1714    i._ZN3Pin12RCC_ClockCmdEv  pin.o
    0x08002c08   0x08002c08   0x000000f4   Code   RO         1715    i._ZN3Pin12setTimParamsEt  pin.o
    0x08002cfc   0x08002cfc   0x00000028   Code   RO         1716    i._ZN3Pin13setAFforUSARTEt  pin.o
    0x08002d24   0x08002d24   0x00000044   Code   RO         1717    i._ZN3Pin3pwmEj     pin.o
    0x08002d68   0x08002d68   0x00000020   Code   RO         1718    i._ZN3Pin3setEb     pin.o
    0x08002d88   0x08002d88   0x00000006   Code   RO         1719    i._ZN3Pin6getPinEv  pin.o
    0x08002d8e   0x08002d8e   0x00000010   Code   RO         1720    i._ZN3Pin6setBitEv  pin.o
    0x08002d9e   0x08002d9e   0x000000cc   Code   RO         1721    i._ZN3Pin6setPinEh  pin.o
    0x08002e6a   0x08002e6a   0x00000002   PAD
    0x08002e6c   0x08002e6c   0x0000012c   Code   RO         1722    i._ZN3Pin7pwmInitEsjh  pin.o
    0x08002f98   0x08002f98   0x00000018   Code   RO         1723    i._ZN3Pin7readPinEv  pin.o
    0x08002fb0   0x08002fb0   0x00000074   Code   RO         1724    i._ZN3Pin7setGPIOEc  pin.o
    0x08003024   0x08003024   0x00000006   Code   RO         1725    i._ZN3Pin8getGPIOxEv  pin.o
    0x0800302a   0x0800302a   0x00000010   Code   RO         1726    i._ZN3Pin8resetBitEv  pin.o
    0x0800303a   0x0800303a   0x00000008   Code   RO         1727    i._ZN3Pin9getPeriodEv  pin.o
    0x08003042   0x08003042   0x00000002   PAD
    0x08003044   0x08003044   0x00000234   Code   RO         1728    i._ZN3PinC1Echt     pin.o
    0x08003278   0x08003278   0x000001b4   Code   RO         1110    i._ZN4TSOP11angleOffsetEddd  tsop.o
    0x0800342c   0x0800342c   0x000000ac   Code   RO         1111    i._ZN4TSOP11convertDistEd  tsop.o
    0x080034d8   0x080034d8   0x00000118   Code   RO         1112    i._ZN4TSOP11updateTSOPsEv  tsop.o
    0x080035f0   0x080035f0   0x00000020   Code   RO         1113    i._ZN4TSOP6adductEs  tsop.o
    0x08003610   0x08003610   0x0000003c   Code   RO         1114    i._ZN4TSOP7ballFarEf  tsop.o
    0x0800364c   0x0800364c   0x00000010   Code   RO         1115    i._ZN4TSOP7distBadEs  tsop.o
    0x0800365c   0x0800365c   0x00000006   Code   RO         1116    i._ZN4TSOP7getDistEv  tsop.o
    0x08003662   0x08003662   0x00000006   Code   RO         1117    i._ZN4TSOP8getAngleEv  tsop.o
    0x08003668   0x08003668   0x00000130   Code   RO         1118    i._ZN4TSOP9calculateEv  tsop.o
    0x08003798   0x08003798   0x00000080   Code   RO         1119    i._ZN4TSOPC1ER3PinS1_S1_S1_S1_S1_  tsop.o
    0x08003818   0x08003818   0x0000000c   Code   RO         2192    i._ZN5Motor11getMaxSpeedEv  motor.o
    0x08003824   0x08003824   0x0000006c   Code   RO         2193    i._ZN5Motor2goEs    motor.o
    0x08003890   0x08003890   0x00000018   Code   RO         2194    i._ZN5Motor7disableEv  motor.o
    0x080038a8   0x080038a8   0x00000046   Code   RO         2196    i._ZN5MotorC1ER3PinhS1_h  motor.o
    0x080038ee   0x080038ee   0x00000002   PAD
    0x080038f0   0x080038f0   0x00000398   Code   RO         1529    i._ZN5Vec2b8changeToES_  vec2b.o
    0x08003c88   0x08003c88   0x0000000a   Code   RO         1530    i._ZN5Vec2bC1Edd    vec2b.o
    0x08003c92   0x08003c92   0x00000002   PAD
    0x08003c94   0x08003c94   0x0000001c   Code   RO         1531    i._ZN5Vec2bC1Ev     vec2b.o
    0x08003cb0   0x08003cb0   0x00000046   Code   RO         1532    i._ZN5Vec2bmLERKf   vec2b.o
    0x08003cf6   0x08003cf6   0x00000002   PAD
    0x08003cf8   0x08003cf8   0x0000021c   Code   RO         1534    i._ZN5Vec2bplERKS_  vec2b.o
    0x08003f14   0x08003f14   0x00000168   Code   RO         2244    i._ZN5uart110usart1InitEjfh  usart1.o
    0x0800407c   0x0800407c   0x00000048   Code   RO         2245    i._ZN5uart14readEv  usart1.o
    0x080040c4   0x080040c4   0x00000034   Code   RO         2247    i._ZN5uart19availableEv  usart1.o
    0x080040f8   0x080040f8   0x00000168   Code   RO         2305    i._ZN5uart210usart2InitEjfh  usart2.o
    0x08004260   0x08004260   0x00000048   Code   RO         2306    i._ZN5uart24readEv  usart2.o
    0x080042a8   0x080042a8   0x00000034   Code   RO         2308    i._ZN5uart29availableEv  usart2.o
    0x080042dc   0x080042dc   0x00000168   Code   RO         2359    i._ZN5uart310usart3InitEjfh  usart3.o
    0x08004444   0x08004444   0x00000048   Code   RO         2360    i._ZN5uart34readEv  usart3.o
    0x0800448c   0x0800448c   0x00000034   Code   RO         2362    i._ZN5uart39availableEv  usart3.o
    0x080044c0   0x080044c0   0x00000168   Code   RO         2413    i._ZN5uart610usart6InitEjfh  usart6.o
    0x08004628   0x08004628   0x00000048   Code   RO         2414    i._ZN5uart64readEv  usart6.o
    0x08004670   0x08004670   0x00000034   Code   RO         2416    i._ZN5uart69availableEv  usart6.o
    0x080046a4   0x080046a4   0x000000e0   Code   RO         1681    i._ZN6Button7pressedEv  button.o
    0x08004784   0x08004784   0x00000028   Code   RO         1682    i._ZN6ButtonC1E3Pinb  button.o
    0x080047ac   0x080047ac   0x00000012   Code   RO          966    i._ZN6Kicker12getDMASignalEv  kicker.o
    0x080047be   0x080047be   0x00000002   PAD
    0x080047c0   0x080047c0   0x000000b8   Code   RO          967    i._ZN6Kicker15setKickerStatusEb  kicker.o
    0x08004878   0x08004878   0x0000000c   Code   RO          968    i._ZN6Kicker4openEv  kicker.o
    0x08004884   0x08004884   0x0000000c   Code   RO          969    i._ZN6Kicker5closeEv  kicker.o
    0x08004890   0x08004890   0x00000006   Code   RO          970    i._ZN6Kicker7canKickEv  kicker.o
    0x08004896   0x08004896   0x00000002   PAD
    0x08004898   0x08004898   0x00000020   Code   RO          971    i._ZN6KickerC1ER3PinR3Dma  kicker.o
    0x080048b8   0x080048b8   0x00000018   Code   RO         1210    i._ZN6OpenMV10initCoordsEv  openmv.o
    0x080048d0   0x080048d0   0x00000020   Code   RO         1211    i._ZN6OpenMV11adductionMVEs  openmv.o
    0x080048f0   0x080048f0   0x00000008   Code   RO         1212    i._ZN6OpenMV11getDistBlueEv  openmv.o
    0x080048f8   0x080048f8   0x00000008   Code   RO         1213    i._ZN6OpenMV12getAngleBlueEv  openmv.o
    0x08004900   0x08004900   0x00000008   Code   RO         1214    i._ZN6OpenMV13getDistYellowEv  openmv.o
    0x08004908   0x08004908   0x00000008   Code   RO         1215    i._ZN6OpenMV14getAngleYellowEv  openmv.o
    0x08004910   0x08004910   0x0000003a   Code   RO         1216    i._ZN6OpenMV4crc8EPVhh  openmv.o
    0x0800494a   0x0800494a   0x00000012   Code   RO         1217    i._ZN6OpenMV4getXEv  openmv.o
    0x0800495c   0x0800495c   0x00000012   Code   RO         1218    i._ZN6OpenMV4getYEv  openmv.o
    0x0800496e   0x0800496e   0x00000128   Code   RO         1219    i._ZN6OpenMV4readEv  openmv.o
    0x08004a96   0x08004a96   0x00000002   PAD
    0x08004a98   0x08004a98   0x000002bc   Code   RO         1220    i._ZN6OpenMV9calculateEsbb  openmv.o
    0x08004d54   0x08004d54   0x00000056   Code   RO         1221    i._ZN6OpenMV9initUSARTEh  openmv.o
    0x08004daa   0x08004daa   0x00000002   PAD
    0x08004dac   0x08004dac   0x0000003c   Code   RO         1222    i._ZN6OpenMVC1ER3PinS1_h  openmv.o
    0x08004de8   0x08004de8   0x00000078   Code   RO          526    i._ZN7Forward10myGoalLineEss  forward.o
    0x08004e60   0x08004e60   0x00000130   Code   RO          527    i._ZN7Forward10nearMyGoalEv  forward.o
    0x08004f90   0x08004f90   0x00000012   Code   RO          528    i._ZN7Forward10robotInOUTEv  forward.o
    0x08004fa2   0x08004fa2   0x00000002   PAD
    0x08004fa4   0x08004fa4   0x000001fc   Code   RO          529    i._ZN7Forward10setVec2OutEh5Vec2b  forward.o
    0x080051a0   0x080051a0   0x0000002c   Code   RO          530    i._ZN7Forward11getBallSideEf  forward.o
    0x080051cc   0x080051cc   0x00000036   Code   RO          531    i._ZN7Forward11inEnemyGoalEv  forward.o
    0x08005202   0x08005202   0x00000008   Code   RO          532    i._ZN7Forward11resetCountsEv  forward.o
    0x0800520a   0x0800520a   0x00000002   PAD
    0x0800520c   0x0800520c   0x00000228   Code   RO          533    i._ZN7Forward11vec2bOnGoalEff  forward.o
    0x08005434   0x08005434   0x0000005e   Code   RO          534    i._ZN7Forward12robotNearOUTEh  forward.o
    0x08005492   0x08005492   0x00000002   PAD
    0x08005494   0x08005494   0x0000007c   Code   RO          536    i._ZN7Forward13enemyGoalLineEss  forward.o
    0x08005510   0x08005510   0x000000e8   Code   RO          538    i._ZN7Forward13projectionOnYE5Vec2b  forward.o
    0x080055f8   0x080055f8   0x000000ec   Code   RO          539    i._ZN7Forward14isMyGoalCircleEssss  forward.o
    0x080056e4   0x080056e4   0x000000d0   Code   RO          540    i._ZN7Forward15setResOUTVectorE7OutPair5Vec2b  forward.o
    0x080057b4   0x080057b4   0x00000012   Code   RO          541    i._ZN7Forward16robotInFreeFieldEv  forward.o
    0x080057c6   0x080057c6   0x00000002   PAD
    0x080057c8   0x080057c8   0x000000b4   Code   RO          542    i._ZN7Forward17getVecForMyCircleEss  forward.o
    0x0800587c   0x0800587c   0x00000118   Code   RO          543    i._ZN7Forward17isEnemyGoalCircleEssss  forward.o
    0x08005994   0x08005994   0x00000134   Code   RO          544    i._ZN7Forward20getVecForEnemyCircleEss  forward.o
    0x08005ac8   0x08005ac8   0x00000036   Code   RO          545    i._ZN7Forward8inMyGoalEv  forward.o
    0x08005afe   0x08005afe   0x00000002   PAD
    0x08005b00   0x08005b00   0x00000104   Code   RO          546    i._ZN7Forward9ballInOUTEf  forward.o
    0x08005c04   0x08005c04   0x0000013a   Code   RO          547    i._ZN7Forward9checkOUTsEv  forward.o
    0x08005d3e   0x08005d3e   0x0000001c   Code   RO          548    i._ZN7ForwardC1Ev   forward.o
    0x08005d5a   0x08005d5a   0x00000010   Code   RO          676    i._ZN7OutPair6setOutEh  forward.o
    0x08005d6a   0x08005d6a   0x00000008   Code   RO          145    i._ZN7OutPairC1Ev   main.o
    0x08005d72   0x08005d72   0x0000000a   Code   RO          139    i._ZN7OutPairaSERKS_  main.o
    0x08005d7c   0x08005d7c   0x0000000c   Code   RO           10    i._ZN8Asterisk10calibratedEv  main.o
    0x08005d88   0x08005d88   0x00000728   Code   RO           11    i._ZN8Asterisk15forwardStrategyEv  main.o
    0x080064b0   0x080064b0   0x00000b14   Code   RO           12    i._ZN8Asterisk18goalkeeperStrategyEv  main.o
    0x08006fc4   0x08006fc4   0x000002e0   Code   RO           13    i._ZN8Asterisk20getVec2bToBallFollowEv  main.o
    0x080072a4   0x080072a4   0x00000224   Code   RO           14    i._ZN8Asterisk4initEhhh  main.o
    0x080074c8   0x080074c8   0x00000570   Code   RO           15    i._ZN8Asterisk6updateEv  main.o
    0x08007a38   0x08007a38   0x0000000c   Code   RO           16    i._ZN8Asterisk7getRoleEv  main.o
    0x08007a44   0x08007a44   0x00000178   Code   RO           17    i._ZN8Asterisk9mustLeaveEv  main.o
    0x08007bbc   0x08007bbc   0x0000003c   Code   RO         1422    i._ZN8gyro_imu11adduct0_360Ef  imu_usart.o
    0x08007bf8   0x08007bf8   0x00000008   Code   RO         1423    i._ZN8gyro_imu11getRotationEv  imu_usart.o
    0x08007c00   0x08007c00   0x000000ec   Code   RO         1424    i._ZN8gyro_imu12setZeroAngleEv  imu_usart.o
    0x08007cec   0x08007cec   0x000000b4   Code   RO         1425    i._ZN8gyro_imu13calculateSoftEffh  imu_usart.o
    0x08007da0   0x08007da0   0x00000008   Code   RO         1426    i._ZN8gyro_imu14getMaxRotationEv  imu_usart.o
    0x08007da8   0x08007da8   0x00000008   Code   RO         1427    i._ZN8gyro_imu15getCurrentAngleEv  imu_usart.o
    0x08007db0   0x08007db0   0x00000060   Code   RO         1428    i._ZN8gyro_imu20setRotationForTargetEv  imu_usart.o
    0x08007e10   0x08007e10   0x00000110   Code   RO         1429    i._ZN8gyro_imu4readEv  imu_usart.o
    0x08007f20   0x08007f20   0x00000020   Code   RO         1430    i._ZN8gyro_imu6adductEs  imu_usart.o
    0x08007f40   0x08007f40   0x00000012   Code   RO         1431    i._ZN8gyro_imu9getTargetEv  imu_usart.o
    0x08007f52   0x08007f52   0x00000056   Code   RO         1432    i._ZN8gyro_imu9initUSARTEh  imu_usart.o
    0x08007fa8   0x08007fa8   0x00000024   Code   RO         1433    i._ZN8gyro_imu9setTargetEf  imu_usart.o
    0x08007fcc   0x08007fcc   0x00000030   Code   RO         1434    i._ZN8gyro_imuC1ER3PinS1_h  imu_usart.o
    0x08007ffc   0x08007ffc   0x000002b6   Code   RO          835    i._ZN9BallVec2b12changeValuesEb  queues_ball.o
    0x080082b2   0x080082b2   0x0000000a   Code   RO          837    i._ZN9BallVec2b16getDerivativeAngEv  queues_ball.o
    0x080082bc   0x080082bc   0x0000000a   Code   RO          838    i._ZN9BallVec2b17getDerivativeDistEv  queues_ball.o
    0x080082c6   0x080082c6   0x00000002   PAD
    0x080082c8   0x080082c8   0x0000010c   Code   RO          839    i._ZN9BallVec2b18setTransitionBy360Ev  queues_ball.o
    0x080083d4   0x080083d4   0x000001ec   Code   RO          840    i._ZN9BallVec2b4pushE5Vec2bx  queues_ball.o
    0x080085c0   0x080085c0   0x00000088   Code   RO          841    i._ZN9BallVec2b6adductEd  queues_ball.o
    0x08008648   0x08008648   0x00000522   Code   RO          842    i._ZN9BallVec2b9calculateEv  queues_ball.o
    0x08008b6a   0x08008b6a   0x00000002   PAD
    0x08008b6c   0x08008b6c   0x000000b4   Code   RO          843    i._ZN9BallVec2bC1Ev  queues_ball.o
    0x08008c20   0x08008c20   0x00000012   Code   RO          901    i._ZN9Vec2bTime3setEddjs  queues_ball.o
    0x08008c32   0x08008c32   0x00000006   Code   RO          919    i._ZN9Vec2bTime6getLenEv  queues_ball.o
    0x08008c38   0x08008c38   0x00000060   Code   RO          907    i._ZN9Vec2bTime7correctEv  queues_ball.o
    0x08008c98   0x08008c98   0x00000006   Code   RO          931    i._ZN9Vec2bTime7getTimeEv  queues_ball.o
    0x08008c9e   0x08008c9e   0x00000006   Code   RO          925    i._ZN9Vec2bTime8getAngleEv  queues_ball.o
    0x08008ca4   0x08008ca4   0x0000000e   Code   RO          937    i._ZN9Vec2bTimeC1Ev  queues_ball.o
    0x08008cb2   0x08008cb2   0x00000020   Code   RO          133    i._ZSt3absd         main.o
    0x08008cd2   0x08008cd2   0x0000000a   Code   RO          121    i._ZSt3absf         main.o
    0x08008cdc   0x08008cdc   0x00000018   Code   RO         1300    i._ZSt3cosf         openmv.o
    0x08008cf4   0x08008cf4   0x00000034   Code   RO          913    i._ZSt3powdi        queues_ball.o
    0x08008d28   0x08008d28   0x00000020   Code   RO          489    i._ZSt3powff        goalkeeper.o
    0x08008d48   0x08008d48   0x00000022   Code   RO          495    i._ZSt3powfi        goalkeeper.o
    0x08008d6a   0x08008d6a   0x00000018   Code   RO         1306    i._ZSt3sinf         openmv.o
    0x08008d82   0x08008d82   0x00000018   Code   RO          813    i._ZSt4sqrtf        processing_coord.o
    0x08008d9a   0x08008d9a   0x00000020   Code   RO          127    i._ZSt5atan2ff      main.o
    0x08008dba   0x08008dba   0x00000030   Code   RO         5938    i.__ARM_fpclassify  m_wm.l(fpclassify.o)
    0x08008dea   0x08008dea   0x00000026   Code   RO         5940    i.__ARM_fpclassifyf  m_wm.l(fpclassifyf.o)
    0x08008e10   0x08008e10   0x00000024   Code   RO         5650    i.__aeabi_vec_ctor_nocookie_nodtor  cpprt_w.l(aeabi_vec_ctor_nocookie_nodtor.o)
    0x08008e34   0x08008e34   0x00000004   PAD
    0x08008e38   0x08008e38   0x000002d8   Code   RO         5907    i.__hardfp_atan     m_wm.l(atan.o)
    0x08009110   0x08009110   0x00000200   Code   RO         5709    i.__hardfp_atan2    m_wm.l(atan2.o)
    0x08009310   0x08009310   0x000002ac   Code   RO         5721    i.__hardfp_atan2f   m_wm.l(atan2f.o)
    0x080095bc   0x080095bc   0x00000004   PAD
    0x080095c0   0x080095c0   0x000000c8   Code   RO         5733    i.__hardfp_cos      m_wm.l(cos.o)
    0x08009688   0x08009688   0x00000150   Code   RO         5745    i.__hardfp_cosf     m_wm.l(cosf.o)
    0x080097d8   0x080097d8   0x00000014   Code   RO         5757    i.__hardfp_fabs     m_wm.l(fabs.o)
    0x080097ec   0x080097ec   0x00000004   PAD
    0x080097f0   0x080097f0   0x00000c50   Code   RO         5763    i.__hardfp_pow      m_wm.l(pow.o)
    0x0800a440   0x0800a440   0x00000664   Code   RO         5777    i.__hardfp_powf     m_wm.l(powf.o)
    0x0800aaa4   0x0800aaa4   0x00000004   PAD
    0x0800aaa8   0x0800aaa8   0x000000c8   Code   RO         5791    i.__hardfp_sin      m_wm.l(sin.o)
    0x0800ab70   0x0800ab70   0x00000190   Code   RO         5803    i.__hardfp_sinf     m_wm.l(sinf.o)
    0x0800ad00   0x0800ad00   0x0000007a   Code   RO         5815    i.__hardfp_sqrt     m_wm.l(sqrt.o)
    0x0800ad7a   0x0800ad7a   0x0000003a   Code   RO         5827    i.__hardfp_sqrtf    m_wm.l(sqrtf.o)
    0x0800adb4   0x0800adb4   0x00000004   PAD
    0x0800adb8   0x0800adb8   0x00000438   Code   RO         5959    i.__ieee754_rem_pio2  m_wm.l(rred.o)
    0x0800b1f0   0x0800b1f0   0x00000170   Code   RO         5921    i.__kernel_cos      m_wm.l(cos_i.o)
    0x0800b360   0x0800b360   0x000000f8   Code   RO         5956    i.__kernel_poly     m_wm.l(poly.o)
    0x0800b458   0x0800b458   0x00000130   Code   RO         5967    i.__kernel_sin      m_wm.l(sin_i.o)
    0x0800b588   0x0800b588   0x00000030   Code   RO         5924    i.__mathlib_dbl_divzero  m_wm.l(dunder.o)
    0x0800b5b8   0x0800b5b8   0x00000014   Code   RO         5925    i.__mathlib_dbl_infnan  m_wm.l(dunder.o)
    0x0800b5cc   0x0800b5cc   0x00000014   Code   RO         5926    i.__mathlib_dbl_infnan2  m_wm.l(dunder.o)
    0x0800b5e0   0x0800b5e0   0x00000020   Code   RO         5927    i.__mathlib_dbl_invalid  m_wm.l(dunder.o)
    0x0800b600   0x0800b600   0x00000020   Code   RO         5928    i.__mathlib_dbl_overflow  m_wm.l(dunder.o)
    0x0800b620   0x0800b620   0x00000020   Code   RO         5930    i.__mathlib_dbl_underflow  m_wm.l(dunder.o)
    0x0800b640   0x0800b640   0x00000014   Code   RO         5942    i.__mathlib_flt_divzero  m_wm.l(funder.o)
    0x0800b654   0x0800b654   0x00000006   Code   RO         5943    i.__mathlib_flt_infnan  m_wm.l(funder.o)
    0x0800b65a   0x0800b65a   0x00000006   Code   RO         5944    i.__mathlib_flt_infnan2  m_wm.l(funder.o)
    0x0800b660   0x0800b660   0x00000010   Code   RO         5945    i.__mathlib_flt_invalid  m_wm.l(funder.o)
    0x0800b670   0x0800b670   0x00000010   Code   RO         5946    i.__mathlib_flt_overflow  m_wm.l(funder.o)
    0x0800b680   0x0800b680   0x00000010   Code   RO         5948    i.__mathlib_flt_underflow  m_wm.l(funder.o)
    0x0800b690   0x0800b690   0x00000154   Code   RO         5964    i.__mathlib_rredf2  m_wm.l(rredf.o)
    0x0800b7e4   0x0800b7e4   0x000004ac   Code   RO           18    i.__sti___8_main_cpp_ab1d1ed5  main.o
    0x0800bc90   0x0800bc90   0x00000004   Code   RO         2833    i._sys_exit         retarget.o
    0x0800bc94   0x0800bc94   0x00000010   Code   RO         5909    i.atan              m_wm.l(atan.o)
    0x0800bca4   0x0800bca4   0x00000018   Code   RO         5759    i.fabs              m_wm.l(fabs.o)
    0x0800bcbc   0x0800bcbc   0x000001f0   Code   RO           19    i.main              main.o
    0x0800beac   0x0800beac   0x0000006e   Code   RO         5817    i.sqrt              m_wm.l(sqrt.o)
    0x0800bf1a   0x0800bf1a   0x00000018   Code   RO         5653    x$fpl$basic         fz_wm.l(basic.o)
    0x0800bf32   0x0800bf32   0x00000002   PAD
    0x0800bf34   0x0800bf34   0x00000062   Code   RO         5655    x$fpl$d2f           fz_wm.l(d2f.o)
    0x0800bf96   0x0800bf96   0x00000002   PAD
    0x0800bf98   0x0800bf98   0x00000150   Code   RO         5657    x$fpl$dadd          fz_wm.l(daddsub_clz.o)
    0x0800c0e8   0x0800c0e8   0x00000010   Code   RO         5998    x$fpl$dcheck1       fz_wm.l(dcheck1.o)
    0x0800c0f8   0x0800c0f8   0x00000018   Code   RO         5890    x$fpl$dcmpinf       fz_wm.l(dcmpi.o)
    0x0800c110   0x0800c110   0x000002b0   Code   RO         5664    x$fpl$ddiv          fz_wm.l(ddiv.o)
    0x0800c3c0   0x0800c3c0   0x00000078   Code   RO         5667    x$fpl$deqf          fz_wm.l(deqf.o)
    0x0800c438   0x0800c438   0x0000005e   Code   RO         5669    x$fpl$dfix          fz_wm.l(dfix.o)
    0x0800c496   0x0800c496   0x0000002e   Code   RO         5678    x$fpl$dflt          fz_wm.l(dflt_clz.o)
    0x0800c4c4   0x0800c4c4   0x000000a2   Code   RO         5683    x$fpl$dfltll        fz_wm.l(dfltll_clz.o)
    0x0800c566   0x0800c566   0x00000026   Code   RO         5677    x$fpl$dfltu         fz_wm.l(dflt_clz.o)
    0x0800c58c   0x0800c58c   0x0000008a   Code   RO         5684    x$fpl$dfltull       fz_wm.l(dfltll_clz.o)
    0x0800c616   0x0800c616   0x00000002   PAD
    0x0800c618   0x0800c618   0x00000078   Code   RO         5687    x$fpl$dleqf         fz_wm.l(dleqf.o)
    0x0800c690   0x0800c690   0x00000154   Code   RO         5689    x$fpl$dmul          fz_wm.l(dmul.o)
    0x0800c7e4   0x0800c7e4   0x0000009c   Code   RO         5892    x$fpl$dnaninf       fz_wm.l(dnaninf.o)
    0x0800c880   0x0800c880   0x0000000c   Code   RO         5894    x$fpl$dretinf       fz_wm.l(dretinf.o)
    0x0800c88c   0x0800c88c   0x0000006c   Code   RO         5691    x$fpl$drleqf        fz_wm.l(drleqf.o)
    0x0800c8f8   0x0800c8f8   0x00000016   Code   RO         5658    x$fpl$drsb          fz_wm.l(daddsub_clz.o)
    0x0800c90e   0x0800c90e   0x00000002   PAD
    0x0800c910   0x0800c910   0x00000198   Code   RO         5896    x$fpl$dsqrt         fz_wm.l(dsqrt_umaal.o)
    0x0800caa8   0x0800caa8   0x000001d4   Code   RO         5659    x$fpl$dsub          fz_wm.l(daddsub_clz.o)
    0x0800cc7c   0x0800cc7c   0x00000056   Code   RO         5693    x$fpl$f2d           fz_wm.l(f2d.o)
    0x0800ccd2   0x0800ccd2   0x0000008c   Code   RO         5898    x$fpl$fnaninf       fz_wm.l(fnaninf.o)
    0x0800cd5e   0x0800cd5e   0x0000000a   Code   RO         6000    x$fpl$fpinit        fz_wm.l(fpinit.o)
    0x0800cd68   0x0800cd68   0x0000000a   Code   RO         5900    x$fpl$fretinf       fz_wm.l(fretinf.o)
    0x0800cd72   0x0800cd72   0x00000064   Code   RO         6026    x$fpl$retnan        fz_wm.l(retnan.o)
    0x0800cdd6   0x0800cdd6   0x0000005c   Code   RO         5904    x$fpl$scalbn        fz_wm.l(scalbn.o)
    0x0800ce32   0x0800ce32   0x00000030   Code   RO         6102    x$fpl$trapveneer    fz_wm.l(trapv.o)
    0x0800ce62   0x0800ce62   0x00000000   Code   RO         5906    x$fpl$usenofp       fz_wm.l(usenofp.o)
    0x0800ce62   0x0800ce62   0x0000003d   Data   RO         2846    .constdata          retarget.o
    0x0800ce9f   0x0800ce9f   0x00000001   PAD
    0x0800cea0   0x0800cea0   0x00000088   Data   RO         5766    .constdata          m_wm.l(pow.o)
    0x0800cf28   0x0800cf28   0x00000140   Data   RO         5780    .constdata          m_wm.l(powf.o)
    0x0800d068   0x0800d068   0x00000098   Data   RO         5910    .constdata          m_wm.l(atan.o)
    0x0800d100   0x0800d100   0x00000030   Data   RO         5922    .constdata          m_wm.l(cos_i.o)
    0x0800d130   0x0800d130   0x00000008   Data   RO         5958    .constdata          m_wm.l(qnan.o)
    0x0800d138   0x0800d138   0x000000c8   Data   RO         5961    .constdata          m_wm.l(rred.o)
    0x0800d200   0x0800d200   0x00000020   Data   RO         5965    .constdata          m_wm.l(rredf.o)
    0x0800d220   0x0800d220   0x00000028   Data   RO         5968    .constdata          m_wm.l(sin_i.o)
    0x0800d248   0x0800d248   0x00000020   Data   RO         6208    Region$$Table       anon$$obj.o
    0x0800d268   0x0800d268   0x00000004   Data   RO           38    .init_array         main.o
    0x0800d26c   0x0800d268   0x00000000   Data   RO         5645    .init_array         c_w.l(init_aeabi.o)


    Execution Region RW_IRAM1 (Exec base: 0x20000000, Load base: 0x0800d26c, Size: 0x00004048, Max: 0x00020000, ABSOLUTE, COMPRESSED[0x00000010])

    Exec Addr    Load Addr    Size         Type   Attr      Idx    E Section Name        Object

    0x20000000   COMPRESSED   0x0000011c   Data   RW           37    .data               main.o
    0x2000011c   COMPRESSED   0x00000004   Data   RW          420    .data               goalkeeper.o
    0x20000120   COMPRESSED   0x00000008   Data   RW         1843    .data               time_service.o
    0x20000128   COMPRESSED   0x00000019   Data   RW         2253    .data               usart1.o
    0x20000141   COMPRESSED   0x00000001   PAD
    0x20000142   COMPRESSED   0x00000019   Data   RW         2314    .data               usart2.o
    0x2000015b   COMPRESSED   0x00000001   PAD
    0x2000015c   COMPRESSED   0x00000019   Data   RW         2368    .data               usart3.o
    0x20000175   COMPRESSED   0x00000001   PAD
    0x20000176   COMPRESSED   0x00000019   Data   RW         2422    .data               usart6.o
    0x2000018f   COMPRESSED   0x00000001   PAD
    0x20000190   COMPRESSED   0x00000016   Data   RW         2782    .data               spi_1.o
    0x200001a6   COMPRESSED   0x00000010   Data   RW         4287    .data               stm32f4xx_rcc.o
    0x200001b6   COMPRESSED   0x00000002   PAD
    0x200001b8        -       0x00001f1c   Zero   RW           36    .bss                main.o
    0x200020d4        -       0x00000020   Zero   RW         2781    .bss                spi_1.o
    0x200020f4        -       0x00000060   Zero   RW         6003    .bss                c_w.l(libspace.o)
    0x20002154   COMPRESSED   0x00000004   PAD
    0x20002158        -       0x00000f00   Zero   RW         5508    HEAP                startup_stm32f407xx.o
    0x20003058        -       0x00000ff0   Zero   RW         5507    STACK               startup_stm32f407xx.o


==============================================================================

Image component sizes


      Code (inc. data)   RO Data    RW Data    ZI Data      Debug   Object Name

       312          8          0          0          0       5664   adc.o
       358         30          0          0          0       3548   ballsensor.o
       264          0          0          0          0       2060   button.o
       226          0          0          0          0       3596   dma.o
      3960        208          0          0          0      18576   forward.o
      2916        180          0          4          0      12779   goalkeeper.o
      1088         56          0          0          0       9180   imu_usart.o
       264         18          0          0          0     272256   kicker.o
      9528       1626          4        284       7964     351987   main.o
         0          0          0          0          0     256640   misc.o
       214          0          0          0          0       3176   motor.o
       708         34          0          0          0       3956   omniplatform.o
      1372         30          0          0          0      10900   openmv.o
      1952        218          0          0          0      10920   pin.o
      1494         56          0          0          0      12656   processing_coord.o
      3302         96          0          0          0      11956   queues_ball.o
         4          0         61          0          0       2672   retarget.o
       108         16          0         22         32       1302   spi_1.o
        64         26        392          0       7920        880   startup_stm32f407xx.o
       414         24          0          0          0      20052   stm32f4xx_adc.o
       454         26          0          0          0      15710   stm32f4xx_dma.o
       230          0          0          0          0      10600   stm32f4xx_gpio.o
       328         36          0         16          0      20143   stm32f4xx_rcc.o
        18          0          0          0          0       9452   stm32f4xx_spi.o
       802         66          0          0          0      27899   stm32f4xx_tim.o
       364          8          0          0          0      10219   stm32f4xx_usart.o
       376         26          0          0          0       1333   system_stm32f4xx.o
       186         22          0          8          0      32981   time_service.o
      1440        128          0          0          0       9124   tsop.o
       644         98          0         25          0      37991   usart1.o
       652        100          0         25          0       3612   usart2.o
       652        100          0         25          0       3612   usart3.o
       652        100          0         25          0       3612   usart6.o
      1568         76          0          0          0       4296   vec2b.o
       116         18          0          0          0       3264   voltage.o

    ----------------------------------------------------------------------
     37082       3430        490        440      15916    1208604   Object Totals
         0          0         32          0          0          0   (incl. Generated)
        52          0          1          6          0          0   (incl. Padding)

    ----------------------------------------------------------------------

      Code (inc. data)   RO Data    RW Data    ZI Data      Debug   Library Member Name

        90          0          0          0          0          0   __dczerorl2.o
         8          0          0          0          0         68   __main.o
         0          0          0          0          0          0   __rtentry.o
        12          0          0          0          0          0   __rtentry2.o
         6          0          0          0          0          0   __rtentry4.o
        52          8          0          0          0          0   __scatter.o
        28          0          0          0          0          0   __scatter_zi.o
        22          0          0          0          0        100   _rserrno.o
        18          0          0          0          0         80   exit.o
         6          0          0          0          0        152   heapauxi.o
        36         10          0          0          0         80   init_aeabi.o
         2          0          0          0          0          0   libinit.o
        10          0          0          0          0          0   libinit2.o
         2          0          0          0          0          0   libshutdown.o
         2          0          0          0          0          0   libshutdown2.o
         8          4          0          0         96         68   libspace.o
         8          4          0          0          0         68   rt_errno_addr_intlibspace.o
       100          0          0          0          0         80   rt_memcpy_w.o
         2          0          0          0          0          0   rtexit.o
        10          0          0          0          0          0   rtexit2.o
        74          0          0          0          0         80   sys_stackheap_outer.o
         2          0          0          0          0         68   use_no_semi.o
        36          0          0          0          0         84   aeabi_vec_ctor_nocookie_nodtor.o
        24          0          0          0          0        164   basic.o
        98          4          0          0          0        140   d2f.o
       826         16          0          0          0        492   daddsub_clz.o
        16          4          0          0          0        116   dcheck1.o
        24          0          0          0          0        116   dcmpi.o
       688        140          0          0          0        256   ddiv.o
       120          4          0          0          0        140   deqf.o
        94          4          0          0          0        140   dfix.o
        84          0          0          0          0        232   dflt_clz.o
       300          0          0          0          0        264   dfltll_clz.o
       120          4          0          0          0        140   dleqf.o
       340         12          0          0          0        152   dmul.o
       156          4          0          0          0        140   dnaninf.o
        12          0          0          0          0        116   dretinf.o
       108          0          0          0          0        128   drleqf.o
       408         56          0          0          0        168   dsqrt_umaal.o
        86          4          0          0          0        132   f2d.o
       140          4          0          0          0        132   fnaninf.o
        10          0          0          0          0        116   fpinit.o
        10          0          0          0          0        116   fretinf.o
       100          0          0          0          0        116   retnan.o
        92          0          0          0          0        116   scalbn.o
        48          0          0          0          0        116   trapv.o
         0          0          0          0          0          0   usenofp.o
       744        106        152          0          0        352   atan.o
       512         64          0          0          0        208   atan2.o
       684         90          0          0          0        208   atan2f.o
       200         20          0          0          0        164   cos.o
       368         46         48          0          0        200   cos_i.o
       336         56          0          0          0        136   cosf.o
       184         44          0          0          0        744   dunder.o
        44          0          0          0          0        248   fabs.o
        48          0          0          0          0        124   fpclassify.o
        38          0          0          0          0        116   fpclassifyf.o
        80         24          0          0          0        696   funder.o
       248          0          0          0          0        152   poly.o
      3152        296        136          0          0        352   pow.o
      1636        110        320          0          0        372   powf.o
         0          0          8          0          0          0   qnan.o
      1080        142        200          0          0        188   rred.o
       340         24         32          0          0        160   rredf.o
       200         20          0          0          0        164   sin.o
       304         24         40          0          0        208   sin_i.o
       400         56          0          0          0        212   sinf.o
       232          0          0          0          0        296   sqrt.o
        58          0          0          0          0        136   sqrtf.o

    ----------------------------------------------------------------------
     15360       1412        936          0        100      10112   Library Totals
        34          8          0          0          4          0   (incl. Padding)

    ----------------------------------------------------------------------

      Code (inc. data)   RO Data    RW Data    ZI Data      Debug   Library Name

       498         26          0          0         96        844   c_w.l
        36          0          0          0          0         84   cpprt_w.l
      3904        256          0          0          0       3748   fz_wm.l
     10888       1122        936          0          0       5436   m_wm.l

    ----------------------------------------------------------------------
     15360       1412        936          0        100      10112   Library Totals

    ----------------------------------------------------------------------

==============================================================================


      Code (inc. data)   RO Data    RW Data    ZI Data      Debug   

     52442       4842       1426        440      16016    1189752   Grand Totals
     52442       4842       1426         16      16016    1189752   ELF Image Totals (compressed)
     52442       4842       1426         16          0          0   ROM Totals

==============================================================================

    Total RO  Size (Code + RO Data)                53868 (  52.61kB)
    Total RW  Size (RW Data + ZI Data)             16456 (  16.07kB)
    Total ROM Size (Code + RO Data + RW Data)      53884 (  52.62kB)

==============================================================================

